

Microchip MPLAB XC8 Assembler V2.32 build 20210201212658 
                                                                                               Thu Dec 09 00:47:35 2021

Microchip MPLAB XC8 C Compiler v2.32 (Free license) build 20210201212658 Og1 
     1                           	processor	18F4431
     2                           	fnconf	rparam,??,?,0
     3                           	pagewidth 120
     4                           	opt	flic
     5                           	psect	idataBANK0,global,class=CODE,delta=1,noexec
     6                           	psect	smallconst,global,reloc=2,class=SMALLCONST,delta=1,noexec
     7                           	psect	cinit,global,reloc=2,class=CODE,delta=1
     8                           	psect	bssCOMRAM,global,class=COMRAM,space=1,delta=1,lowdata,noexec
     9                           	psect	bssBANK0,global,class=BANK0,space=1,delta=1,lowdata,noexec
    10                           	psect	dataBANK0,global,class=BANK0,space=1,delta=1,lowdata,noexec
    11                           	psect	cstackBANK0,global,class=BANK0,space=1,delta=1,lowdata,noexec
    12                           	psect	cstackCOMRAM,global,class=COMRAM,space=1,delta=1,lowdata,noexec
    13                           	psect	text0,global,reloc=2,class=CODE,delta=1
    14                           	psect	text1,global,reloc=2,class=CODE,delta=1
    15                           	psect	text2,global,reloc=2,class=CODE,delta=1
    16                           	psect	text3,global,reloc=2,class=CODE,delta=1
    17                           	psect	text4,global,reloc=2,class=CODE,delta=1
    18                           	psect	text5,global,reloc=2,class=CODE,delta=1
    19                           	psect	text6,global,reloc=2,class=CODE,delta=1
    20                           	psect	intcode,global,reloc=2,class=CODE,delta=1
    21                           	psect	text8,global,reloc=2,class=CODE,delta=1
    22                           	psect	text9,global,reloc=2,class=CODE,delta=1
    23                           	psect	text10,global,reloc=2,class=CODE,delta=1
    24                           	psect	text11,global,reloc=2,class=CODE,delta=1,group=1
    25                           	psect	text12,global,reloc=2,class=CODE,delta=1
    26                           	psect	text13,global,reloc=2,class=CODE,delta=1
    27                           	psect	text14,global,reloc=2,class=CODE,delta=1,group=2
    28                           	psect	text15,global,reloc=2,class=CODE,delta=1,group=1
    29                           	psect	text16,global,reloc=2,class=CODE,delta=1,group=1
    30                           	psect	text17,global,reloc=2,class=CODE,delta=1,group=1
    31                           	psect	text18,global,reloc=2,class=CODE,delta=1,group=1
    32                           	psect	text19,global,reloc=2,class=CODE,delta=1,group=1
    33                           	psect	intsave_regs,global,class=BIGRAM,space=1,delta=1,noexec
    34                           	psect	rparam,global,class=COMRAM,space=1,delta=1,noexec
    35                           	psect	temp,global,ovrld,common,class=COMRAM,space=1,delta=1
    36                           	psect	idloc,global,abs,ovrld,class=IDLOC,space=5,delta=1,noexec
    37                           	psect	config,global,abs,ovrld,class=CONFIG,space=4,delta=1,noexec
    38  0000                     
    39                           ; Version 2.20
    40                           ; Generated 12/02/2020 GMT
    41                           ; 
    42                           ; Copyright © 2020, Microchip Technology Inc. and its subsidiaries ("Microchip")
    43                           ; All rights reserved.
    44                           ; 
    45                           ; This software is developed by Microchip Technology Inc. and its subsidiaries ("Microch
      +                          ip").
    46                           ; 
    47                           ; Redistribution and use in source and binary forms, with or without modification, are
    48                           ; permitted provided that the following conditions are met:
    49                           ; 
    50                           ;     1. Redistributions of source code must retain the above copyright notice, this lis
      +                          t of
    51                           ;        conditions and the following disclaimer.
    52                           ; 
    53                           ;     2. Redistributions in binary form must reproduce the above copyright notice, this 
      +                          list
    54                           ;        of conditions and the following disclaimer in the documentation and/or other
    55                           ;        materials provided with the distribution.
    56                           ; 
    57                           ;     3. Microchip's name may not be used to endorse or promote products derived from th
      +                          is
    58                           ;        software without specific prior written permission.
    59                           ; 
    60                           ; THIS SOFTWARE IS PROVIDED BY MICROCHIP "AS IS" AND ANY EXPRESS OR IMPLIED WARRANTIES,
    61                           ; INCLUDING, BUT NOT LIMITED TO, THE IMPLIED WARRANTIES OF MERCHANTABILITY AND FITNESS F
      +                          OR
    62                           ; PURPOSE ARE DISCLAIMED.  IN NO EVENT SHALL MICROCHIP BE LIABLE FOR ANY DIRECT, INDIREC
      +                          T,
    63                           ; INCIDENTAL, SPECIAL, EXEMPLARY, OR CONSEQUENTIAL DAMAGES (INCLUDING BUT NOT LIMITED TO
    64                           ; PROCUREMENT OF SUBSTITUTE GOODS OR SERVICES; LOSS OF USE, DATA OR PROFITS; OR BUSINESS
    65                           ; INTERRUPTION) HOWSOEVER CAUSED AND ON ANY THEORY OF LIABILITY, WHETHER IN CONTRACT, ST
      +                          RICT
    66                           ; LIABILITY, OR TORT (INCLUDING NEGLIGENCE OR OTHERWISE) ARISING IN ANY WAY OUT OF THE U
      +                          SE OF
    67                           ; THIS SOFTWARE, EVEN IF ADVISED OF THE POSSIBILITY OF SUCH DAMAGE.
    68                           ; 
    69                           ; 
    70                           ; Code-generator required, PIC18F4431 Definitions
    71                           ; 
    72                           ; SFR Addresses
    73  0000                     
    74                           	psect	idataBANK0
    75  001680                     __pidataBANK0:
    76                           	callstack 0
    77                           
    78                           ;initializer for _RPM_CONSTANT_QEI
    79  001680  6E36               	dw	28214
    80  001682  0001               	dw	1
    81                           
    82                           ;initializer for _number
    83  001684  0064               	dw	100
    84                           
    85                           ;initializer for _speedRef
    86  001686  64                 	db	100
    87                           
    88                           ;initializer for _firstTime
    89  001687  01                 	db	1
    90                           
    91                           ;initializer for _w
    92  001688  53                 	db	low STR_1
    93  0000                     _TMR5	set	3975
    94  0000                     _TMR0	set	4054
    95  0000                     _TXREG	set	4013
    96  0000                     _RCREG	set	4014
    97  0000                     _T2CONbits	set	4042
    98  0000                     _T2CON	set	4042
    99  0000                     _PORTCbits	set	3970
   100  0000                     _PR2	set	4043
   101  0000                     _SPBRG	set	4015
   102  0000                     _PIE1bits	set	3997
   103  0000                     _RCSTAbits	set	4011
   104  0000                     _TXSTAbits	set	4012
   105  0000                     _TRISCbits	set	3988
   106  0000                     _ADCON1	set	4033
   107  0000                     _ADCON0	set	4034
   108  0000                     _SSPSTAT	set	4039
   109  0000                     _TRISDbits	set	3989
   110  0000                     _T5CONbits	set	4023
   111  0000                     _T0CONbits	set	4053
   112  0000                     _PIE3bits	set	4003
   113  0000                     _CAP3BUFL	set	3940
   114  0000                     _CAP3BUFH	set	3941
   115  0000                     _QEICONbits	set	4022
   116  0000                     _DFLTCONbits	set	3936
   117  0000                     _TRISB	set	3987
   118  0000                     _CCP1CONbits	set	4029
   119  0000                     _CCPR1L	set	4030
   120  0000                     _PORTB	set	3969
   121  0000                     _INTCONbits	set	4082
   122  0000                     _SSPCON1	set	4038
   123  0000                     _SSPCON1bits	set	4038
   124  0000                     _PIR1bits	set	3998
   125  0000                     _SSPBUF	set	4041
   126  0000                     _TRMT	set	32097
   127  0000                     _RCIF	set	31989
   128  0000                     _CS	set	31778
   129  0000                     _IC2QEIF	set	32034
   130  0000                     _IC2QEIE	set	32026
   131                           
   132                           	psect	smallconst
   133  000352                     __psmallconst:
   134                           	callstack 0
   135  000352  00                 	db	0
   136  000353                     STR_1:
   137  000353  75                 	db	117	;'u'
   138  000354  00                 	db	0
   139  000355  00                 	db	0	; dummy byte at the end
   140  0000                     
   141                           ; #config settings
   142                           
   143                           	psect	cinit
   144  001538                     __pcinit:
   145                           	callstack 0
   146  001538                     start_initialization:
   147                           	callstack 0
   148  001538                     __initialization:
   149                           	callstack 0
   150                           
   151                           ; Initialize objects allocated to BANK0 (9 bytes)
   152                           ; load TBLPTR registers with __pidataBANK0
   153  001538  0E80               	movlw	low __pidataBANK0
   154  00153A  6EF6               	movwf	tblptrl,c
   155  00153C  0E16               	movlw	high __pidataBANK0
   156  00153E  6EF7               	movwf	tblptrh,c
   157  001540  0E00               	movlw	low (__pidataBANK0 shr (0+16))
   158  001542  6EF8               	movwf	tblptru,c
   159  001544  EE00  F091         	lfsr	0,__pdataBANK0
   160  001548  EE10 F009          	lfsr	1,9
   161  00154C                     copy_data0:
   162  00154C  0009               	tblrd		*+
   163  00154E  CFF5 FFEE          	movff	tablat,postinc0
   164  001552  50E5               	movf	postdec1,w,c
   165  001554  50E1               	movf	fsr1l,w,c
   166  001556  E1FA               	bnz	copy_data0
   167                           
   168                           ; Clear objects allocated to BANK0 (49 bytes)
   169  001558  EE00  F060         	lfsr	0,__pbssBANK0
   170  00155C  0E31               	movlw	49
   171  00155E                     clear_0:
   172  00155E  6AEE               	clrf	postinc0,c
   173  001560  06E8               	decf	wreg,f,c
   174  001562  E1FD               	bnz	clear_0
   175                           
   176                           ; Clear objects allocated to COMRAM (4 bytes)
   177  001564  6A5E               	clrf	(__pbssCOMRAM+3)& (0+255),c
   178  001566  6A5D               	clrf	(__pbssCOMRAM+2)& (0+255),c
   179  001568  6A5C               	clrf	(__pbssCOMRAM+1)& (0+255),c
   180  00156A  6A5B               	clrf	__pbssCOMRAM& (0+255),c
   181  00156C                     end_of_initialization:
   182                           	callstack 0
   183  00156C                     __end_of__initialization:
   184                           	callstack 0
   185  00156C  905F               	bcf	int$flags,0,c	;clear compiler interrupt flag (level 1)
   186  00156E  925F               	bcf	int$flags,1,c	;clear compiler interrupt flag (level 2)
   187  001570  0E00               	movlw	low (__Lsmallconst shr (0+16))
   188  001572  6EF8               	movwf	tblptru,c
   189  001574  0E03               	movlw	high __Lsmallconst
   190  001576  6EF7               	movwf	tblptrh,c
   191  001578  0100               	movlb	0
   192  00157A  EFD9  F00A         	goto	_main	;jump to C main() function
   193                           
   194                           	psect	bssCOMRAM
   195  00005B                     __pbssCOMRAM:
   196                           	callstack 0
   197  00005B                     _speed:
   198                           	callstack 0
   199  00005B                     	ds	4
   200                           
   201                           	psect	bssBANK0
   202  000060                     __pbssBANK0:
   203                           	callstack 0
   204  000060                     _stringBuffer:
   205                           	callstack 0
   206  000060                     	ds	20
   207  000074                     _speedVal:
   208                           	callstack 0
   209  000074                     	ds	6
   210  00007A                     _sum_err:
   211                           	callstack 0
   212  00007A                     	ds	4
   213  00007E                     _b:
   214                           	callstack 0
   215  00007E                     	ds	4
   216  000082                     _a:
   217                           	callstack 0
   218  000082                     	ds	4
   219  000086                     _speedPID:
   220                           	callstack 0
   221  000086                     	ds	2
   222  000088                     _str:
   223                           	callstack 0
   224  000088                     	ds	2
   225  00008A                     _count2:
   226                           	callstack 0
   227  00008A                     	ds	2
   228  00008C                     _count:
   229                           	callstack 0
   230  00008C                     	ds	2
   231  00008E                     _bufferRef:
   232                           	callstack 0
   233  00008E                     	ds	1
   234  00008F                     _ind:
   235                           	callstack 0
   236  00008F                     	ds	1
   237  000090                     _digit:
   238                           	callstack 0
   239  000090                     	ds	1
   240                           
   241                           	psect	dataBANK0
   242  000091                     __pdataBANK0:
   243                           	callstack 0
   244  000091                     _RPM_CONSTANT_QEI:
   245                           	callstack 0
   246  000091                     	ds	4
   247  000095                     _number:
   248                           	callstack 0
   249  000095                     	ds	2
   250  000097                     _speedRef:
   251                           	callstack 0
   252  000097                     	ds	1
   253  000098                     _firstTime:
   254                           	callstack 0
   255  000098                     	ds	1
   256  000099                     _w:
   257                           	callstack 0
   258  000099                     	ds	1
   259                           
   260                           	psect	cstackBANK0
   261  000000                     __pcstackBANK0:
   262                           	callstack 0
   263  000000                     
   264                           ; 1 bytes @ 0x0
   265                           
   266                           	psect	cstackCOMRAM
   267  000001                     __pcstackCOMRAM:
   268                           	callstack 0
   269  000001                     ?___awdiv:
   270                           	callstack 0
   271  000001                     ?___flmul:
   272                           	callstack 0
   273  000001                     ___awdiv@dividend:
   274                           	callstack 0
   275  000001                     ___flge@ff1:
   276                           	callstack 0
   277  000001                     ___flmul@b:
   278                           	callstack 0
   279                           
   280                           ; 4 bytes @ 0x0
   281  000001                     	ds	2
   282  000003                     ___awdiv@divisor:
   283                           	callstack 0
   284                           
   285                           ; 2 bytes @ 0x2
   286  000003                     	ds	2
   287  000005                     ___awdiv@counter:
   288                           	callstack 0
   289  000005                     ___flge@ff2:
   290                           	callstack 0
   291  000005                     ___flmul@a:
   292                           	callstack 0
   293                           
   294                           ; 4 bytes @ 0x4
   295  000005                     	ds	1
   296  000006                     ___awdiv@sign:
   297                           	callstack 0
   298                           
   299                           ; 1 bytes @ 0x5
   300  000006                     	ds	1
   301  000007                     ___awdiv@quotient:
   302                           	callstack 0
   303                           
   304                           ; 2 bytes @ 0x6
   305  000007                     	ds	2
   306  000009                     ??___flmul:
   307  000009                     ??___flge:
   308                           
   309                           ; 1 bytes @ 0x8
   310  000009                     	ds	4
   311  00000D                     ?_medianF:
   312                           	callstack 0
   313  00000D                     ___flmul@sign:
   314                           	callstack 0
   315  00000D                     medianF@a:
   316                           	callstack 0
   317                           
   318                           ; 4 bytes @ 0xC
   319  00000D                     	ds	1
   320  00000E                     ___flmul@grs:
   321                           	callstack 0
   322                           
   323                           ; 4 bytes @ 0xD
   324  00000E                     	ds	3
   325  000011                     medianF@b:
   326                           	callstack 0
   327                           
   328                           ; 4 bytes @ 0x10
   329  000011                     	ds	1
   330  000012                     ___flmul@aexp:
   331                           	callstack 0
   332                           
   333                           ; 1 bytes @ 0x11
   334  000012                     	ds	1
   335  000013                     ___flmul@bexp:
   336                           	callstack 0
   337                           
   338                           ; 1 bytes @ 0x12
   339  000013                     	ds	1
   340  000014                     ___flmul@prod:
   341                           	callstack 0
   342                           
   343                           ; 4 bytes @ 0x13
   344  000014                     	ds	1
   345  000015                     medianF@c:
   346                           	callstack 0
   347                           
   348                           ; 4 bytes @ 0x14
   349  000015                     	ds	3
   350  000018                     ___flmul@temp:
   351                           	callstack 0
   352                           
   353                           ; 2 bytes @ 0x17
   354  000018                     	ds	1
   355  000019                     medianF@middle:
   356                           	callstack 0
   357                           
   358                           ; 4 bytes @ 0x18
   359  000019                     	ds	1
   360  00001A                     ?___fladd:
   361                           	callstack 0
   362  00001A                     ?___fltol:
   363                           	callstack 0
   364  00001A                     ___fltol@f1:
   365                           	callstack 0
   366  00001A                     ___fladd@b:
   367                           	callstack 0
   368                           
   369                           ; 4 bytes @ 0x19
   370  00001A                     	ds	4
   371  00001E                     ??___fltol:
   372  00001E                     ___fladd@a:
   373                           	callstack 0
   374                           
   375                           ; 4 bytes @ 0x1D
   376  00001E                     	ds	4
   377  000022                     ??___fladd:
   378  000022                     ___fltol@sign1:
   379                           	callstack 0
   380                           
   381                           ; 1 bytes @ 0x21
   382  000022                     	ds	1
   383  000023                     ___fltol@exp1:
   384                           	callstack 0
   385                           
   386                           ; 1 bytes @ 0x22
   387  000023                     	ds	1
   388  000024                     ?_abs:
   389                           	callstack 0
   390  000024                     abs@a:
   391                           	callstack 0
   392                           
   393                           ; 2 bytes @ 0x23
   394  000024                     	ds	2
   395  000026                     ??_abs:
   396  000026                     ___fladd@signs:
   397                           	callstack 0
   398                           
   399                           ; 1 bytes @ 0x25
   400  000026                     	ds	1
   401  000027                     ___fladd@aexp:
   402                           	callstack 0
   403                           
   404                           ; 1 bytes @ 0x26
   405  000027                     	ds	1
   406  000028                     ?___xxtofl:
   407                           	callstack 0
   408  000028                     ___fladd@bexp:
   409                           	callstack 0
   410  000028                     ___xxtofl@val:
   411                           	callstack 0
   412                           
   413                           ; 4 bytes @ 0x27
   414  000028                     	ds	1
   415  000029                     ___fladd@grs:
   416                           	callstack 0
   417                           
   418                           ; 1 bytes @ 0x28
   419  000029                     	ds	3
   420  00002C                     ??___xxtofl:
   421                           
   422                           ; 1 bytes @ 0x2B
   423  00002C                     	ds	4
   424  000030                     ___xxtofl@sign:
   425                           	callstack 0
   426                           
   427                           ; 1 bytes @ 0x2F
   428  000030                     	ds	1
   429  000031                     ___xxtofl@exp:
   430                           	callstack 0
   431                           
   432                           ; 1 bytes @ 0x30
   433  000031                     	ds	1
   434  000032                     ___xxtofl@arg:
   435                           	callstack 0
   436                           
   437                           ; 4 bytes @ 0x31
   438  000032                     	ds	4
   439  000036                     ?_PID:
   440                           	callstack 0
   441  000036                     PID@ref:
   442                           	callstack 0
   443                           
   444                           ; 2 bytes @ 0x35
   445  000036                     	ds	4
   446  00003A                     ??_PID:
   447                           
   448                           ; 1 bytes @ 0x39
   449  00003A                     	ds	2
   450  00003C                     PID@Kp:
   451                           	callstack 0
   452                           
   453                           ; 4 bytes @ 0x3B
   454  00003C                     	ds	4
   455  000040                     PID@Ki:
   456                           	callstack 0
   457                           
   458                           ; 4 bytes @ 0x3F
   459  000040                     	ds	4
   460  000044                     PID@err:
   461                           	callstack 0
   462                           
   463                           ; 4 bytes @ 0x43
   464  000044                     	ds	4
   465  000048                     PID@duty:
   466                           	callstack 0
   467                           
   468                           ; 4 bytes @ 0x47
   469  000048                     	ds	4
   470  00004C                     motorOutMSB@duty:
   471                           	callstack 0
   472  00004C                     motorOutLSB@duty:
   473                           	callstack 0
   474                           
   475                           ; 4 bytes @ 0x4B
   476  00004C                     	ds	4
   477  000050                     ??_motorOutMSB:
   478  000050                     motorOutLSB@buffer:
   479                           	callstack 0
   480                           
   481                           ; 2 bytes @ 0x4F
   482  000050                     	ds	2
   483  000052                     motorOutLSB@bufferChar:
   484                           	callstack 0
   485  000052                     motorOutMSB@buffer:
   486                           	callstack 0
   487                           
   488                           ; 2 bytes @ 0x51
   489  000052                     	ds	2
   490  000054                     motorOutMSB@bufferChar:
   491                           	callstack 0
   492                           
   493                           ; 1 bytes @ 0x53
   494  000054                     	ds	1
   495  000055                     ??_ISR:
   496                           
   497                           ; 1 bytes @ 0x54
   498  000055                     	ds	6
   499                           
   500 ;;
   501 ;;Main: autosize = 0, tempsize = 0, incstack = 0, save=0
   502 ;;
   503 ;; *************** function _main *****************
   504 ;; Defined at:
   505 ;;		line 224 in file "motorMain.c"
   506 ;; Parameters:    Size  Location     Type
   507 ;;		None
   508 ;; Auto vars:     Size  Location     Type
   509 ;;		None
   510 ;; Return value:  Size  Location     Type
   511 ;;                  1    wreg      void 
   512 ;; Registers used:
   513 ;;		wreg, status,2, cstack
   514 ;; Tracked objects:
   515 ;;		On entry : 0/0
   516 ;;		On exit  : 0/0
   517 ;;		Unchanged: 0/0
   518 ;; Data sizes:     COMRAM   BANK0   BANK1   BANK2
   519 ;;      Params:         0       0       0       0
   520 ;;      Locals:         0       0       0       0
   521 ;;      Temps:          0       0       0       0
   522 ;;      Totals:         0       0       0       0
   523 ;;Total ram usage:        0 bytes
   524 ;; Hardware stack levels required when called: 5
   525 ;; This function calls:
   526 ;;		_SPI_Init_Slave
   527 ;;		_setupPWM
   528 ;;		_setupQEI
   529 ;;		_setupTimer0
   530 ;;		_setupTimer5
   531 ;; This function is called by:
   532 ;;		Startup code after reset
   533 ;; This function uses a non-reentrant model
   534 ;;
   535                           
   536                           	psect	text0
   537  0015B2                     __ptext0:
   538                           	callstack 0
   539  0015B2                     _main:
   540                           	callstack 26
   541  0015B2                     
   542                           ;motorMain.c: 225: TRISB = 0;
   543  0015B2  0E00               	movlw	0
   544  0015B4  6E93               	movwf	147,c	;volatile
   545  0015B6                     
   546                           ;motorMain.c: 226: INTCONbits.GIE = 1; INTCONbits.PEIE = 1;
   547  0015B6  8EF2               	bsf	242,7,c	;volatile
   548  0015B8  8CF2               	bsf	242,6,c	;volatile
   549  0015BA                     
   550                           ;motorMain.c: 227: setupQEI();
   551  0015BA  ECEB  F00A         	call	_setupQEI	;wreg free
   552  0015BE                     
   553                           ;motorMain.c: 228: setupTimer5();
   554  0015BE  EC30  F00B         	call	_setupTimer5	;wreg free
   555  0015C2                     
   556                           ;motorMain.c: 229: setupTimer0();
   557  0015C2  EC0A  F00B         	call	_setupTimer0	;wreg free
   558  0015C6                     
   559                           ;motorMain.c: 230: setupPWM();
   560  0015C6  EC24  F00B         	call	_setupPWM	;wreg free
   561  0015CA                     
   562                           ;motorMain.c: 231: SPI_Init_Slave();
   563  0015CA  ECFB  F00A         	call	_SPI_Init_Slave	;wreg free
   564  0015CE                     l184:
   565  0015CE  EFE7  F00A         	goto	l184
   566  0015D2  EFA7  F001         	goto	start
   567  0015D6                     __end_of_main:
   568                           	callstack 0
   569                           
   570 ;; *************** function _setupTimer5 *****************
   571 ;; Defined at:
   572 ;;		line 271 in file "motorMain.c"
   573 ;; Parameters:    Size  Location     Type
   574 ;;		None
   575 ;; Auto vars:     Size  Location     Type
   576 ;;		None
   577 ;; Return value:  Size  Location     Type
   578 ;;                  1    wreg      void 
   579 ;; Registers used:
   580 ;;		wreg, status,2
   581 ;; Tracked objects:
   582 ;;		On entry : 0/0
   583 ;;		On exit  : 0/0
   584 ;;		Unchanged: 0/0
   585 ;; Data sizes:     COMRAM   BANK0   BANK1   BANK2
   586 ;;      Params:         0       0       0       0
   587 ;;      Locals:         0       0       0       0
   588 ;;      Temps:          0       0       0       0
   589 ;;      Totals:         0       0       0       0
   590 ;;Total ram usage:        0 bytes
   591 ;; Hardware stack levels used: 1
   592 ;; Hardware stack levels required when called: 3
   593 ;; This function calls:
   594 ;;		Nothing
   595 ;; This function is called by:
   596 ;;		_main
   597 ;; This function uses a non-reentrant model
   598 ;;
   599                           
   600                           	psect	text1
   601  001660                     __ptext1:
   602                           	callstack 0
   603  001660                     _setupTimer5:
   604                           	callstack 27
   605  001660                     
   606                           ;motorMain.c: 272: T5CONbits.TMR5CS = 0;
   607  001660  92B7               	bcf	183,1,c	;volatile
   608                           
   609                           ;motorMain.c: 273: T5CONbits.T5PS0 = 0;
   610  001662  96B7               	bcf	183,3,c	;volatile
   611                           
   612                           ;motorMain.c: 274: T5CONbits.T5PS1 = 0;
   613  001664  98B7               	bcf	183,4,c	;volatile
   614                           
   615                           ;motorMain.c: 275: T5CONbits.T5MOD = 0;
   616  001666  9AB7               	bcf	183,5,c	;volatile
   617  001668                     
   618                           ;motorMain.c: 276: TMR5 = 0;
   619  001668  0E00               	movlw	0
   620  00166A  6E88               	movwf	136,c	;volatile
   621  00166C  0E00               	movlw	0
   622  00166E  6E87               	movwf	135,c	;volatile
   623  001670                     
   624                           ;motorMain.c: 277: T5CONbits.TMR5ON = 1;
   625  001670  80B7               	bsf	183,0,c	;volatile
   626  001672  0012               	return		;funcret
   627  001674                     __end_of_setupTimer5:
   628                           	callstack 0
   629                           
   630 ;; *************** function _setupTimer0 *****************
   631 ;; Defined at:
   632 ;;		line 257 in file "motorMain.c"
   633 ;; Parameters:    Size  Location     Type
   634 ;;		None
   635 ;; Auto vars:     Size  Location     Type
   636 ;;		None
   637 ;; Return value:  Size  Location     Type
   638 ;;                  1    wreg      void 
   639 ;; Registers used:
   640 ;;		wreg, status,2
   641 ;; Tracked objects:
   642 ;;		On entry : 0/0
   643 ;;		On exit  : 0/0
   644 ;;		Unchanged: 0/0
   645 ;; Data sizes:     COMRAM   BANK0   BANK1   BANK2
   646 ;;      Params:         0       0       0       0
   647 ;;      Locals:         0       0       0       0
   648 ;;      Temps:          0       0       0       0
   649 ;;      Totals:         0       0       0       0
   650 ;;Total ram usage:        0 bytes
   651 ;; Hardware stack levels used: 1
   652 ;; Hardware stack levels required when called: 3
   653 ;; This function calls:
   654 ;;		Nothing
   655 ;; This function is called by:
   656 ;;		_main
   657 ;; This function uses a non-reentrant model
   658 ;;
   659                           
   660                           	psect	text2
   661  001614                     __ptext2:
   662                           	callstack 0
   663  001614                     _setupTimer0:
   664                           	callstack 27
   665  001614                     
   666                           ;motorMain.c: 258: INTCONbits.TMR0IE = 1;
   667  001614  8AF2               	bsf	242,5,c	;volatile
   668                           
   669                           ;motorMain.c: 259: T0CONbits.T016BIT = 1;
   670  001616  8CD5               	bsf	213,6,c	;volatile
   671                           
   672                           ;motorMain.c: 260: T0CONbits.T0CS = 0;
   673  001618  9AD5               	bcf	213,5,c	;volatile
   674                           
   675                           ;motorMain.c: 263: T0CONbits.PSA = 0;
   676  00161A  96D5               	bcf	213,3,c	;volatile
   677                           
   678                           ;motorMain.c: 264: T0CONbits.T0PS2 = 1;
   679  00161C  84D5               	bsf	213,2,c	;volatile
   680                           
   681                           ;motorMain.c: 265: T0CONbits.T0PS1 = 0;
   682  00161E  92D5               	bcf	213,1,c	;volatile
   683                           
   684                           ;motorMain.c: 266: T0CONbits.T0PS0 = 1;
   685  001620  80D5               	bsf	213,0,c	;volatile
   686  001622                     
   687                           ;motorMain.c: 267: TMR0 = 0;
   688  001622  0E00               	movlw	0
   689  001624  6ED7               	movwf	215,c	;volatile
   690  001626  0E00               	movlw	0
   691  001628  6ED6               	movwf	214,c	;volatile
   692  00162A                     
   693                           ;motorMain.c: 268: T0CONbits.TMR0ON = 1;
   694  00162A  8ED5               	bsf	213,7,c	;volatile
   695  00162C  0012               	return		;funcret
   696  00162E                     __end_of_setupTimer0:
   697                           	callstack 0
   698                           
   699 ;; *************** function _setupQEI *****************
   700 ;; Defined at:
   701 ;;		line 239 in file "motorMain.c"
   702 ;; Parameters:    Size  Location     Type
   703 ;;		None
   704 ;; Auto vars:     Size  Location     Type
   705 ;;		None
   706 ;; Return value:  Size  Location     Type
   707 ;;                  1    wreg      void 
   708 ;; Registers used:
   709 ;;		wreg, status,2
   710 ;; Tracked objects:
   711 ;;		On entry : 0/0
   712 ;;		On exit  : 0/0
   713 ;;		Unchanged: 0/0
   714 ;; Data sizes:     COMRAM   BANK0   BANK1   BANK2
   715 ;;      Params:         0       0       0       0
   716 ;;      Locals:         0       0       0       0
   717 ;;      Temps:          0       0       0       0
   718 ;;      Totals:         0       0       0       0
   719 ;;Total ram usage:        0 bytes
   720 ;; Hardware stack levels used: 1
   721 ;; Hardware stack levels required when called: 3
   722 ;; This function calls:
   723 ;;		Nothing
   724 ;; This function is called by:
   725 ;;		_main
   726 ;; This function uses a non-reentrant model
   727 ;;
   728                           
   729                           	psect	text3
   730  0015D6                     __ptext3:
   731                           	callstack 0
   732  0015D6                     _setupQEI:
   733                           	callstack 27
   734  0015D6                     
   735                           ;motorMain.c: 240: DFLTCONbits.FLT3EN = 0;
   736  0015D6  9A60               	bcf	96,5,c	;volatile
   737                           
   738                           ;motorMain.c: 241: DFLTCONbits.FLT2EN = 0;
   739  0015D8  9860               	bcf	96,4,c	;volatile
   740  0015DA                     
   741                           ;motorMain.c: 242: DFLTCONbits.FLTCK = 0;
   742  0015DA  0EF8               	movlw	-8
   743  0015DC  1660               	andwf	96,f,c	;volatile
   744  0015DE                     
   745                           ;motorMain.c: 244: QEICONbits.nVELM = 1;
   746  0015DE  8EB6               	bsf	182,7,c	;volatile
   747  0015E0                     
   748                           ;motorMain.c: 246: QEICONbits.QEIM2 = 1;
   749  0015E0  88B6               	bsf	182,4,c	;volatile
   750  0015E2                     
   751                           ;motorMain.c: 247: QEICONbits.QEIM1 = 1;
   752  0015E2  86B6               	bsf	182,3,c	;volatile
   753  0015E4                     
   754                           ;motorMain.c: 248: QEICONbits.QEIM0 = 0;
   755  0015E4  94B6               	bcf	182,2,c	;volatile
   756                           
   757                           ;motorMain.c: 249: CAP3BUFH = 0x00; CAP3BUFL = 1;
   758  0015E6  0E00               	movlw	0
   759  0015E8  6E65               	movwf	101,c	;volatile
   760  0015EA  0E01               	movlw	1
   761  0015EC  6E64               	movwf	100,c	;volatile
   762  0015EE                     
   763                           ;motorMain.c: 251: QEICONbits.PDEC0 = 0;
   764  0015EE  90B6               	bcf	182,0,c	;volatile
   765  0015F0                     
   766                           ;motorMain.c: 252: QEICONbits.PDEC1 = 0;
   767  0015F0  92B6               	bcf	182,1,c	;volatile
   768  0015F2                     
   769                           ;motorMain.c: 253: PIE3bits.IC2QEIE = 1;
   770  0015F2  84A3               	bsf	163,2,c	;volatile
   771  0015F4  0012               	return		;funcret
   772  0015F6                     __end_of_setupQEI:
   773                           	callstack 0
   774                           
   775 ;; *************** function _setupPWM *****************
   776 ;; Defined at:
   777 ;;		line 335 in file "motorMain.c"
   778 ;; Parameters:    Size  Location     Type
   779 ;;		None
   780 ;; Auto vars:     Size  Location     Type
   781 ;;		None
   782 ;; Return value:  Size  Location     Type
   783 ;;                  1    wreg      void 
   784 ;; Registers used:
   785 ;;		wreg, status,2, cstack
   786 ;; Tracked objects:
   787 ;;		On entry : 0/0
   788 ;;		On exit  : 0/0
   789 ;;		Unchanged: 0/0
   790 ;; Data sizes:     COMRAM   BANK0   BANK1   BANK2
   791 ;;      Params:         0       0       0       0
   792 ;;      Locals:         0       0       0       0
   793 ;;      Temps:          0       0       0       0
   794 ;;      Totals:         0       0       0       0
   795 ;;Total ram usage:        0 bytes
   796 ;; Hardware stack levels used: 1
   797 ;; Hardware stack levels required when called: 4
   798 ;; This function calls:
   799 ;;		_setupTimer2
   800 ;; This function is called by:
   801 ;;		_main
   802 ;; This function uses a non-reentrant model
   803 ;;
   804                           
   805                           	psect	text4
   806  001648                     __ptext4:
   807                           	callstack 0
   808  001648                     _setupPWM:
   809                           	callstack 26
   810  001648                     
   811                           ;motorMain.c: 337: TRISCbits.RC2 = 0;
   812  001648  9494               	bcf	148,2,c	;volatile
   813                           
   814                           ;motorMain.c: 338: TRISCbits.RC6 = 1;
   815  00164A  8C94               	bsf	148,6,c	;volatile
   816                           
   817                           ;motorMain.c: 339: PR2 = 0xFF;
   818  00164C  68CB               	setf	203,c	;volatile
   819  00164E                     
   820                           ;motorMain.c: 340: setupTimer2();
   821  00164E  EC3A  F00B         	call	_setupTimer2	;wreg free
   822  001652                     
   823                           ;motorMain.c: 342: CCP1CONbits.CCP1M3 = 1;
   824  001652  86BD               	bsf	189,3,c	;volatile
   825  001654                     
   826                           ;motorMain.c: 343: CCP1CONbits.CCP1M2 = 1;
   827  001654  84BD               	bsf	189,2,c	;volatile
   828  001656                     
   829                           ;motorMain.c: 345: TRISCbits.RC0 = 0;
   830  001656  9094               	bcf	148,0,c	;volatile
   831  001658                     
   832                           ;motorMain.c: 346: TRISCbits.RC1 = 0;
   833  001658  9294               	bcf	148,1,c	;volatile
   834  00165A                     
   835                           ;motorMain.c: 347: PORTCbits.RC0 = 1;
   836  00165A  8082               	bsf	130,0,c	;volatile
   837  00165C                     
   838                           ;motorMain.c: 348: PORTCbits.RC1 = 0;
   839  00165C  9282               	bcf	130,1,c	;volatile
   840  00165E  0012               	return		;funcret
   841  001660                     __end_of_setupPWM:
   842                           	callstack 0
   843                           
   844 ;; *************** function _setupTimer2 *****************
   845 ;; Defined at:
   846 ;;		line 351 in file "motorMain.c"
   847 ;; Parameters:    Size  Location     Type
   848 ;;		None
   849 ;; Auto vars:     Size  Location     Type
   850 ;;		None
   851 ;; Return value:  Size  Location     Type
   852 ;;                  1    wreg      void 
   853 ;; Registers used:
   854 ;;		wreg, status,2
   855 ;; Tracked objects:
   856 ;;		On entry : 0/0
   857 ;;		On exit  : 0/0
   858 ;;		Unchanged: 0/0
   859 ;; Data sizes:     COMRAM   BANK0   BANK1   BANK2
   860 ;;      Params:         0       0       0       0
   861 ;;      Locals:         0       0       0       0
   862 ;;      Temps:          0       0       0       0
   863 ;;      Totals:         0       0       0       0
   864 ;;Total ram usage:        0 bytes
   865 ;; Hardware stack levels used: 1
   866 ;; Hardware stack levels required when called: 3
   867 ;; This function calls:
   868 ;;		Nothing
   869 ;; This function is called by:
   870 ;;		_setupPWM
   871 ;; This function uses a non-reentrant model
   872 ;;
   873                           
   874                           	psect	text5
   875  001674                     __ptext5:
   876                           	callstack 0
   877  001674                     _setupTimer2:
   878                           	callstack 26
   879  001674                     
   880                           ;motorMain.c: 353: T2CON = 0;
   881  001674  0E00               	movlw	0
   882  001676  6ECA               	movwf	202,c	;volatile
   883  001678                     
   884                           ;motorMain.c: 354: T2CONbits.T2CKPS0 = 1;
   885  001678  80CA               	bsf	202,0,c	;volatile
   886  00167A                     
   887                           ;motorMain.c: 355: T2CONbits.T2CKPS1 = 1;
   888  00167A  82CA               	bsf	202,1,c	;volatile
   889  00167C                     
   890                           ;motorMain.c: 356: T2CONbits.TMR2ON = 1;
   891  00167C  84CA               	bsf	202,2,c	;volatile
   892  00167E  0012               	return		;funcret
   893  001680                     __end_of_setupTimer2:
   894                           	callstack 0
   895                           
   896 ;; *************** function _SPI_Init_Slave *****************
   897 ;; Defined at:
   898 ;;		line 301 in file "motorMain.c"
   899 ;; Parameters:    Size  Location     Type
   900 ;;		None
   901 ;; Auto vars:     Size  Location     Type
   902 ;;		None
   903 ;; Return value:  Size  Location     Type
   904 ;;                  1    wreg      void 
   905 ;; Registers used:
   906 ;;		wreg, status,2
   907 ;; Tracked objects:
   908 ;;		On entry : 0/0
   909 ;;		On exit  : 0/0
   910 ;;		Unchanged: 0/0
   911 ;; Data sizes:     COMRAM   BANK0   BANK1   BANK2
   912 ;;      Params:         0       0       0       0
   913 ;;      Locals:         0       0       0       0
   914 ;;      Temps:          0       0       0       0
   915 ;;      Totals:         0       0       0       0
   916 ;;Total ram usage:        0 bytes
   917 ;; Hardware stack levels used: 1
   918 ;; Hardware stack levels required when called: 3
   919 ;; This function calls:
   920 ;;		Nothing
   921 ;; This function is called by:
   922 ;;		_main
   923 ;; This function uses a non-reentrant model
   924 ;;
   925                           
   926                           	psect	text6
   927  0015F6                     __ptext6:
   928                           	callstack 0
   929  0015F6                     _SPI_Init_Slave:
   930                           	callstack 27
   931  0015F6                     
   932                           ;motorMain.c: 303: TRISCbits.TRISC4 = 1;
   933  0015F6  8894               	bsf	148,4,c	;volatile
   934                           
   935                           ;motorMain.c: 304: TRISCbits.TRISC5 = 1;
   936  0015F8  8A94               	bsf	148,5,c	;volatile
   937                           
   938                           ;motorMain.c: 305: TRISCbits.TRISC6 = 1;
   939  0015FA  8C94               	bsf	148,6,c	;volatile
   940                           
   941                           ;motorMain.c: 306: TRISCbits.TRISC7 = 0;
   942  0015FC  9E94               	bcf	148,7,c	;volatile
   943                           
   944                           ;motorMain.c: 309: CS = 1;
   945  0015FE  8484               	bsf	3972,2,c	;volatile
   946  001600                     
   947                           ;motorMain.c: 310: SSPSTAT=0x40;
   948  001600  0E40               	movlw	64
   949  001602  6EC7               	movwf	199,c	;volatile
   950                           
   951                           ;motorMain.c: 311: SSPCON1=0x24;
   952  001604  0E24               	movlw	36
   953  001606  6EC6               	movwf	198,c	;volatile
   954  001608                     
   955                           ;motorMain.c: 313: PIR1bits.SSPIF=0;
   956  001608  969E               	bcf	158,3,c	;volatile
   957                           
   958                           ;motorMain.c: 317: ADCON0=0;
   959  00160A  0E00               	movlw	0
   960  00160C  6EC2               	movwf	194,c	;volatile
   961                           
   962                           ;motorMain.c: 319: ADCON1=0x0F;
   963  00160E  0E0F               	movlw	15
   964  001610  6EC1               	movwf	193,c	;volatile
   965  001612  0012               	return		;funcret
   966  001614                     __end_of_SPI_Init_Slave:
   967                           	callstack 0
   968                           
   969 ;; *************** function _ISR *****************
   970 ;; Defined at:
   971 ;;		line 165 in file "motorMain.c"
   972 ;; Parameters:    Size  Location     Type
   973 ;;		None
   974 ;; Auto vars:     Size  Location     Type
   975 ;;		None
   976 ;; Return value:  Size  Location     Type
   977 ;;                  1    wreg      void 
   978 ;; Registers used:
   979 ;;		wreg, fsr2l, fsr2h, status,2, status,0, prodl, prodh, cstack
   980 ;; Tracked objects:
   981 ;;		On entry : 0/0
   982 ;;		On exit  : 0/0
   983 ;;		Unchanged: 0/0
   984 ;; Data sizes:     COMRAM   BANK0   BANK1   BANK2
   985 ;;      Params:         0       0       0       0
   986 ;;      Locals:         0       0       0       0
   987 ;;      Temps:          6       0       0       0
   988 ;;      Totals:         6       0       0       0
   989 ;;Total ram usage:        6 bytes
   990 ;; Hardware stack levels used: 1
   991 ;; Hardware stack levels required when called: 2
   992 ;; This function calls:
   993 ;;		_PID
   994 ;;		_ReadSPI
   995 ;;		___awdiv
   996 ;;		___fladd
   997 ;;		___flmul
   998 ;;		___fltol
   999 ;;		_medianF
  1000 ;;		_motorOutLSB
  1001 ;;		_motorOutMSB
  1002 ;; This function is called by:
  1003 ;;		Interrupt level 2
  1004 ;; This function uses a non-reentrant model
  1005 ;;
  1006                           
  1007                           	psect	intcode
  1008  000008                     __pintcode:
  1009                           	callstack 0
  1010  000008                     _ISR:
  1011                           	callstack 26
  1012                           
  1013                           ;incstack = 0
  1014  000008  825F               	bsf	int$flags,1,c	;set compiler interrupt flag (level 2)
  1015  00000A  CFD9 F057          	movff	fsr2l,??_ISR+2
  1016  00000E  CFDA F058          	movff	fsr2h,??_ISR+3
  1017  000012  CFF3 F059          	movff	prodl,??_ISR+4
  1018  000016  CFF4 F05A          	movff	prodh,??_ISR+5
  1019  00001A                     
  1020                           ;motorMain.c: 167: if(IC2QEIE && IC2QEIF) {
  1021  00001A  A4A3               	btfss	4003,2,c	;volatile
  1022  00001C  EF12  F000         	goto	i2u212_41
  1023  000020  EF14  F000         	goto	i2u212_40
  1024  000024                     i2u212_41:
  1025  000024  EF36  F000         	goto	i2l2362
  1026  000028                     i2u212_40:
  1027  000028  A4A4               	btfss	4004,2,c	;volatile
  1028  00002A  EF19  F000         	goto	i2u213_41
  1029  00002E  EF1B  F000         	goto	i2u213_40
  1030  000032                     i2u213_41:
  1031  000032  EF36  F000         	goto	i2l2362
  1032  000036                     i2u213_40:
  1033  000036                     
  1034                           ;motorMain.c: 168: speed = speed + 1;
  1035  000036  C05B  F01A         	movff	_speed,___fladd@b
  1036  00003A  C05C  F01B         	movff	_speed+1,___fladd@b+1
  1037  00003E  C05D  F01C         	movff	_speed+2,___fladd@b+2
  1038  000042  C05E  F01D         	movff	_speed+3,___fladd@b+3
  1039  000046  0E00               	movlw	0
  1040  000048  6E1E               	movwf	___fladd@a^0,c
  1041  00004A  0E00               	movlw	0
  1042  00004C  6E1F               	movwf	(___fladd@a+1)^0,c
  1043  00004E  0E80               	movlw	128
  1044  000050  6E20               	movwf	(___fladd@a+2)^0,c
  1045  000052  0E3F               	movlw	63
  1046  000054  6E21               	movwf	(___fladd@a+3)^0,c
  1047  000056  ECAB  F001         	call	___fladd	;wreg free
  1048  00005A  C01A  F05B         	movff	?___fladd,_speed
  1049  00005E  C01B  F05C         	movff	?___fladd+1,_speed+1
  1050  000062  C01C  F05D         	movff	?___fladd+2,_speed+2
  1051  000066  C01D  F05E         	movff	?___fladd+3,_speed+3
  1052  00006A                     
  1053                           ;motorMain.c: 169: IC2QEIF = 0;
  1054  00006A  94A4               	bcf	4004,2,c	;volatile
  1055  00006C                     i2l2362:
  1056                           
  1057                           ;motorMain.c: 170: };motorMain.c: 171: if(INTCONbits.TMR0IF) {
  1058  00006C  A4F2               	btfss	242,2,c	;volatile
  1059  00006E  EF3B  F000         	goto	i2u214_41
  1060  000072  EF3D  F000         	goto	i2u214_40
  1061  000076                     i2u214_41:
  1062  000076  EF9D  F001         	goto	i2l179
  1063  00007A                     i2u214_40:
  1064  00007A                     
  1065                           ;motorMain.c: 172: bufferRef = ReadSPI();
  1066  00007A  EC17  F00B         	call	_ReadSPI	;wreg free
  1067  00007E  0100               	movlb	0	; () banked
  1068  000080  6F8E               	movwf	_bufferRef& (0+255),b
  1069  000082                     
  1070                           ; BSR set to: 0
  1071                           ;motorMain.c: 173: if (bufferRef==0) {
  1072  000082  518E               	movf	_bufferRef& (0+255),w,b
  1073  000084  A4D8               	btfss	status,2,c
  1074  000086  EF47  F000         	goto	i2u215_41
  1075  00008A  EF49  F000         	goto	i2u215_40
  1076  00008E                     i2u215_41:
  1077  00008E  EF4B  F000         	goto	i2l172
  1078  000092                     i2u215_40:
  1079  000092  EF4D  F000         	goto	i2l2370
  1080  000096                     i2l172:
  1081                           
  1082                           ; BSR set to: 0
  1083                           ;motorMain.c: 176: else speedRef = bufferRef;
  1084  000096  C08E  F097         	movff	_bufferRef,_speedRef
  1085  00009A                     i2l2370:
  1086                           
  1087                           ; BSR set to: 0
  1088                           ;motorMain.c: 177: if (count == 2*4) {
  1089  00009A  0E08               	movlw	8
  1090  00009C  198C               	xorwf	_count& (0+255),w,b
  1091  00009E  118D               	iorwf	(_count+1)& (0+255),w,b
  1092  0000A0  A4D8               	btfss	status,2,c
  1093  0000A2  EF55  F000         	goto	i2u216_41
  1094  0000A6  EF57  F000         	goto	i2u216_40
  1095  0000AA                     i2u216_41:
  1096  0000AA  EF67  F000         	goto	i2l2376
  1097  0000AE                     i2u216_40:
  1098  0000AE                     
  1099                           ; BSR set to: 0
  1100                           ;motorMain.c: 178: a = speed;
  1101  0000AE  C05B  F082         	movff	_speed,_a
  1102  0000B2  C05C  F083         	movff	_speed+1,_a+1
  1103  0000B6  C05D  F084         	movff	_speed+2,_a+2
  1104  0000BA  C05E  F085         	movff	_speed+3,_a+3
  1105  0000BE                     
  1106                           ; BSR set to: 0
  1107                           ;motorMain.c: 179: speed = 0;
  1108  0000BE  0E00               	movlw	0
  1109  0000C0  6E5B               	movwf	_speed^0,c
  1110  0000C2  0E00               	movlw	0
  1111  0000C4  6E5C               	movwf	(_speed+1)^0,c
  1112  0000C6  0E00               	movlw	0
  1113  0000C8  6E5D               	movwf	(_speed+2)^0,c
  1114  0000CA  0E00               	movlw	0
  1115  0000CC  6E5E               	movwf	(_speed+3)^0,c
  1116  0000CE                     i2l2376:
  1117                           
  1118                           ; BSR set to: 0
  1119                           ;motorMain.c: 180: };motorMain.c: 181: if (count == 4*4) {
  1120  0000CE  0E10               	movlw	16
  1121  0000D0  198C               	xorwf	_count& (0+255),w,b
  1122  0000D2  118D               	iorwf	(_count+1)& (0+255),w,b
  1123  0000D4  A4D8               	btfss	status,2,c
  1124  0000D6  EF6F  F000         	goto	i2u217_41
  1125  0000DA  EF71  F000         	goto	i2u217_40
  1126  0000DE                     i2u217_41:
  1127  0000DE  EF81  F000         	goto	i2l2382
  1128  0000E2                     i2u217_40:
  1129  0000E2                     
  1130                           ; BSR set to: 0
  1131                           ;motorMain.c: 182: b = speed;
  1132  0000E2  C05B  F07E         	movff	_speed,_b
  1133  0000E6  C05C  F07F         	movff	_speed+1,_b+1
  1134  0000EA  C05D  F080         	movff	_speed+2,_b+2
  1135  0000EE  C05E  F081         	movff	_speed+3,_b+3
  1136  0000F2                     
  1137                           ; BSR set to: 0
  1138                           ;motorMain.c: 183: speed = 0;
  1139  0000F2  0E00               	movlw	0
  1140  0000F4  6E5B               	movwf	_speed^0,c
  1141  0000F6  0E00               	movlw	0
  1142  0000F8  6E5C               	movwf	(_speed+1)^0,c
  1143  0000FA  0E00               	movlw	0
  1144  0000FC  6E5D               	movwf	(_speed+2)^0,c
  1145  0000FE  0E00               	movlw	0
  1146  000100  6E5E               	movwf	(_speed+3)^0,c
  1147  000102                     i2l2382:
  1148                           
  1149                           ; BSR set to: 0
  1150                           ;motorMain.c: 184: };motorMain.c: 185: if (count == 6*4) {
  1151  000102  0E18               	movlw	24
  1152  000104  198C               	xorwf	_count& (0+255),w,b
  1153  000106  118D               	iorwf	(_count+1)& (0+255),w,b
  1154  000108  A4D8               	btfss	status,2,c
  1155  00010A  EF89  F000         	goto	i2u218_41
  1156  00010E  EF8B  F000         	goto	i2u218_40
  1157  000112                     i2u218_41:
  1158  000112  EF9A  F001         	goto	i2l2408
  1159  000116                     i2u218_40:
  1160  000116                     
  1161                           ; BSR set to: 0
  1162                           ;motorMain.c: 186: speed = medianF(a,b,speed);
  1163  000116  C082  F00D         	movff	_a,medianF@a
  1164  00011A  C083  F00E         	movff	_a+1,medianF@a+1
  1165  00011E  C084  F00F         	movff	_a+2,medianF@a+2
  1166  000122  C085  F010         	movff	_a+3,medianF@a+3
  1167  000126  C07E  F011         	movff	_b,medianF@b
  1168  00012A  C07F  F012         	movff	_b+1,medianF@b+1
  1169  00012E  C080  F013         	movff	_b+2,medianF@b+2
  1170  000132  C081  F014         	movff	_b+3,medianF@b+3
  1171  000136  C05B  F015         	movff	_speed,medianF@c
  1172  00013A  C05C  F016         	movff	_speed+1,medianF@c+1
  1173  00013E  C05D  F017         	movff	_speed+2,medianF@c+2
  1174  000142  C05E  F018         	movff	_speed+3,medianF@c+3
  1175  000146  EC2E  F007         	call	_medianF	;wreg free
  1176  00014A  C00D  F05B         	movff	?_medianF,_speed
  1177  00014E  C00E  F05C         	movff	?_medianF+1,_speed+1
  1178  000152  C00F  F05D         	movff	?_medianF+2,_speed+2
  1179  000156  C010  F05E         	movff	?_medianF+3,_speed+3
  1180  00015A                     
  1181                           ;motorMain.c: 187: if (firstTime) {
  1182  00015A  0100               	movlb	0	; () banked
  1183  00015C  5198               	movf	_firstTime& (0+255),w,b
  1184  00015E  B4D8               	btfsc	status,2,c
  1185  000160  EFB4  F000         	goto	i2u219_41
  1186  000164  EFB6  F000         	goto	i2u219_40
  1187  000168                     i2u219_41:
  1188  000168  EF19  F001         	goto	i2l2392
  1189  00016C                     i2u219_40:
  1190  00016C                     
  1191                           ; BSR set to: 0
  1192                           ;motorMain.c: 188: speedVal[0] = (int)(speed*7.538462);
  1193  00016C  0E15               	movlw	21
  1194  00016E  6E05               	movwf	___flmul@a^0,c
  1195  000170  0E3B               	movlw	59
  1196  000172  6E06               	movwf	(___flmul@a+1)^0,c
  1197  000174  0EF1               	movlw	241
  1198  000176  6E07               	movwf	(___flmul@a+2)^0,c
  1199  000178  0E40               	movlw	64
  1200  00017A  6E08               	movwf	(___flmul@a+3)^0,c
  1201  00017C  C05B  F001         	movff	_speed,___flmul@b
  1202  000180  C05C  F002         	movff	_speed+1,___flmul@b+1
  1203  000184  C05D  F003         	movff	_speed+2,___flmul@b+2
  1204  000188  C05E  F004         	movff	_speed+3,___flmul@b+3
  1205  00018C  EC0B  F004         	call	___flmul	;wreg free
  1206  000190  C001  F01A         	movff	?___flmul,___fltol@f1
  1207  000194  C002  F01B         	movff	?___flmul+1,___fltol@f1+1
  1208  000198  C003  F01C         	movff	?___flmul+2,___fltol@f1+2
  1209  00019C  C004  F01D         	movff	?___flmul+3,___fltol@f1+3
  1210  0001A0  ECE2  F008         	call	___fltol	;wreg free
  1211  0001A4  C01A  F074         	movff	?___fltol,_speedVal
  1212  0001A8  C01B  F075         	movff	?___fltol+1,_speedVal+1
  1213                           
  1214                           ;motorMain.c: 189: speedVal[1] = (int)(speed*7.538462);
  1215  0001AC  0E15               	movlw	21
  1216  0001AE  6E05               	movwf	___flmul@a^0,c
  1217  0001B0  0E3B               	movlw	59
  1218  0001B2  6E06               	movwf	(___flmul@a+1)^0,c
  1219  0001B4  0EF1               	movlw	241
  1220  0001B6  6E07               	movwf	(___flmul@a+2)^0,c
  1221  0001B8  0E40               	movlw	64
  1222  0001BA  6E08               	movwf	(___flmul@a+3)^0,c
  1223  0001BC  C05B  F001         	movff	_speed,___flmul@b
  1224  0001C0  C05C  F002         	movff	_speed+1,___flmul@b+1
  1225  0001C4  C05D  F003         	movff	_speed+2,___flmul@b+2
  1226  0001C8  C05E  F004         	movff	_speed+3,___flmul@b+3
  1227  0001CC  EC0B  F004         	call	___flmul	;wreg free
  1228  0001D0  C001  F01A         	movff	?___flmul,___fltol@f1
  1229  0001D4  C002  F01B         	movff	?___flmul+1,___fltol@f1+1
  1230  0001D8  C003  F01C         	movff	?___flmul+2,___fltol@f1+2
  1231  0001DC  C004  F01D         	movff	?___flmul+3,___fltol@f1+3
  1232  0001E0  ECE2  F008         	call	___fltol	;wreg free
  1233  0001E4  C01A  F076         	movff	?___fltol,_speedVal+2
  1234  0001E8  C01B  F077         	movff	?___fltol+1,_speedVal+3
  1235                           
  1236                           ;motorMain.c: 190: speedVal[2] = (int)(speed*7.538462);
  1237  0001EC  0E15               	movlw	21
  1238  0001EE  6E05               	movwf	___flmul@a^0,c
  1239  0001F0  0E3B               	movlw	59
  1240  0001F2  6E06               	movwf	(___flmul@a+1)^0,c
  1241  0001F4  0EF1               	movlw	241
  1242  0001F6  6E07               	movwf	(___flmul@a+2)^0,c
  1243  0001F8  0E40               	movlw	64
  1244  0001FA  6E08               	movwf	(___flmul@a+3)^0,c
  1245  0001FC  C05B  F001         	movff	_speed,___flmul@b
  1246  000200  C05C  F002         	movff	_speed+1,___flmul@b+1
  1247  000204  C05D  F003         	movff	_speed+2,___flmul@b+2
  1248  000208  C05E  F004         	movff	_speed+3,___flmul@b+3
  1249  00020C  EC0B  F004         	call	___flmul	;wreg free
  1250  000210  C001  F01A         	movff	?___flmul,___fltol@f1
  1251  000214  C002  F01B         	movff	?___flmul+1,___fltol@f1+1
  1252  000218  C003  F01C         	movff	?___flmul+2,___fltol@f1+2
  1253  00021C  C004  F01D         	movff	?___flmul+3,___fltol@f1+3
  1254  000220  ECE2  F008         	call	___fltol	;wreg free
  1255  000224  C01A  F078         	movff	?___fltol,_speedVal+4
  1256  000228  C01B  F079         	movff	?___fltol+1,_speedVal+5
  1257  00022C                     
  1258                           ;motorMain.c: 199: firstTime = 0;
  1259  00022C  0E00               	movlw	0
  1260  00022E  0100               	movlb	0	; () banked
  1261  000230  6F98               	movwf	_firstTime& (0+255),b
  1262  000232                     i2l2392:
  1263                           
  1264                           ; BSR set to: 0
  1265                           ;motorMain.c: 200: };motorMain.c: 202: speedVal[ind] = (int)(speed*7.538462);
  1266  000232  0E15               	movlw	21
  1267  000234  6E05               	movwf	___flmul@a^0,c
  1268  000236  0E3B               	movlw	59
  1269  000238  6E06               	movwf	(___flmul@a+1)^0,c
  1270  00023A  0EF1               	movlw	241
  1271  00023C  6E07               	movwf	(___flmul@a+2)^0,c
  1272  00023E  0E40               	movlw	64
  1273  000240  6E08               	movwf	(___flmul@a+3)^0,c
  1274  000242  C05B  F001         	movff	_speed,___flmul@b
  1275  000246  C05C  F002         	movff	_speed+1,___flmul@b+1
  1276  00024A  C05D  F003         	movff	_speed+2,___flmul@b+2
  1277  00024E  C05E  F004         	movff	_speed+3,___flmul@b+3
  1278  000252  EC0B  F004         	call	___flmul	;wreg free
  1279  000256  C001  F01A         	movff	?___flmul,___fltol@f1
  1280  00025A  C002  F01B         	movff	?___flmul+1,___fltol@f1+1
  1281  00025E  C003  F01C         	movff	?___flmul+2,___fltol@f1+2
  1282  000262  C004  F01D         	movff	?___flmul+3,___fltol@f1+3
  1283  000266  ECE2  F008         	call	___fltol	;wreg free
  1284  00026A  0100               	movlb	0	; () banked
  1285  00026C  518F               	movf	_ind& (0+255),w,b
  1286  00026E  0D02               	mullw	2
  1287  000270  0E74               	movlw	low _speedVal
  1288  000272  24F3               	addwf	243,w,c
  1289  000274  6ED9               	movwf	fsr2l,c
  1290  000276  0E00               	movlw	high _speedVal
  1291  000278  20F4               	addwfc	prodh,w,c
  1292  00027A  6EDA               	movwf	fsr2h,c
  1293  00027C  C01A  FFDE         	movff	?___fltol,postinc2
  1294  000280  C01B  FFDD         	movff	?___fltol+1,postdec2
  1295  000284                     
  1296                           ; BSR set to: 0
  1297                           ;motorMain.c: 205: speedPID = (int)((speedVal[0]+speedVal[1]+speedVal[2])/3);
  1298  000284  5178               	movf	(_speedVal+4)& (0+255),w,b
  1299  000286  2576               	addwf	(_speedVal+2)& (0+255),w,b
  1300  000288  6E55               	movwf	??_ISR^0,c
  1301  00028A  5179               	movf	(_speedVal+5)& (0+255),w,b
  1302  00028C  2177               	addwfc	(_speedVal+3)& (0+255),w,b
  1303  00028E  6E56               	movwf	(??_ISR+1)^0,c
  1304  000290  5174               	movf	_speedVal& (0+255),w,b
  1305  000292  2455               	addwf	??_ISR^0,w,c
  1306  000294  6E01               	movwf	___awdiv@dividend^0,c
  1307  000296  5175               	movf	(_speedVal+1)& (0+255),w,b
  1308  000298  2056               	addwfc	(??_ISR+1)^0,w,c
  1309  00029A  6E02               	movwf	(___awdiv@dividend+1)^0,c
  1310  00029C  0E00               	movlw	0
  1311  00029E  6E04               	movwf	(___awdiv@divisor+1)^0,c
  1312  0002A0  0E03               	movlw	3
  1313  0002A2  6E03               	movwf	___awdiv@divisor^0,c
  1314  0002A4  ECE7  F009         	call	___awdiv	;wreg free
  1315  0002A8  C001  F086         	movff	?___awdiv,_speedPID
  1316  0002AC  C002  F087         	movff	?___awdiv+1,_speedPID+1
  1317  0002B0                     
  1318                           ;motorMain.c: 206: ind++;
  1319  0002B0  0100               	movlb	0	; () banked
  1320  0002B2  2B8F               	incf	_ind& (0+255),f,b
  1321  0002B4                     
  1322                           ; BSR set to: 0
  1323                           ;motorMain.c: 207: if (ind==3)
  1324  0002B4  0E03               	movlw	3
  1325  0002B6  198F               	xorwf	_ind& (0+255),w,b
  1326  0002B8  A4D8               	btfss	status,2,c
  1327  0002BA  EF61  F001         	goto	i2u220_41
  1328  0002BE  EF63  F001         	goto	i2u220_40
  1329  0002C2                     i2u220_41:
  1330  0002C2  EF65  F001         	goto	i2l2402
  1331  0002C6                     i2u220_40:
  1332  0002C6                     
  1333                           ; BSR set to: 0
  1334                           ;motorMain.c: 208: ind = 0;
  1335  0002C6  0E00               	movlw	0
  1336  0002C8  6F8F               	movwf	_ind& (0+255),b
  1337  0002CA                     i2l2402:
  1338                           
  1339                           ; BSR set to: 0
  1340                           ;motorMain.c: 209: PORTB = speedRef;
  1341  0002CA  C097  FF81         	movff	_speedRef,3969	;volatile
  1342  0002CE                     
  1343                           ; BSR set to: 0
  1344                           ;motorMain.c: 212: CCPR1L = motorOutMSB(PID(speedRef));
  1345  0002CE  C097  F036         	movff	_speedRef,PID@ref
  1346  0002D2  6A37               	clrf	(PID@ref+1)^0,c
  1347  0002D4  EC20  F006         	call	_PID	;wreg free
  1348  0002D8  C036  F04C         	movff	?_PID,motorOutMSB@duty
  1349  0002DC  C037  F04D         	movff	?_PID+1,motorOutMSB@duty+1
  1350  0002E0  C038  F04E         	movff	?_PID+2,motorOutMSB@duty+2
  1351  0002E4  C039  F04F         	movff	?_PID+3,motorOutMSB@duty+3
  1352  0002E8  EC49  F00A         	call	_motorOutMSB	;wreg free
  1353  0002EC  6EBE               	movwf	190,c	;volatile
  1354  0002EE                     
  1355                           ;motorMain.c: 213: CCP1CONbits.DC1B = motorOutLSB(PID(speedRef));
  1356  0002EE  C097  F036         	movff	_speedRef,PID@ref
  1357  0002F2  6A37               	clrf	(PID@ref+1)^0,c
  1358  0002F4  EC20  F006         	call	_PID	;wreg free
  1359  0002F8  C036  F04C         	movff	?_PID,motorOutLSB@duty
  1360  0002FC  C037  F04D         	movff	?_PID+1,motorOutLSB@duty+1
  1361  000300  C038  F04E         	movff	?_PID+2,motorOutLSB@duty+2
  1362  000304  C039  F04F         	movff	?_PID+3,motorOutLSB@duty+3
  1363  000308  EC77  F00A         	call	_motorOutLSB	;wreg free
  1364  00030C  6E55               	movwf	??_ISR^0,c
  1365  00030E  3A55               	swapf	??_ISR^0,f,c
  1366  000310  50BD               	movf	189,w,c	;volatile
  1367  000312  1855               	xorwf	??_ISR^0,w,c
  1368  000314  0BCF               	andlw	-49
  1369  000316  1855               	xorwf	??_ISR^0,w,c
  1370  000318  6EBD               	movwf	189,c	;volatile
  1371                           
  1372                           ;motorMain.c: 216: speed = 0;
  1373  00031A  0E00               	movlw	0
  1374  00031C  6E5B               	movwf	_speed^0,c
  1375  00031E  0E00               	movlw	0
  1376  000320  6E5C               	movwf	(_speed+1)^0,c
  1377  000322  0E00               	movlw	0
  1378  000324  6E5D               	movwf	(_speed+2)^0,c
  1379  000326  0E00               	movlw	0
  1380  000328  6E5E               	movwf	(_speed+3)^0,c
  1381                           
  1382                           ;motorMain.c: 217: count = 0;
  1383  00032A  0E00               	movlw	0
  1384  00032C  0100               	movlb	0	; () banked
  1385  00032E  6F8D               	movwf	(_count+1)& (0+255),b
  1386  000330  0E00               	movlw	0
  1387  000332  6F8C               	movwf	_count& (0+255),b
  1388  000334                     i2l2408:
  1389                           
  1390                           ; BSR set to: 0
  1391                           ;motorMain.c: 218: };motorMain.c: 219: count++;
  1392  000334  4B8C               	infsnz	_count& (0+255),f,b
  1393  000336  2B8D               	incf	(_count+1)& (0+255),f,b
  1394  000338                     
  1395                           ; BSR set to: 0
  1396                           ;motorMain.c: 220: INTCONbits.TMR0IF = 0;
  1397  000338  94F2               	bcf	242,2,c	;volatile
  1398  00033A                     i2l179:
  1399  00033A  C05A  FFF4         	movff	??_ISR+5,prodh
  1400  00033E  C059  FFF3         	movff	??_ISR+4,prodl
  1401  000342  C058  FFDA         	movff	??_ISR+3,fsr2h
  1402  000346  C057  FFD9         	movff	??_ISR+2,fsr2l
  1403  00034A  925F               	bcf	int$flags,1,c	;clear compiler interrupt flag (level 2)
  1404  00034C  0011               	retfie		f
  1405  00034E                     __end_of_ISR:
  1406                           	callstack 0
  1407                           
  1408 ;; *************** function _motorOutMSB *****************
  1409 ;; Defined at:
  1410 ;;		line 359 in file "motorMain.c"
  1411 ;; Parameters:    Size  Location     Type
  1412 ;;  duty            4   75[COMRAM] float 
  1413 ;; Auto vars:     Size  Location     Type
  1414 ;;  buffer          2   81[COMRAM] int 
  1415 ;;  bufferChar      1   83[COMRAM] unsigned char 
  1416 ;; Return value:  Size  Location     Type
  1417 ;;                  1    wreg      unsigned char 
  1418 ;; Registers used:
  1419 ;;		wreg, status,2, status,0, prodl, prodh, cstack
  1420 ;; Tracked objects:
  1421 ;;		On entry : 0/0
  1422 ;;		On exit  : 0/0
  1423 ;;		Unchanged: 0/0
  1424 ;; Data sizes:     COMRAM   BANK0   BANK1   BANK2
  1425 ;;      Params:         4       0       0       0
  1426 ;;      Locals:         3       0       0       0
  1427 ;;      Temps:          2       0       0       0
  1428 ;;      Totals:         9       0       0       0
  1429 ;;Total ram usage:        9 bytes
  1430 ;; Hardware stack levels used: 1
  1431 ;; Hardware stack levels required when called: 1
  1432 ;; This function calls:
  1433 ;;		___flmul
  1434 ;;		___fltol
  1435 ;; This function is called by:
  1436 ;;		_ISR
  1437 ;; This function uses a non-reentrant model
  1438 ;;
  1439                           
  1440                           	psect	text8
  1441  001492                     __ptext8:
  1442                           	callstack 0
  1443  001492                     _motorOutMSB:
  1444                           	callstack 26
  1445  001492                     
  1446                           ;motorMain.c: 360: int buffer = 10.239*duty;
  1447  001492  0EF2               	movlw	242
  1448  001494  6E05               	movwf	___flmul@a^0,c
  1449  001496  0ED2               	movlw	210
  1450  001498  6E06               	movwf	(___flmul@a+1)^0,c
  1451  00149A  0E23               	movlw	35
  1452  00149C  6E07               	movwf	(___flmul@a+2)^0,c
  1453  00149E  0E41               	movlw	65
  1454  0014A0  6E08               	movwf	(___flmul@a+3)^0,c
  1455  0014A2  C04C  F001         	movff	motorOutMSB@duty,___flmul@b
  1456  0014A6  C04D  F002         	movff	motorOutMSB@duty+1,___flmul@b+1
  1457  0014AA  C04E  F003         	movff	motorOutMSB@duty+2,___flmul@b+2
  1458  0014AE  C04F  F004         	movff	motorOutMSB@duty+3,___flmul@b+3
  1459  0014B2  EC0B  F004         	call	___flmul	;wreg free
  1460  0014B6  C001  F01A         	movff	?___flmul,___fltol@f1
  1461  0014BA  C002  F01B         	movff	?___flmul+1,___fltol@f1+1
  1462  0014BE  C003  F01C         	movff	?___flmul+2,___fltol@f1+2
  1463  0014C2  C004  F01D         	movff	?___flmul+3,___fltol@f1+3
  1464  0014C6  ECE2  F008         	call	___fltol	;wreg free
  1465  0014CA  C01A  F052         	movff	?___fltol,motorOutMSB@buffer
  1466  0014CE  C01B  F053         	movff	?___fltol+1,motorOutMSB@buffer+1
  1467  0014D2                     
  1468                           ;motorMain.c: 361: unsigned char bufferChar = buffer >> 2;
  1469  0014D2  C052  F050         	movff	motorOutMSB@buffer,??_motorOutMSB
  1470  0014D6  C053  F051         	movff	motorOutMSB@buffer+1,??_motorOutMSB+1
  1471  0014DA  3451               	rlcf	(??_motorOutMSB+1)^0,w,c
  1472  0014DC  3251               	rrcf	(??_motorOutMSB+1)^0,f,c
  1473  0014DE  3250               	rrcf	??_motorOutMSB^0,f,c
  1474  0014E0  3451               	rlcf	(??_motorOutMSB+1)^0,w,c
  1475  0014E2  3251               	rrcf	(??_motorOutMSB+1)^0,f,c
  1476  0014E4  3250               	rrcf	??_motorOutMSB^0,f,c
  1477  0014E6  5050               	movf	??_motorOutMSB^0,w,c
  1478  0014E8  6E54               	movwf	motorOutMSB@bufferChar^0,c
  1479  0014EA                     
  1480                           ;motorMain.c: 362: return bufferChar;
  1481  0014EA  5054               	movf	motorOutMSB@bufferChar^0,w,c
  1482  0014EC  0012               	return		;funcret
  1483  0014EE                     __end_of_motorOutMSB:
  1484                           	callstack 0
  1485                           
  1486 ;; *************** function _motorOutLSB *****************
  1487 ;; Defined at:
  1488 ;;		line 365 in file "motorMain.c"
  1489 ;; Parameters:    Size  Location     Type
  1490 ;;  duty            4   75[COMRAM] float 
  1491 ;; Auto vars:     Size  Location     Type
  1492 ;;  buffer          2   79[COMRAM] int 
  1493 ;;  bufferChar      1   81[COMRAM] unsigned char 
  1494 ;; Return value:  Size  Location     Type
  1495 ;;                  1    wreg      unsigned char 
  1496 ;; Registers used:
  1497 ;;		wreg, status,2, status,0, prodl, prodh, cstack
  1498 ;; Tracked objects:
  1499 ;;		On entry : 0/0
  1500 ;;		On exit  : 0/0
  1501 ;;		Unchanged: 0/0
  1502 ;; Data sizes:     COMRAM   BANK0   BANK1   BANK2
  1503 ;;      Params:         4       0       0       0
  1504 ;;      Locals:         3       0       0       0
  1505 ;;      Temps:          0       0       0       0
  1506 ;;      Totals:         7       0       0       0
  1507 ;;Total ram usage:        7 bytes
  1508 ;; Hardware stack levels used: 1
  1509 ;; Hardware stack levels required when called: 1
  1510 ;; This function calls:
  1511 ;;		___flmul
  1512 ;;		___fltol
  1513 ;; This function is called by:
  1514 ;;		_ISR
  1515 ;; This function uses a non-reentrant model
  1516 ;;
  1517                           
  1518                           	psect	text9
  1519  0014EE                     __ptext9:
  1520                           	callstack 0
  1521  0014EE                     _motorOutLSB:
  1522                           	callstack 26
  1523  0014EE                     
  1524                           ;motorMain.c: 366: int buffer = 10.239*duty;
  1525  0014EE  0EF2               	movlw	242
  1526  0014F0  6E05               	movwf	___flmul@a^0,c
  1527  0014F2  0ED2               	movlw	210
  1528  0014F4  6E06               	movwf	(___flmul@a+1)^0,c
  1529  0014F6  0E23               	movlw	35
  1530  0014F8  6E07               	movwf	(___flmul@a+2)^0,c
  1531  0014FA  0E41               	movlw	65
  1532  0014FC  6E08               	movwf	(___flmul@a+3)^0,c
  1533  0014FE  C04C  F001         	movff	motorOutLSB@duty,___flmul@b
  1534  001502  C04D  F002         	movff	motorOutLSB@duty+1,___flmul@b+1
  1535  001506  C04E  F003         	movff	motorOutLSB@duty+2,___flmul@b+2
  1536  00150A  C04F  F004         	movff	motorOutLSB@duty+3,___flmul@b+3
  1537  00150E  EC0B  F004         	call	___flmul	;wreg free
  1538  001512  C001  F01A         	movff	?___flmul,___fltol@f1
  1539  001516  C002  F01B         	movff	?___flmul+1,___fltol@f1+1
  1540  00151A  C003  F01C         	movff	?___flmul+2,___fltol@f1+2
  1541  00151E  C004  F01D         	movff	?___flmul+3,___fltol@f1+3
  1542  001522  ECE2  F008         	call	___fltol	;wreg free
  1543  001526  C01A  F050         	movff	?___fltol,motorOutLSB@buffer
  1544  00152A  C01B  F051         	movff	?___fltol+1,motorOutLSB@buffer+1
  1545  00152E                     
  1546                           ;motorMain.c: 367: unsigned char bufferChar = buffer & 0b00000011;
  1547  00152E  5050               	movf	motorOutLSB@buffer^0,w,c
  1548  001530  0B03               	andlw	3
  1549  001532  6E52               	movwf	motorOutLSB@bufferChar^0,c
  1550  001534                     
  1551                           ;motorMain.c: 368: return bufferChar;
  1552  001534  5052               	movf	motorOutLSB@bufferChar^0,w,c
  1553  001536  0012               	return		;funcret
  1554  001538                     __end_of_motorOutLSB:
  1555                           	callstack 0
  1556                           
  1557 ;; *************** function _medianF *****************
  1558 ;; Defined at:
  1559 ;;		line 148 in file "motorMain.c"
  1560 ;; Parameters:    Size  Location     Type
  1561 ;;  a               4   12[COMRAM] float 
  1562 ;;  b               4   16[COMRAM] float 
  1563 ;;  c               4   20[COMRAM] float 
  1564 ;; Auto vars:     Size  Location     Type
  1565 ;;  middle          4   24[COMRAM] float 
  1566 ;; Return value:  Size  Location     Type
  1567 ;;                  4   12[COMRAM] float 
  1568 ;; Registers used:
  1569 ;;		wreg, status,2, status,0, cstack
  1570 ;; Tracked objects:
  1571 ;;		On entry : 0/0
  1572 ;;		On exit  : 0/0
  1573 ;;		Unchanged: 0/0
  1574 ;; Data sizes:     COMRAM   BANK0   BANK1   BANK2
  1575 ;;      Params:        12       0       0       0
  1576 ;;      Locals:         4       0       0       0
  1577 ;;      Temps:          0       0       0       0
  1578 ;;      Totals:        16       0       0       0
  1579 ;;Total ram usage:       16 bytes
  1580 ;; Hardware stack levels used: 1
  1581 ;; Hardware stack levels required when called: 1
  1582 ;; This function calls:
  1583 ;;		___flge
  1584 ;; This function is called by:
  1585 ;;		_ISR
  1586 ;; This function uses a non-reentrant model
  1587 ;;
  1588                           
  1589                           	psect	text10
  1590  000E5C                     __ptext10:
  1591                           	callstack 0
  1592  000E5C                     _medianF:
  1593                           	callstack 26
  1594  000E5C                     
  1595                           ;motorMain.c: 149: float middle;;motorMain.c: 150: if ((a <= b) && (a <= c))
  1596  000E5C  C011  F001         	movff	medianF@b,___flge@ff1
  1597  000E60  C012  F002         	movff	medianF@b+1,___flge@ff1+1
  1598  000E64  C013  F003         	movff	medianF@b+2,___flge@ff1+2
  1599  000E68  C014  F004         	movff	medianF@b+3,___flge@ff1+3
  1600  000E6C  C00D  F005         	movff	medianF@a,___flge@ff2
  1601  000E70  C00E  F006         	movff	medianF@a+1,___flge@ff2+1
  1602  000E74  C00F  F007         	movff	medianF@a+2,___flge@ff2+2
  1603  000E78  C010  F008         	movff	medianF@a+3,___flge@ff2+3
  1604  000E7C  EC65  F009         	call	___flge	;wreg free
  1605  000E80  A0D8               	btfss	status,0,c
  1606  000E82  EF45  F007         	goto	i2u195_41
  1607  000E86  EF47  F007         	goto	i2u195_40
  1608  000E8A                     i2u195_41:
  1609  000E8A  EF8D  F007         	goto	i2l2202
  1610  000E8E                     i2u195_40:
  1611  000E8E  C015  F001         	movff	medianF@c,___flge@ff1
  1612  000E92  C016  F002         	movff	medianF@c+1,___flge@ff1+1
  1613  000E96  C017  F003         	movff	medianF@c+2,___flge@ff1+2
  1614  000E9A  C018  F004         	movff	medianF@c+3,___flge@ff1+3
  1615  000E9E  C00D  F005         	movff	medianF@a,___flge@ff2
  1616  000EA2  C00E  F006         	movff	medianF@a+1,___flge@ff2+1
  1617  000EA6  C00F  F007         	movff	medianF@a+2,___flge@ff2+2
  1618  000EAA  C010  F008         	movff	medianF@a+3,___flge@ff2+3
  1619  000EAE  EC65  F009         	call	___flge	;wreg free
  1620  000EB2  A0D8               	btfss	status,0,c
  1621  000EB4  EF5E  F007         	goto	i2u196_41
  1622  000EB8  EF60  F007         	goto	i2u196_40
  1623  000EBC                     i2u196_41:
  1624  000EBC  EF8D  F007         	goto	i2l2202
  1625  000EC0                     i2u196_40:
  1626  000EC0                     
  1627                           ;motorMain.c: 151: {;motorMain.c: 152: middle = (b <= c) ? b : c;
  1628  000EC0  C015  F001         	movff	medianF@c,___flge@ff1
  1629  000EC4  C016  F002         	movff	medianF@c+1,___flge@ff1+1
  1630  000EC8  C017  F003         	movff	medianF@c+2,___flge@ff1+2
  1631  000ECC  C018  F004         	movff	medianF@c+3,___flge@ff1+3
  1632  000ED0  C011  F005         	movff	medianF@b,___flge@ff2
  1633  000ED4  C012  F006         	movff	medianF@b+1,___flge@ff2+1
  1634  000ED8  C013  F007         	movff	medianF@b+2,___flge@ff2+2
  1635  000EDC  C014  F008         	movff	medianF@b+3,___flge@ff2+3
  1636  000EE0  EC65  F009         	call	___flge	;wreg free
  1637  000EE4  B0D8               	btfsc	status,0,c
  1638  000EE6  EF77  F007         	goto	i2u197_41
  1639  000EEA  EF79  F007         	goto	i2u197_40
  1640  000EEE                     i2u197_41:
  1641  000EEE  EF83  F007         	goto	i2l151
  1642  000EF2                     i2u197_40:
  1643  000EF2                     i2l2200:
  1644  000EF2  C015  F019         	movff	medianF@c,medianF@middle
  1645  000EF6  C016  F01A         	movff	medianF@c+1,medianF@middle+1
  1646  000EFA  C017  F01B         	movff	medianF@c+2,medianF@middle+2
  1647  000EFE  C018  F01C         	movff	medianF@c+3,medianF@middle+3
  1648  000F02  EFFF  F007         	goto	i2l154
  1649  000F06                     i2l151:
  1650  000F06  C011  F019         	movff	medianF@b,medianF@middle
  1651  000F0A  C012  F01A         	movff	medianF@b+1,medianF@middle+1
  1652  000F0E  C013  F01B         	movff	medianF@b+2,medianF@middle+2
  1653  000F12  C014  F01C         	movff	medianF@b+3,medianF@middle+3
  1654  000F16  EFFF  F007         	goto	i2l154
  1655  000F1A                     i2l2202:
  1656                           
  1657                           ;motorMain.c: 154: else if ((b <= a) && (b <= c))
  1658  000F1A  C00D  F001         	movff	medianF@a,___flge@ff1
  1659  000F1E  C00E  F002         	movff	medianF@a+1,___flge@ff1+1
  1660  000F22  C00F  F003         	movff	medianF@a+2,___flge@ff1+2
  1661  000F26  C010  F004         	movff	medianF@a+3,___flge@ff1+3
  1662  000F2A  C011  F005         	movff	medianF@b,___flge@ff2
  1663  000F2E  C012  F006         	movff	medianF@b+1,___flge@ff2+1
  1664  000F32  C013  F007         	movff	medianF@b+2,___flge@ff2+2
  1665  000F36  C014  F008         	movff	medianF@b+3,___flge@ff2+3
  1666  000F3A  EC65  F009         	call	___flge	;wreg free
  1667  000F3E  A0D8               	btfss	status,0,c
  1668  000F40  EFA4  F007         	goto	i2u198_41
  1669  000F44  EFA6  F007         	goto	i2u198_40
  1670  000F48                     i2u198_41:
  1671  000F48  EFE4  F007         	goto	i2l2210
  1672  000F4C                     i2u198_40:
  1673  000F4C  C015  F001         	movff	medianF@c,___flge@ff1
  1674  000F50  C016  F002         	movff	medianF@c+1,___flge@ff1+1
  1675  000F54  C017  F003         	movff	medianF@c+2,___flge@ff1+2
  1676  000F58  C018  F004         	movff	medianF@c+3,___flge@ff1+3
  1677  000F5C  C011  F005         	movff	medianF@b,___flge@ff2
  1678  000F60  C012  F006         	movff	medianF@b+1,___flge@ff2+1
  1679  000F64  C013  F007         	movff	medianF@b+2,___flge@ff2+2
  1680  000F68  C014  F008         	movff	medianF@b+3,___flge@ff2+3
  1681  000F6C  EC65  F009         	call	___flge	;wreg free
  1682  000F70  A0D8               	btfss	status,0,c
  1683  000F72  EFBD  F007         	goto	i2u199_41
  1684  000F76  EFBF  F007         	goto	i2u199_40
  1685  000F7A                     i2u199_41:
  1686  000F7A  EFE4  F007         	goto	i2l2210
  1687  000F7E                     i2u199_40:
  1688  000F7E                     
  1689                           ;motorMain.c: 155: {;motorMain.c: 156: middle = (a <= c) ? a : c;
  1690  000F7E  C015  F001         	movff	medianF@c,___flge@ff1
  1691  000F82  C016  F002         	movff	medianF@c+1,___flge@ff1+1
  1692  000F86  C017  F003         	movff	medianF@c+2,___flge@ff1+2
  1693  000F8A  C018  F004         	movff	medianF@c+3,___flge@ff1+3
  1694  000F8E  C00D  F005         	movff	medianF@a,___flge@ff2
  1695  000F92  C00E  F006         	movff	medianF@a+1,___flge@ff2+1
  1696  000F96  C00F  F007         	movff	medianF@a+2,___flge@ff2+2
  1697  000F9A  C010  F008         	movff	medianF@a+3,___flge@ff2+3
  1698  000F9E  EC65  F009         	call	___flge	;wreg free
  1699  000FA2  B0D8               	btfsc	status,0,c
  1700  000FA4  EFD6  F007         	goto	i2u200_41
  1701  000FA8  EFD8  F007         	goto	i2u200_40
  1702  000FAC                     i2u200_41:
  1703  000FAC  EFDA  F007         	goto	i2l157
  1704  000FB0                     i2u200_40:
  1705  000FB0  EF79  F007         	goto	i2l2200
  1706  000FB4                     i2l157:
  1707  000FB4  C00D  F019         	movff	medianF@a,medianF@middle
  1708  000FB8  C00E  F01A         	movff	medianF@a+1,medianF@middle+1
  1709  000FBC  C00F  F01B         	movff	medianF@a+2,medianF@middle+2
  1710  000FC0  C010  F01C         	movff	medianF@a+3,medianF@middle+3
  1711  000FC4  EFFF  F007         	goto	i2l154
  1712  000FC8                     i2l2210:
  1713                           
  1714                           ;motorMain.c: 158: else;motorMain.c: 159: {;motorMain.c: 160: middle = (a <= b) ? a : b;
  1715  000FC8  C011  F001         	movff	medianF@b,___flge@ff1
  1716  000FCC  C012  F002         	movff	medianF@b+1,___flge@ff1+1
  1717  000FD0  C013  F003         	movff	medianF@b+2,___flge@ff1+2
  1718  000FD4  C014  F004         	movff	medianF@b+3,___flge@ff1+3
  1719  000FD8  C00D  F005         	movff	medianF@a,___flge@ff2
  1720  000FDC  C00E  F006         	movff	medianF@a+1,___flge@ff2+1
  1721  000FE0  C00F  F007         	movff	medianF@a+2,___flge@ff2+2
  1722  000FE4  C010  F008         	movff	medianF@a+3,___flge@ff2+3
  1723  000FE8  EC65  F009         	call	___flge	;wreg free
  1724  000FEC  B0D8               	btfsc	status,0,c
  1725  000FEE  EFFB  F007         	goto	i2u201_41
  1726  000FF2  EFFD  F007         	goto	i2u201_40
  1727  000FF6                     i2u201_41:
  1728  000FF6  EFDA  F007         	goto	i2l157
  1729  000FFA                     i2u201_40:
  1730  000FFA  EF83  F007         	goto	i2l151
  1731  000FFE                     i2l154:
  1732                           
  1733                           ;motorMain.c: 161: };motorMain.c: 162: return middle;
  1734  000FFE  C019  F00D         	movff	medianF@middle,?_medianF
  1735  001002  C01A  F00E         	movff	medianF@middle+1,?_medianF+1
  1736  001006  C01B  F00F         	movff	medianF@middle+2,?_medianF+2
  1737  00100A  C01C  F010         	movff	medianF@middle+3,?_medianF+3
  1738  00100E  0012               	return		;funcret
  1739  001010                     __end_of_medianF:
  1740                           	callstack 0
  1741                           
  1742 ;; *************** function ___awdiv *****************
  1743 ;; Defined at:
  1744 ;;		line 7 in file "C:\Program Files\Microchip\xc8\v2.32\pic\sources\c90\common\awdiv.c"
  1745 ;; Parameters:    Size  Location     Type
  1746 ;;  dividend        2    0[COMRAM] int 
  1747 ;;  divisor         2    2[COMRAM] int 
  1748 ;; Auto vars:     Size  Location     Type
  1749 ;;  quotient        2    6[COMRAM] int 
  1750 ;;  sign            1    5[COMRAM] unsigned char 
  1751 ;;  counter         1    4[COMRAM] unsigned char 
  1752 ;; Return value:  Size  Location     Type
  1753 ;;                  2    0[COMRAM] int 
  1754 ;; Registers used:
  1755 ;;		wreg, status,2, status,0
  1756 ;; Tracked objects:
  1757 ;;		On entry : 0/0
  1758 ;;		On exit  : 0/0
  1759 ;;		Unchanged: 0/0
  1760 ;; Data sizes:     COMRAM   BANK0   BANK1   BANK2
  1761 ;;      Params:         4       0       0       0
  1762 ;;      Locals:         4       0       0       0
  1763 ;;      Temps:          0       0       0       0
  1764 ;;      Totals:         8       0       0       0
  1765 ;;Total ram usage:        8 bytes
  1766 ;; Hardware stack levels used: 1
  1767 ;; This function calls:
  1768 ;;		Nothing
  1769 ;; This function is called by:
  1770 ;;		_ISR
  1771 ;; This function uses a non-reentrant model
  1772 ;;
  1773                           
  1774                           	psect	text11
  1775  0013CE                     __ptext11:
  1776                           	callstack 0
  1777  0013CE                     ___awdiv:
  1778                           	callstack 27
  1779  0013CE  0E00               	movlw	0
  1780  0013D0  6E06               	movwf	___awdiv@sign^0,c
  1781  0013D2  BE04               	btfsc	(___awdiv@divisor+1)^0,7,c
  1782  0013D4  EFF0  F009         	goto	i2u206_40
  1783  0013D8  EFEE  F009         	goto	i2u206_41
  1784  0013DC                     i2u206_41:
  1785  0013DC  EFF6  F009         	goto	i2l2318
  1786  0013E0                     i2u206_40:
  1787  0013E0  6C03               	negf	___awdiv@divisor^0,c
  1788  0013E2  1E04               	comf	(___awdiv@divisor+1)^0,f,c
  1789  0013E4  B0D8               	btfsc	status,0,c
  1790  0013E6  2A04               	incf	(___awdiv@divisor+1)^0,f,c
  1791  0013E8  0E01               	movlw	1
  1792  0013EA  6E06               	movwf	___awdiv@sign^0,c
  1793  0013EC                     i2l2318:
  1794  0013EC  BE02               	btfsc	(___awdiv@dividend+1)^0,7,c
  1795  0013EE  EFFD  F009         	goto	i2u207_40
  1796  0013F2  EFFB  F009         	goto	i2u207_41
  1797  0013F6                     i2u207_41:
  1798  0013F6  EF03  F00A         	goto	i2l2324
  1799  0013FA                     i2u207_40:
  1800  0013FA  6C01               	negf	___awdiv@dividend^0,c
  1801  0013FC  1E02               	comf	(___awdiv@dividend+1)^0,f,c
  1802  0013FE  B0D8               	btfsc	status,0,c
  1803  001400  2A02               	incf	(___awdiv@dividend+1)^0,f,c
  1804  001402  0E01               	movlw	1
  1805  001404  1A06               	xorwf	___awdiv@sign^0,f,c
  1806  001406                     i2l2324:
  1807  001406  0E00               	movlw	0
  1808  001408  6E08               	movwf	(___awdiv@quotient+1)^0,c
  1809  00140A  0E00               	movlw	0
  1810  00140C  6E07               	movwf	___awdiv@quotient^0,c
  1811  00140E  5003               	movf	___awdiv@divisor^0,w,c
  1812  001410  1004               	iorwf	(___awdiv@divisor+1)^0,w,c
  1813  001412  B4D8               	btfsc	status,2,c
  1814  001414  EF0E  F00A         	goto	i2u208_41
  1815  001418  EF10  F00A         	goto	i2u208_40
  1816  00141C                     i2u208_41:
  1817  00141C  EF38  F00A         	goto	i2l2346
  1818  001420                     i2u208_40:
  1819  001420  0E01               	movlw	1
  1820  001422  6E05               	movwf	___awdiv@counter^0,c
  1821  001424  EF18  F00A         	goto	i2l2332
  1822  001428                     i2l2330:
  1823  001428  90D8               	bcf	status,0,c
  1824  00142A  3603               	rlcf	___awdiv@divisor^0,f,c
  1825  00142C  3604               	rlcf	(___awdiv@divisor+1)^0,f,c
  1826  00142E  2A05               	incf	___awdiv@counter^0,f,c
  1827  001430                     i2l2332:
  1828  001430  AE04               	btfss	(___awdiv@divisor+1)^0,7,c
  1829  001432  EF1D  F00A         	goto	i2u209_41
  1830  001436  EF1F  F00A         	goto	i2u209_40
  1831  00143A                     i2u209_41:
  1832  00143A  EF14  F00A         	goto	i2l2330
  1833  00143E                     i2u209_40:
  1834  00143E                     i2l2334:
  1835  00143E  90D8               	bcf	status,0,c
  1836  001440  3607               	rlcf	___awdiv@quotient^0,f,c
  1837  001442  3608               	rlcf	(___awdiv@quotient+1)^0,f,c
  1838  001444  5003               	movf	___awdiv@divisor^0,w,c
  1839  001446  5C01               	subwf	___awdiv@dividend^0,w,c
  1840  001448  5004               	movf	(___awdiv@divisor+1)^0,w,c
  1841  00144A  5802               	subwfb	(___awdiv@dividend+1)^0,w,c
  1842  00144C  A0D8               	btfss	status,0,c
  1843  00144E  EF2B  F00A         	goto	i2u210_41
  1844  001452  EF2D  F00A         	goto	i2u210_40
  1845  001456                     i2u210_41:
  1846  001456  EF32  F00A         	goto	i2l2342
  1847  00145A                     i2u210_40:
  1848  00145A  5003               	movf	___awdiv@divisor^0,w,c
  1849  00145C  5E01               	subwf	___awdiv@dividend^0,f,c
  1850  00145E  5004               	movf	(___awdiv@divisor+1)^0,w,c
  1851  001460  5A02               	subwfb	(___awdiv@dividend+1)^0,f,c
  1852  001462  8007               	bsf	___awdiv@quotient^0,0,c
  1853  001464                     i2l2342:
  1854  001464  90D8               	bcf	status,0,c
  1855  001466  3204               	rrcf	(___awdiv@divisor+1)^0,f,c
  1856  001468  3203               	rrcf	___awdiv@divisor^0,f,c
  1857  00146A  2E05               	decfsz	___awdiv@counter^0,f,c
  1858  00146C  EF1F  F00A         	goto	i2l2334
  1859  001470                     i2l2346:
  1860  001470  5006               	movf	___awdiv@sign^0,w,c
  1861  001472  B4D8               	btfsc	status,2,c
  1862  001474  EF3E  F00A         	goto	i2u211_41
  1863  001478  EF40  F00A         	goto	i2u211_40
  1864  00147C                     i2u211_41:
  1865  00147C  EF44  F00A         	goto	i2l2350
  1866  001480                     i2u211_40:
  1867  001480  6C07               	negf	___awdiv@quotient^0,c
  1868  001482  1E08               	comf	(___awdiv@quotient+1)^0,f,c
  1869  001484  B0D8               	btfsc	status,0,c
  1870  001486  2A08               	incf	(___awdiv@quotient+1)^0,f,c
  1871  001488                     i2l2350:
  1872  001488  C007  F001         	movff	___awdiv@quotient,?___awdiv
  1873  00148C  C008  F002         	movff	___awdiv@quotient+1,?___awdiv+1
  1874  001490  0012               	return		;funcret
  1875  001492                     __end_of___awdiv:
  1876                           	callstack 0
  1877                           
  1878 ;; *************** function _ReadSPI *****************
  1879 ;; Defined at:
  1880 ;;		line 139 in file "motorMain.c"
  1881 ;; Parameters:    Size  Location     Type
  1882 ;;		None
  1883 ;; Auto vars:     Size  Location     Type
  1884 ;;  TempVar         1    0        unsigned char 
  1885 ;; Return value:  Size  Location     Type
  1886 ;;                  1    wreg      unsigned char 
  1887 ;; Registers used:
  1888 ;;		wreg, status,2
  1889 ;; Tracked objects:
  1890 ;;		On entry : 0/0
  1891 ;;		On exit  : 0/0
  1892 ;;		Unchanged: 0/0
  1893 ;; Data sizes:     COMRAM   BANK0   BANK1   BANK2
  1894 ;;      Params:         0       0       0       0
  1895 ;;      Locals:         0       0       0       0
  1896 ;;      Temps:          0       0       0       0
  1897 ;;      Totals:         0       0       0       0
  1898 ;;Total ram usage:        0 bytes
  1899 ;; Hardware stack levels used: 1
  1900 ;; This function calls:
  1901 ;;		Nothing
  1902 ;; This function is called by:
  1903 ;;		_ISR
  1904 ;; This function uses a non-reentrant model
  1905 ;;
  1906                           
  1907                           	psect	text12
  1908  00162E                     __ptext12:
  1909                           	callstack 0
  1910  00162E                     _ReadSPI:
  1911                           	callstack 27
  1912  00162E  50C9               	movf	201,w,c	;volatile
  1913                           
  1914                           ;motorMain.c: 142: PIR1bits.SSPIF = 0;
  1915  001630  969E               	bcf	158,3,c	;volatile
  1916  001632                     
  1917                           ;motorMain.c: 143: SSPBUF = 0x00;
  1918  001632  0E00               	movlw	0
  1919  001634  6EC9               	movwf	201,c	;volatile
  1920  001636                     i2l143:
  1921  001636  A69E               	btfss	158,3,c	;volatile
  1922  001638  EF20  F00B         	goto	i2u194_41
  1923  00163C  EF22  F00B         	goto	i2u194_40
  1924  001640                     i2u194_41:
  1925  001640  EF1B  F00B         	goto	i2l143
  1926  001644                     i2u194_40:
  1927  001644                     
  1928                           ;motorMain.c: 145: return (SSPBUF);
  1929  001644  50C9               	movf	201,w,c	;volatile
  1930  001646  0012               	return		;funcret
  1931  001648                     __end_of_ReadSPI:
  1932                           	callstack 0
  1933                           
  1934 ;; *************** function _PID *****************
  1935 ;; Defined at:
  1936 ;;		line 371 in file "motorMain.c"
  1937 ;; Parameters:    Size  Location     Type
  1938 ;;  ref             2   53[COMRAM] int 
  1939 ;; Auto vars:     Size  Location     Type
  1940 ;;  duty            4   71[COMRAM] float 
  1941 ;;  err             4   67[COMRAM] float 
  1942 ;;  Ki              4   63[COMRAM] float 
  1943 ;;  Kp              4   59[COMRAM] float 
  1944 ;; Return value:  Size  Location     Type
  1945 ;;                  4   53[COMRAM] float 
  1946 ;; Registers used:
  1947 ;;		wreg, status,2, status,0, prodl, prodh, cstack
  1948 ;; Tracked objects:
  1949 ;;		On entry : 0/0
  1950 ;;		On exit  : 0/0
  1951 ;;		Unchanged: 0/0
  1952 ;; Data sizes:     COMRAM   BANK0   BANK1   BANK2
  1953 ;;      Params:         4       0       0       0
  1954 ;;      Locals:        16       0       0       0
  1955 ;;      Temps:          2       0       0       0
  1956 ;;      Totals:        22       0       0       0
  1957 ;;Total ram usage:       22 bytes
  1958 ;; Hardware stack levels used: 1
  1959 ;; Hardware stack levels required when called: 1
  1960 ;; This function calls:
  1961 ;;		___fladd
  1962 ;;		___flge
  1963 ;;		___flmul
  1964 ;;		___fltol
  1965 ;;		___xxtofl
  1966 ;;		_abs
  1967 ;; This function is called by:
  1968 ;;		_ISR
  1969 ;; This function uses a non-reentrant model
  1970 ;;
  1971                           
  1972                           	psect	text13
  1973  000C40                     __ptext13:
  1974                           	callstack 0
  1975  000C40                     _PID:
  1976                           	callstack 26
  1977  000C40                     
  1978                           ;motorMain.c: 373: float Kp = 0.4;
  1979  000C40  0ECD               	movlw	205
  1980  000C42  6E3C               	movwf	PID@Kp^0,c
  1981  000C44  0ECC               	movlw	204
  1982  000C46  6E3D               	movwf	(PID@Kp+1)^0,c
  1983  000C48  0ECC               	movlw	204
  1984  000C4A  6E3E               	movwf	(PID@Kp+2)^0,c
  1985  000C4C  0E3E               	movlw	62
  1986  000C4E  6E3F               	movwf	(PID@Kp+3)^0,c
  1987                           
  1988                           ;motorMain.c: 374: float Ki = 0.03;
  1989  000C50  0E8F               	movlw	143
  1990  000C52  6E40               	movwf	PID@Ki^0,c
  1991  000C54  0EC2               	movlw	194
  1992  000C56  6E41               	movwf	(PID@Ki+1)^0,c
  1993  000C58  0EF5               	movlw	245
  1994  000C5A  6E42               	movwf	(PID@Ki+2)^0,c
  1995  000C5C  0E3C               	movlw	60
  1996  000C5E  6E43               	movwf	(PID@Ki+3)^0,c
  1997  000C60                     
  1998                           ;motorMain.c: 375: float err = speedPID - ref;
  1999  000C60  5036               	movf	PID@ref^0,w,c
  2000  000C62  0100               	movlb	0	; () banked
  2001  000C64  5D86               	subwf	_speedPID& (0+255),w,b
  2002  000C66  6E3A               	movwf	??_PID^0,c
  2003  000C68  5037               	movf	(PID@ref+1)^0,w,c
  2004  000C6A  5987               	subwfb	(_speedPID+1)& (0+255),w,b
  2005  000C6C  6E3B               	movwf	(??_PID+1)^0,c
  2006  000C6E  C03A  F028         	movff	??_PID,___xxtofl@val
  2007  000C72  C03B  F029         	movff	??_PID+1,___xxtofl@val+1
  2008  000C76  0E00               	movlw	0
  2009  000C78  BE29               	btfsc	(___xxtofl@val+1)^0,7,c
  2010  000C7A  0EFF               	movlw	-1
  2011  000C7C  6E2A               	movwf	(___xxtofl@val+2)^0,c
  2012  000C7E  6E2B               	movwf	(___xxtofl@val+3)^0,c
  2013  000C80  0E01               	movlw	1
  2014  000C82  EC08  F008         	call	___xxtofl
  2015  000C86  C028  F044         	movff	?___xxtofl,PID@err
  2016  000C8A  C029  F045         	movff	?___xxtofl+1,PID@err+1
  2017  000C8E  C02A  F046         	movff	?___xxtofl+2,PID@err+2
  2018  000C92  C02B  F047         	movff	?___xxtofl+3,PID@err+3
  2019  000C96                     
  2020                           ;motorMain.c: 376: sum_err = sum_err + err;
  2021  000C96  C07A  F01A         	movff	_sum_err,___fladd@b
  2022  000C9A  C07B  F01B         	movff	_sum_err+1,___fladd@b+1
  2023  000C9E  C07C  F01C         	movff	_sum_err+2,___fladd@b+2
  2024  000CA2  C07D  F01D         	movff	_sum_err+3,___fladd@b+3
  2025  000CA6  C044  F01E         	movff	PID@err,___fladd@a
  2026  000CAA  C045  F01F         	movff	PID@err+1,___fladd@a+1
  2027  000CAE  C046  F020         	movff	PID@err+2,___fladd@a+2
  2028  000CB2  C047  F021         	movff	PID@err+3,___fladd@a+3
  2029  000CB6  ECAB  F001         	call	___fladd	;wreg free
  2030  000CBA  C01A  F07A         	movff	?___fladd,_sum_err
  2031  000CBE  C01B  F07B         	movff	?___fladd+1,_sum_err+1
  2032  000CC2  C01C  F07C         	movff	?___fladd+2,_sum_err+2
  2033  000CC6  C01D  F07D         	movff	?___fladd+3,_sum_err+3
  2034  000CCA                     
  2035                           ;motorMain.c: 380: duty = Kp*err + Ki*sum_err;
  2036  000CCA  C044  F005         	movff	PID@err,___flmul@a
  2037  000CCE  C045  F006         	movff	PID@err+1,___flmul@a+1
  2038  000CD2  C046  F007         	movff	PID@err+2,___flmul@a+2
  2039  000CD6  C047  F008         	movff	PID@err+3,___flmul@a+3
  2040  000CDA  C03C  F001         	movff	PID@Kp,___flmul@b
  2041  000CDE  C03D  F002         	movff	PID@Kp+1,___flmul@b+1
  2042  000CE2  C03E  F003         	movff	PID@Kp+2,___flmul@b+2
  2043  000CE6  C03F  F004         	movff	PID@Kp+3,___flmul@b+3
  2044  000CEA  EC0B  F004         	call	___flmul	;wreg free
  2045  000CEE  C001  F01A         	movff	?___flmul,___fladd@b
  2046  000CF2  C002  F01B         	movff	?___flmul+1,___fladd@b+1
  2047  000CF6  C003  F01C         	movff	?___flmul+2,___fladd@b+2
  2048  000CFA  C004  F01D         	movff	?___flmul+3,___fladd@b+3
  2049  000CFE  C07A  F005         	movff	_sum_err,___flmul@a
  2050  000D02  C07B  F006         	movff	_sum_err+1,___flmul@a+1
  2051  000D06  C07C  F007         	movff	_sum_err+2,___flmul@a+2
  2052  000D0A  C07D  F008         	movff	_sum_err+3,___flmul@a+3
  2053  000D0E  C040  F001         	movff	PID@Ki,___flmul@b
  2054  000D12  C041  F002         	movff	PID@Ki+1,___flmul@b+1
  2055  000D16  C042  F003         	movff	PID@Ki+2,___flmul@b+2
  2056  000D1A  C043  F004         	movff	PID@Ki+3,___flmul@b+3
  2057  000D1E  EC0B  F004         	call	___flmul	;wreg free
  2058  000D22  C001  F01E         	movff	?___flmul,___fladd@a
  2059  000D26  C002  F01F         	movff	?___flmul+1,___fladd@a+1
  2060  000D2A  C003  F020         	movff	?___flmul+2,___fladd@a+2
  2061  000D2E  C004  F021         	movff	?___flmul+3,___fladd@a+3
  2062  000D32  ECAB  F001         	call	___fladd	;wreg free
  2063  000D36  C01A  F048         	movff	?___fladd,PID@duty
  2064  000D3A  C01B  F049         	movff	?___fladd+1,PID@duty+1
  2065  000D3E  C01C  F04A         	movff	?___fladd+2,PID@duty+2
  2066  000D42  C01D  F04B         	movff	?___fladd+3,PID@duty+3
  2067  000D46                     
  2068                           ;motorMain.c: 382: if(duty>100) duty = 100;
  2069  000D46  0E00               	movlw	0
  2070  000D48  6E01               	movwf	___flge@ff1^0,c
  2071  000D4A  0E00               	movlw	0
  2072  000D4C  6E02               	movwf	(___flge@ff1+1)^0,c
  2073  000D4E  0EC8               	movlw	200
  2074  000D50  6E03               	movwf	(___flge@ff1+2)^0,c
  2075  000D52  0E42               	movlw	66
  2076  000D54  6E04               	movwf	(___flge@ff1+3)^0,c
  2077  000D56  C048  F005         	movff	PID@duty,___flge@ff2
  2078  000D5A  C049  F006         	movff	PID@duty+1,___flge@ff2+1
  2079  000D5E  C04A  F007         	movff	PID@duty+2,___flge@ff2+2
  2080  000D62  C04B  F008         	movff	PID@duty+3,___flge@ff2+3
  2081  000D66  EC65  F009         	call	___flge	;wreg free
  2082  000D6A  B0D8               	btfsc	status,0,c
  2083  000D6C  EFBA  F006         	goto	i2u202_41
  2084  000D70  EFBC  F006         	goto	i2u202_40
  2085  000D74                     i2u202_41:
  2086  000D74  EFC4  F006         	goto	i2l2226
  2087  000D78                     i2u202_40:
  2088  000D78  0E00               	movlw	0
  2089  000D7A  6E48               	movwf	PID@duty^0,c
  2090  000D7C  0E00               	movlw	0
  2091  000D7E  6E49               	movwf	(PID@duty+1)^0,c
  2092  000D80  0EC8               	movlw	200
  2093  000D82  6E4A               	movwf	(PID@duty+2)^0,c
  2094  000D84  0E42               	movlw	66
  2095  000D86  6E4B               	movwf	(PID@duty+3)^0,c
  2096  000D88                     i2l2226:
  2097                           
  2098                           ;motorMain.c: 383: if(duty<-100) duty = -100;
  2099  000D88  C048  F001         	movff	PID@duty,___flge@ff1
  2100  000D8C  C049  F002         	movff	PID@duty+1,___flge@ff1+1
  2101  000D90  C04A  F003         	movff	PID@duty+2,___flge@ff1+2
  2102  000D94  C04B  F004         	movff	PID@duty+3,___flge@ff1+3
  2103  000D98  0E00               	movlw	0
  2104  000D9A  6E05               	movwf	___flge@ff2^0,c
  2105  000D9C  0E00               	movlw	0
  2106  000D9E  6E06               	movwf	(___flge@ff2+1)^0,c
  2107  000DA0  0EC8               	movlw	200
  2108  000DA2  6E07               	movwf	(___flge@ff2+2)^0,c
  2109  000DA4  0EC2               	movlw	194
  2110  000DA6  6E08               	movwf	(___flge@ff2+3)^0,c
  2111  000DA8  EC65  F009         	call	___flge	;wreg free
  2112  000DAC  B0D8               	btfsc	status,0,c
  2113  000DAE  EFDB  F006         	goto	i2u203_41
  2114  000DB2  EFDD  F006         	goto	i2u203_40
  2115  000DB6                     i2u203_41:
  2116  000DB6  EFE5  F006         	goto	i2l2230
  2117  000DBA                     i2u203_40:
  2118  000DBA  0E00               	movlw	0
  2119  000DBC  6E48               	movwf	PID@duty^0,c
  2120  000DBE  0E00               	movlw	0
  2121  000DC0  6E49               	movwf	(PID@duty+1)^0,c
  2122  000DC2  0EC8               	movlw	200
  2123  000DC4  6E4A               	movwf	(PID@duty+2)^0,c
  2124  000DC6  0EC2               	movlw	194
  2125  000DC8  6E4B               	movwf	(PID@duty+3)^0,c
  2126  000DCA                     i2l2230:
  2127                           
  2128                           ;motorMain.c: 385: if(duty<0) {
  2129  000DCA  BE4B               	btfsc	(PID@duty+3)^0,7,c
  2130  000DCC  EFEC  F006         	goto	i2u204_40
  2131  000DD0  EFEA  F006         	goto	i2u204_41
  2132  000DD4                     i2u204_41:
  2133  000DD4  EFEE  F006         	goto	i2l2234
  2134  000DD8                     i2u204_40:
  2135  000DD8                     
  2136                           ;motorMain.c: 386: PORTCbits.RC0 = 1;
  2137  000DD8  8082               	bsf	130,0,c	;volatile
  2138                           
  2139                           ;motorMain.c: 387: PORTCbits.RC1 = 0;
  2140  000DDA  9282               	bcf	130,1,c	;volatile
  2141  000DDC                     i2l2234:
  2142                           
  2143                           ;motorMain.c: 388: };motorMain.c: 389: if(duty>0) {
  2144  000DDC  0E00               	movlw	0
  2145  000DDE  6E01               	movwf	___flge@ff1^0,c
  2146  000DE0  0E00               	movlw	0
  2147  000DE2  6E02               	movwf	(___flge@ff1+1)^0,c
  2148  000DE4  0E00               	movlw	0
  2149  000DE6  6E03               	movwf	(___flge@ff1+2)^0,c
  2150  000DE8  0E00               	movlw	0
  2151  000DEA  6E04               	movwf	(___flge@ff1+3)^0,c
  2152  000DEC  C048  F005         	movff	PID@duty,___flge@ff2
  2153  000DF0  C049  F006         	movff	PID@duty+1,___flge@ff2+1
  2154  000DF4  C04A  F007         	movff	PID@duty+2,___flge@ff2+2
  2155  000DF8  C04B  F008         	movff	PID@duty+3,___flge@ff2+3
  2156  000DFC  EC65  F009         	call	___flge	;wreg free
  2157  000E00  B0D8               	btfsc	status,0,c
  2158  000E02  EF05  F007         	goto	i2u205_41
  2159  000E06  EF07  F007         	goto	i2u205_40
  2160  000E0A                     i2u205_41:
  2161  000E0A  EF09  F007         	goto	i2l2238
  2162  000E0E                     i2u205_40:
  2163  000E0E                     
  2164                           ;motorMain.c: 390: PORTCbits.RC0 = 0;
  2165  000E0E  9082               	bcf	130,0,c	;volatile
  2166                           
  2167                           ;motorMain.c: 391: PORTCbits.RC1 = 1;
  2168  000E10  8282               	bsf	130,1,c	;volatile
  2169  000E12                     i2l2238:
  2170                           
  2171                           ;motorMain.c: 392: };motorMain.c: 393: return abs(duty);
  2172  000E12  C048  F01A         	movff	PID@duty,___fltol@f1
  2173  000E16  C049  F01B         	movff	PID@duty+1,___fltol@f1+1
  2174  000E1A  C04A  F01C         	movff	PID@duty+2,___fltol@f1+2
  2175  000E1E  C04B  F01D         	movff	PID@duty+3,___fltol@f1+3
  2176  000E22  ECE2  F008         	call	___fltol	;wreg free
  2177  000E26  C01A  F024         	movff	?___fltol,abs@a
  2178  000E2A  C01B  F025         	movff	?___fltol+1,abs@a+1
  2179  000E2E  ECBF  F00A         	call	_abs	;wreg free
  2180  000E32  C024  F028         	movff	?_abs,___xxtofl@val
  2181  000E36  C025  F029         	movff	?_abs+1,___xxtofl@val+1
  2182  000E3A  0E00               	movlw	0
  2183  000E3C  BE29               	btfsc	(___xxtofl@val+1)^0,7,c
  2184  000E3E  0EFF               	movlw	-1
  2185  000E40  6E2A               	movwf	(___xxtofl@val+2)^0,c
  2186  000E42  6E2B               	movwf	(___xxtofl@val+3)^0,c
  2187  000E44  0E01               	movlw	1
  2188  000E46  EC08  F008         	call	___xxtofl
  2189  000E4A  C028  F036         	movff	?___xxtofl,?_PID
  2190  000E4E  C029  F037         	movff	?___xxtofl+1,?_PID+1
  2191  000E52  C02A  F038         	movff	?___xxtofl+2,?_PID+2
  2192  000E56  C02B  F039         	movff	?___xxtofl+3,?_PID+3
  2193  000E5A  0012               	return		;funcret
  2194  000E5C                     __end_of_PID:
  2195                           	callstack 0
  2196                           
  2197 ;; *************** function _abs *****************
  2198 ;; Defined at:
  2199 ;;		line 4 in file "C:\Program Files\Microchip\xc8\v2.32\pic\sources\c90\common\abs.c"
  2200 ;; Parameters:    Size  Location     Type
  2201 ;;  a               2   35[COMRAM] int 
  2202 ;; Auto vars:     Size  Location     Type
  2203 ;;		None
  2204 ;; Return value:  Size  Location     Type
  2205 ;;                  2   35[COMRAM] int 
  2206 ;; Registers used:
  2207 ;;		wreg, status,2, status,0
  2208 ;; Tracked objects:
  2209 ;;		On entry : 0/0
  2210 ;;		On exit  : 0/0
  2211 ;;		Unchanged: 0/0
  2212 ;; Data sizes:     COMRAM   BANK0   BANK1   BANK2
  2213 ;;      Params:         2       0       0       0
  2214 ;;      Locals:         0       0       0       0
  2215 ;;      Temps:          2       0       0       0
  2216 ;;      Totals:         4       0       0       0
  2217 ;;Total ram usage:        4 bytes
  2218 ;; Hardware stack levels used: 1
  2219 ;; This function calls:
  2220 ;;		Nothing
  2221 ;; This function is called by:
  2222 ;;		_PID
  2223 ;; This function uses a non-reentrant model
  2224 ;;
  2225                           
  2226                           	psect	text14
  2227  00157E                     __ptext14:
  2228                           	callstack 0
  2229  00157E                     _abs:
  2230                           	callstack 26
  2231  00157E  BE25               	btfsc	(abs@a+1)^0,7,c
  2232  001580  EFC6  F00A         	goto	i2u113_40
  2233  001584  EFC4  F00A         	goto	i2u113_41
  2234  001588                     i2u113_41:
  2235  001588  EFD4  F00A         	goto	i2l901
  2236  00158C                     i2u113_40:
  2237  00158C  C024  F026         	movff	abs@a,??_abs
  2238  001590  C025  F027         	movff	abs@a+1,??_abs+1
  2239  001594  1E26               	comf	??_abs^0,f,c
  2240  001596  1E27               	comf	(??_abs+1)^0,f,c
  2241  001598  4A26               	infsnz	??_abs^0,f,c
  2242  00159A  2A27               	incf	(??_abs+1)^0,f,c
  2243  00159C  C026  F024         	movff	??_abs,?_abs
  2244  0015A0  C027  F025         	movff	??_abs+1,?_abs+1
  2245  0015A4  EFD8  F00A         	goto	i2l902
  2246  0015A8                     i2l901:
  2247  0015A8  C024  F024         	movff	abs@a,?_abs
  2248  0015AC  C025  F025         	movff	abs@a+1,?_abs+1
  2249  0015B0                     i2l902:
  2250  0015B0  0012               	return		;funcret
  2251  0015B2                     __end_of_abs:
  2252                           	callstack 0
  2253                           
  2254 ;; *************** function ___xxtofl *****************
  2255 ;; Defined at:
  2256 ;;		line 10 in file "C:\Program Files\Microchip\xc8\v2.32\pic\sources\c90\common\xxtofl.c"
  2257 ;; Parameters:    Size  Location     Type
  2258 ;;  sign            1    wreg     unsigned char 
  2259 ;;  val             4   39[COMRAM] long 
  2260 ;; Auto vars:     Size  Location     Type
  2261 ;;  sign            1   47[COMRAM] unsigned char 
  2262 ;;  arg             4   49[COMRAM] unsigned long 
  2263 ;;  exp             1   48[COMRAM] unsigned char 
  2264 ;; Return value:  Size  Location     Type
  2265 ;;                  4   39[COMRAM] unsigned char 
  2266 ;; Registers used:
  2267 ;;		wreg, status,2, status,0
  2268 ;; Tracked objects:
  2269 ;;		On entry : 0/0
  2270 ;;		On exit  : 0/0
  2271 ;;		Unchanged: 0/0
  2272 ;; Data sizes:     COMRAM   BANK0   BANK1   BANK2
  2273 ;;      Params:         4       0       0       0
  2274 ;;      Locals:         6       0       0       0
  2275 ;;      Temps:          4       0       0       0
  2276 ;;      Totals:        14       0       0       0
  2277 ;;Total ram usage:       14 bytes
  2278 ;; Hardware stack levels used: 1
  2279 ;; This function calls:
  2280 ;;		Nothing
  2281 ;; This function is called by:
  2282 ;;		_PID
  2283 ;; This function uses a non-reentrant model
  2284 ;;
  2285                           
  2286                           	psect	text15
  2287  001010                     __ptext15:
  2288                           	callstack 0
  2289  001010                     ___xxtofl:
  2290                           	callstack 26
  2291                           
  2292                           ;incstack = 0
  2293                           ;___xxtofl@sign stored from wreg
  2294  001010  6E30               	movwf	___xxtofl@sign^0,c
  2295  001012  5030               	movf	___xxtofl@sign^0,w,c
  2296  001014  B4D8               	btfsc	status,2,c
  2297  001016  EF0F  F008         	goto	i2u184_41
  2298  00101A  EF11  F008         	goto	i2u184_40
  2299  00101E                     i2u184_41:
  2300  00101E  EF33  F008         	goto	i2l882
  2301  001022                     i2u184_40:
  2302  001022  BE2B               	btfsc	(___xxtofl@val+3)^0,7,c
  2303  001024  EF18  F008         	goto	i2u185_40
  2304  001028  EF16  F008         	goto	i2u185_41
  2305  00102C                     i2u185_41:
  2306  00102C  EF33  F008         	goto	i2l882
  2307  001030                     i2u185_40:
  2308  001030  C028  F02C         	movff	___xxtofl@val,??___xxtofl
  2309  001034  C029  F02D         	movff	___xxtofl@val+1,??___xxtofl+1
  2310  001038  C02A  F02E         	movff	___xxtofl@val+2,??___xxtofl+2
  2311  00103C  C02B  F02F         	movff	___xxtofl@val+3,??___xxtofl+3
  2312  001040  1E2C               	comf	??___xxtofl^0,f,c
  2313  001042  1E2D               	comf	(??___xxtofl+1)^0,f,c
  2314  001044  1E2E               	comf	(??___xxtofl+2)^0,f,c
  2315  001046  1E2F               	comf	(??___xxtofl+3)^0,f,c
  2316  001048  2A2C               	incf	??___xxtofl^0,f,c
  2317  00104A  0E00               	movlw	0
  2318  00104C  222D               	addwfc	(??___xxtofl+1)^0,f,c
  2319  00104E  222E               	addwfc	(??___xxtofl+2)^0,f,c
  2320  001050  222F               	addwfc	(??___xxtofl+3)^0,f,c
  2321  001052  C02C  F032         	movff	??___xxtofl,___xxtofl@arg
  2322  001056  C02D  F033         	movff	??___xxtofl+1,___xxtofl@arg+1
  2323  00105A  C02E  F034         	movff	??___xxtofl+2,___xxtofl@arg+2
  2324  00105E  C02F  F035         	movff	??___xxtofl+3,___xxtofl@arg+3
  2325  001062  EF3B  F008         	goto	i2l2146
  2326  001066                     i2l882:
  2327  001066  C028  F032         	movff	___xxtofl@val,___xxtofl@arg
  2328  00106A  C029  F033         	movff	___xxtofl@val+1,___xxtofl@arg+1
  2329  00106E  C02A  F034         	movff	___xxtofl@val+2,___xxtofl@arg+2
  2330  001072  C02B  F035         	movff	___xxtofl@val+3,___xxtofl@arg+3
  2331  001076                     i2l2146:
  2332  001076  5028               	movf	___xxtofl@val^0,w,c
  2333  001078  1029               	iorwf	(___xxtofl@val+1)^0,w,c
  2334  00107A  102A               	iorwf	(___xxtofl@val+2)^0,w,c
  2335  00107C  102B               	iorwf	(___xxtofl@val+3)^0,w,c
  2336  00107E  A4D8               	btfss	status,2,c
  2337  001080  EF44  F008         	goto	i2u186_41
  2338  001084  EF46  F008         	goto	i2u186_40
  2339  001088                     i2u186_41:
  2340  001088  EF50  F008         	goto	i2l2152
  2341  00108C                     i2u186_40:
  2342  00108C  0E00               	movlw	0
  2343  00108E  6E28               	movwf	?___xxtofl^0,c
  2344  001090  0E00               	movlw	0
  2345  001092  6E29               	movwf	(?___xxtofl+1)^0,c
  2346  001094  0E00               	movlw	0
  2347  001096  6E2A               	movwf	(?___xxtofl+2)^0,c
  2348  001098  0E00               	movlw	0
  2349  00109A  6E2B               	movwf	(?___xxtofl+3)^0,c
  2350  00109C  EFE1  F008         	goto	i2l885
  2351  0010A0                     i2l2152:
  2352  0010A0  0E96               	movlw	150
  2353  0010A2  6E31               	movwf	___xxtofl@exp^0,c
  2354  0010A4  EF5A  F008         	goto	i2l2156
  2355  0010A8                     i2l2154:
  2356  0010A8  2A31               	incf	___xxtofl@exp^0,f,c
  2357  0010AA  90D8               	bcf	status,0,c
  2358  0010AC  3235               	rrcf	(___xxtofl@arg+3)^0,f,c
  2359  0010AE  3234               	rrcf	(___xxtofl@arg+2)^0,f,c
  2360  0010B0  3233               	rrcf	(___xxtofl@arg+1)^0,f,c
  2361  0010B2  3232               	rrcf	___xxtofl@arg^0,f,c
  2362  0010B4                     i2l2156:
  2363  0010B4  0E00               	movlw	0
  2364  0010B6  1432               	andwf	___xxtofl@arg^0,w,c
  2365  0010B8  6E2C               	movwf	??___xxtofl^0,c
  2366  0010BA  0E00               	movlw	0
  2367  0010BC  1433               	andwf	(___xxtofl@arg+1)^0,w,c
  2368  0010BE  6E2D               	movwf	(??___xxtofl+1)^0,c
  2369  0010C0  0E00               	movlw	0
  2370  0010C2  1434               	andwf	(___xxtofl@arg+2)^0,w,c
  2371  0010C4  6E2E               	movwf	(??___xxtofl+2)^0,c
  2372  0010C6  0EFE               	movlw	254
  2373  0010C8  1435               	andwf	(___xxtofl@arg+3)^0,w,c
  2374  0010CA  6E2F               	movwf	(??___xxtofl+3)^0,c
  2375  0010CC  502C               	movf	??___xxtofl^0,w,c
  2376  0010CE  102D               	iorwf	(??___xxtofl+1)^0,w,c
  2377  0010D0  102E               	iorwf	(??___xxtofl+2)^0,w,c
  2378  0010D2  102F               	iorwf	(??___xxtofl+3)^0,w,c
  2379  0010D4  A4D8               	btfss	status,2,c
  2380  0010D6  EF6F  F008         	goto	i2u187_41
  2381  0010DA  EF71  F008         	goto	i2u187_40
  2382  0010DE                     i2u187_41:
  2383  0010DE  EF54  F008         	goto	i2l2154
  2384  0010E2                     i2u187_40:
  2385  0010E2  EF7F  F008         	goto	i2l889
  2386  0010E6                     i2l2158:
  2387  0010E6  2A31               	incf	___xxtofl@exp^0,f,c
  2388  0010E8  0E01               	movlw	1
  2389  0010EA  2632               	addwf	___xxtofl@arg^0,f,c
  2390  0010EC  0E00               	movlw	0
  2391  0010EE  2233               	addwfc	(___xxtofl@arg+1)^0,f,c
  2392  0010F0  2234               	addwfc	(___xxtofl@arg+2)^0,f,c
  2393  0010F2  2235               	addwfc	(___xxtofl@arg+3)^0,f,c
  2394  0010F4  90D8               	bcf	status,0,c
  2395  0010F6  3235               	rrcf	(___xxtofl@arg+3)^0,f,c
  2396  0010F8  3234               	rrcf	(___xxtofl@arg+2)^0,f,c
  2397  0010FA  3233               	rrcf	(___xxtofl@arg+1)^0,f,c
  2398  0010FC  3232               	rrcf	___xxtofl@arg^0,f,c
  2399  0010FE                     i2l889:
  2400  0010FE  0E00               	movlw	0
  2401  001100  1432               	andwf	___xxtofl@arg^0,w,c
  2402  001102  6E2C               	movwf	??___xxtofl^0,c
  2403  001104  0E00               	movlw	0
  2404  001106  1433               	andwf	(___xxtofl@arg+1)^0,w,c
  2405  001108  6E2D               	movwf	(??___xxtofl+1)^0,c
  2406  00110A  0E00               	movlw	0
  2407  00110C  1434               	andwf	(___xxtofl@arg+2)^0,w,c
  2408  00110E  6E2E               	movwf	(??___xxtofl+2)^0,c
  2409  001110  0EFF               	movlw	255
  2410  001112  1435               	andwf	(___xxtofl@arg+3)^0,w,c
  2411  001114  6E2F               	movwf	(??___xxtofl+3)^0,c
  2412  001116  502C               	movf	??___xxtofl^0,w,c
  2413  001118  102D               	iorwf	(??___xxtofl+1)^0,w,c
  2414  00111A  102E               	iorwf	(??___xxtofl+2)^0,w,c
  2415  00111C  102F               	iorwf	(??___xxtofl+3)^0,w,c
  2416  00111E  A4D8               	btfss	status,2,c
  2417  001120  EF94  F008         	goto	i2u188_41
  2418  001124  EF96  F008         	goto	i2u188_40
  2419  001128                     i2u188_41:
  2420  001128  EF73  F008         	goto	i2l2158
  2421  00112C                     i2u188_40:
  2422  00112C  EF9E  F008         	goto	i2l2166
  2423  001130                     i2l2164:
  2424  001130  0631               	decf	___xxtofl@exp^0,f,c
  2425  001132  90D8               	bcf	status,0,c
  2426  001134  3632               	rlcf	___xxtofl@arg^0,f,c
  2427  001136  3633               	rlcf	(___xxtofl@arg+1)^0,f,c
  2428  001138  3634               	rlcf	(___xxtofl@arg+2)^0,f,c
  2429  00113A  3635               	rlcf	(___xxtofl@arg+3)^0,f,c
  2430  00113C                     i2l2166:
  2431  00113C  BE34               	btfsc	(___xxtofl@arg+2)^0,7,c
  2432  00113E  EFA3  F008         	goto	i2u189_41
  2433  001142  EFA5  F008         	goto	i2u189_40
  2434  001146                     i2u189_41:
  2435  001146  EFAD  F008         	goto	i2l896
  2436  00114A                     i2u189_40:
  2437  00114A  0E02               	movlw	2
  2438  00114C  6031               	cpfslt	___xxtofl@exp^0,c
  2439  00114E  EFAB  F008         	goto	i2u190_41
  2440  001152  EFAD  F008         	goto	i2u190_40
  2441  001156                     i2u190_41:
  2442  001156  EF98  F008         	goto	i2l2164
  2443  00115A                     i2u190_40:
  2444  00115A                     i2l896:
  2445  00115A  B031               	btfsc	___xxtofl@exp^0,0,c
  2446  00115C  EFB2  F008         	goto	i2u191_41
  2447  001160  EFB4  F008         	goto	i2u191_40
  2448  001164                     i2u191_41:
  2449  001164  EFB5  F008         	goto	i2l2172
  2450  001168                     i2u191_40:
  2451  001168  9E34               	bcf	(___xxtofl@arg+2)^0,7,c
  2452  00116A                     i2l2172:
  2453  00116A  90D8               	bcf	status,0,c
  2454  00116C  3231               	rrcf	___xxtofl@exp^0,f,c
  2455  00116E  C031  F02C         	movff	___xxtofl@exp,??___xxtofl
  2456  001172  6A2D               	clrf	(??___xxtofl+1)^0,c
  2457  001174  6A2E               	clrf	(??___xxtofl+2)^0,c
  2458  001176  6A2F               	clrf	(??___xxtofl+3)^0,c
  2459  001178  C02C  F02F         	movff	??___xxtofl,??___xxtofl+3
  2460  00117C  6A2E               	clrf	(??___xxtofl+2)^0,c
  2461  00117E  6A2D               	clrf	(??___xxtofl+1)^0,c
  2462  001180  6A2C               	clrf	??___xxtofl^0,c
  2463  001182  502C               	movf	??___xxtofl^0,w,c
  2464  001184  1232               	iorwf	___xxtofl@arg^0,f,c
  2465  001186  502D               	movf	(??___xxtofl+1)^0,w,c
  2466  001188  1233               	iorwf	(___xxtofl@arg+1)^0,f,c
  2467  00118A  502E               	movf	(??___xxtofl+2)^0,w,c
  2468  00118C  1234               	iorwf	(___xxtofl@arg+2)^0,f,c
  2469  00118E  502F               	movf	(??___xxtofl+3)^0,w,c
  2470  001190  1235               	iorwf	(___xxtofl@arg+3)^0,f,c
  2471  001192  5030               	movf	___xxtofl@sign^0,w,c
  2472  001194  B4D8               	btfsc	status,2,c
  2473  001196  EFCF  F008         	goto	i2u192_41
  2474  00119A  EFD1  F008         	goto	i2u192_40
  2475  00119E                     i2u192_41:
  2476  00119E  EFD9  F008         	goto	i2l2182
  2477  0011A2                     i2u192_40:
  2478  0011A2  BE2B               	btfsc	(___xxtofl@val+3)^0,7,c
  2479  0011A4  EFD8  F008         	goto	i2u193_40
  2480  0011A8  EFD6  F008         	goto	i2u193_41
  2481  0011AC                     i2u193_41:
  2482  0011AC  EFD9  F008         	goto	i2l2182
  2483  0011B0                     i2u193_40:
  2484  0011B0  8E35               	bsf	(___xxtofl@arg+3)^0,7,c
  2485  0011B2                     i2l2182:
  2486  0011B2  C032  F028         	movff	___xxtofl@arg,?___xxtofl
  2487  0011B6  C033  F029         	movff	___xxtofl@arg+1,?___xxtofl+1
  2488  0011BA  C034  F02A         	movff	___xxtofl@arg+2,?___xxtofl+2
  2489  0011BE  C035  F02B         	movff	___xxtofl@arg+3,?___xxtofl+3
  2490  0011C2                     i2l885:
  2491  0011C2  0012               	return		;funcret
  2492  0011C4                     __end_of___xxtofl:
  2493                           	callstack 0
  2494                           
  2495 ;; *************** function ___fltol *****************
  2496 ;; Defined at:
  2497 ;;		line 43 in file "C:\Program Files\Microchip\xc8\v2.32\pic\sources\c90\common\fltol.c"
  2498 ;; Parameters:    Size  Location     Type
  2499 ;;  f1              4   25[COMRAM] unsigned char 
  2500 ;; Auto vars:     Size  Location     Type
  2501 ;;  exp1            1   34[COMRAM] unsigned char 
  2502 ;;  sign1           1   33[COMRAM] unsigned char 
  2503 ;; Return value:  Size  Location     Type
  2504 ;;                  4   25[COMRAM] long 
  2505 ;; Registers used:
  2506 ;;		wreg, status,2, status,0
  2507 ;; Tracked objects:
  2508 ;;		On entry : 0/0
  2509 ;;		On exit  : 0/0
  2510 ;;		Unchanged: 0/0
  2511 ;; Data sizes:     COMRAM   BANK0   BANK1   BANK2
  2512 ;;      Params:         4       0       0       0
  2513 ;;      Locals:         2       0       0       0
  2514 ;;      Temps:          4       0       0       0
  2515 ;;      Totals:        10       0       0       0
  2516 ;;Total ram usage:       10 bytes
  2517 ;; Hardware stack levels used: 1
  2518 ;; This function calls:
  2519 ;;		Nothing
  2520 ;; This function is called by:
  2521 ;;		_ISR
  2522 ;;		_motorOutMSB
  2523 ;;		_motorOutLSB
  2524 ;;		_PID
  2525 ;; This function uses a non-reentrant model
  2526 ;;
  2527                           
  2528                           	psect	text16
  2529  0011C4                     __ptext16:
  2530                           	callstack 0
  2531  0011C4                     ___fltol:
  2532                           	callstack 26
  2533  0011C4  341C               	rlcf	(___fltol@f1+2)^0,w,c
  2534  0011C6  341D               	rlcf	(___fltol@f1+3)^0,w,c
  2535  0011C8  6E23               	movwf	___fltol@exp1^0,c
  2536  0011CA  5023               	movf	___fltol@exp1^0,w,c
  2537  0011CC  A4D8               	btfss	status,2,c
  2538  0011CE  EFEB  F008         	goto	i2u177_41
  2539  0011D2  EFED  F008         	goto	i2u177_40
  2540  0011D6                     i2u177_41:
  2541  0011D6  EFF7  F008         	goto	i2l2102
  2542  0011DA                     i2u177_40:
  2543  0011DA                     i2l2098:
  2544  0011DA  0E00               	movlw	0
  2545  0011DC  6E1A               	movwf	?___fltol^0,c
  2546  0011DE  0E00               	movlw	0
  2547  0011E0  6E1B               	movwf	(?___fltol+1)^0,c
  2548  0011E2  0E00               	movlw	0
  2549  0011E4  6E1C               	movwf	(?___fltol+2)^0,c
  2550  0011E6  0E00               	movlw	0
  2551  0011E8  6E1D               	movwf	(?___fltol+3)^0,c
  2552  0011EA  EF64  F009         	goto	i2l528
  2553  0011EE                     i2l2102:
  2554  0011EE  C01A  F01E         	movff	___fltol@f1,??___fltol
  2555  0011F2  C01B  F01F         	movff	___fltol@f1+1,??___fltol+1
  2556  0011F6  C01C  F020         	movff	___fltol@f1+2,??___fltol+2
  2557  0011FA  C01D  F021         	movff	___fltol@f1+3,??___fltol+3
  2558  0011FE  0E20               	movlw	32
  2559  001200  EF07  F009         	goto	i2u178_40
  2560  001204                     i2u178_45:
  2561  001204  90D8               	bcf	status,0,c
  2562  001206  3221               	rrcf	(??___fltol+3)^0,f,c
  2563  001208  3220               	rrcf	(??___fltol+2)^0,f,c
  2564  00120A  321F               	rrcf	(??___fltol+1)^0,f,c
  2565  00120C  321E               	rrcf	??___fltol^0,f,c
  2566  00120E                     i2u178_40:
  2567  00120E  2EE8               	decfsz	wreg,f,c
  2568  001210  EF02  F009         	goto	i2u178_45
  2569  001214  501E               	movf	??___fltol^0,w,c
  2570  001216  6E22               	movwf	___fltol@sign1^0,c
  2571  001218  8E1C               	bsf	(___fltol@f1+2)^0,7,c
  2572  00121A  0EFF               	movlw	255
  2573  00121C  161A               	andwf	___fltol@f1^0,f,c
  2574  00121E  0EFF               	movlw	255
  2575  001220  161B               	andwf	(___fltol@f1+1)^0,f,c
  2576  001222  0EFF               	movlw	255
  2577  001224  161C               	andwf	(___fltol@f1+2)^0,f,c
  2578  001226  0E00               	movlw	0
  2579  001228  161D               	andwf	(___fltol@f1+3)^0,f,c
  2580  00122A  0E96               	movlw	150
  2581  00122C  5E23               	subwf	___fltol@exp1^0,f,c
  2582  00122E  BE23               	btfsc	___fltol@exp1^0,7,c
  2583  001230  EF1E  F009         	goto	i2u179_40
  2584  001234  EF1C  F009         	goto	i2u179_41
  2585  001238                     i2u179_41:
  2586  001238  EF34  F009         	goto	i2l2122
  2587  00123C                     i2u179_40:
  2588  00123C  5023               	movf	___fltol@exp1^0,w,c
  2589  00123E  0A80               	xorlw	128
  2590  001240  0F97               	addlw	151
  2591  001242  B0D8               	btfsc	status,0,c
  2592  001244  EF26  F009         	goto	i2u180_41
  2593  001248  EF28  F009         	goto	i2u180_40
  2594  00124C                     i2u180_41:
  2595  00124C  EF2A  F009         	goto	i2l2118
  2596  001250                     i2u180_40:
  2597  001250  EFED  F008         	goto	i2l2098
  2598  001254                     i2l2118:
  2599  001254  90D8               	bcf	status,0,c
  2600  001256  321D               	rrcf	(___fltol@f1+3)^0,f,c
  2601  001258  321C               	rrcf	(___fltol@f1+2)^0,f,c
  2602  00125A  321B               	rrcf	(___fltol@f1+1)^0,f,c
  2603  00125C  321A               	rrcf	___fltol@f1^0,f,c
  2604  00125E  3E23               	incfsz	___fltol@exp1^0,f,c
  2605  001260  EF2A  F009         	goto	i2l2118
  2606  001264  EF4C  F009         	goto	i2l2132
  2607  001268                     i2l2122:
  2608  001268  0E1F               	movlw	31
  2609  00126A  6423               	cpfsgt	___fltol@exp1^0,c
  2610  00126C  EF3A  F009         	goto	i2u181_41
  2611  001270  EF3C  F009         	goto	i2u181_40
  2612  001274                     i2u181_41:
  2613  001274  EF44  F009         	goto	i2l2130
  2614  001278                     i2u181_40:
  2615  001278  EFED  F008         	goto	i2l2098
  2616  00127C                     i2l2128:
  2617  00127C  90D8               	bcf	status,0,c
  2618  00127E  361A               	rlcf	___fltol@f1^0,f,c
  2619  001280  361B               	rlcf	(___fltol@f1+1)^0,f,c
  2620  001282  361C               	rlcf	(___fltol@f1+2)^0,f,c
  2621  001284  361D               	rlcf	(___fltol@f1+3)^0,f,c
  2622  001286  0623               	decf	___fltol@exp1^0,f,c
  2623  001288                     i2l2130:
  2624  001288  5023               	movf	___fltol@exp1^0,w,c
  2625  00128A  A4D8               	btfss	status,2,c
  2626  00128C  EF4A  F009         	goto	i2u182_41
  2627  001290  EF4C  F009         	goto	i2u182_40
  2628  001294                     i2u182_41:
  2629  001294  EF3E  F009         	goto	i2l2128
  2630  001298                     i2u182_40:
  2631  001298                     i2l2132:
  2632  001298  5022               	movf	___fltol@sign1^0,w,c
  2633  00129A  B4D8               	btfsc	status,2,c
  2634  00129C  EF52  F009         	goto	i2u183_41
  2635  0012A0  EF54  F009         	goto	i2u183_40
  2636  0012A4                     i2u183_41:
  2637  0012A4  EF5C  F009         	goto	i2l2136
  2638  0012A8                     i2u183_40:
  2639  0012A8  1E1D               	comf	(___fltol@f1+3)^0,f,c
  2640  0012AA  1E1C               	comf	(___fltol@f1+2)^0,f,c
  2641  0012AC  1E1B               	comf	(___fltol@f1+1)^0,f,c
  2642  0012AE  6C1A               	negf	___fltol@f1^0,c
  2643  0012B0  0E00               	movlw	0
  2644  0012B2  221B               	addwfc	(___fltol@f1+1)^0,f,c
  2645  0012B4  221C               	addwfc	(___fltol@f1+2)^0,f,c
  2646  0012B6  221D               	addwfc	(___fltol@f1+3)^0,f,c
  2647  0012B8                     i2l2136:
  2648  0012B8  C01A  F01A         	movff	___fltol@f1,?___fltol
  2649  0012BC  C01B  F01B         	movff	___fltol@f1+1,?___fltol+1
  2650  0012C0  C01C  F01C         	movff	___fltol@f1+2,?___fltol+2
  2651  0012C4  C01D  F01D         	movff	___fltol@f1+3,?___fltol+3
  2652  0012C8                     i2l528:
  2653  0012C8  0012               	return		;funcret
  2654  0012CA                     __end_of___fltol:
  2655                           	callstack 0
  2656                           
  2657 ;; *************** function ___flmul *****************
  2658 ;; Defined at:
  2659 ;;		line 8 in file "C:\Program Files\Microchip\xc8\v2.32\pic\sources\c90\common\sprcmul.c"
  2660 ;; Parameters:    Size  Location     Type
  2661 ;;  b               4    0[COMRAM] long 
  2662 ;;  a               4    4[COMRAM] long 
  2663 ;; Auto vars:     Size  Location     Type
  2664 ;;  prod            4   19[COMRAM] struct .
  2665 ;;  grs             4   13[COMRAM] unsigned long 
  2666 ;;  temp            2   23[COMRAM] struct .
  2667 ;;  bexp            1   18[COMRAM] unsigned char 
  2668 ;;  aexp            1   17[COMRAM] unsigned char 
  2669 ;;  sign            1   12[COMRAM] unsigned char 
  2670 ;; Return value:  Size  Location     Type
  2671 ;;                  4    0[COMRAM] unsigned char 
  2672 ;; Registers used:
  2673 ;;		wreg, status,2, status,0, prodl, prodh
  2674 ;; Tracked objects:
  2675 ;;		On entry : 0/0
  2676 ;;		On exit  : 0/0
  2677 ;;		Unchanged: 0/0
  2678 ;; Data sizes:     COMRAM   BANK0   BANK1   BANK2
  2679 ;;      Params:         8       0       0       0
  2680 ;;      Locals:        13       0       0       0
  2681 ;;      Temps:          4       0       0       0
  2682 ;;      Totals:        25       0       0       0
  2683 ;;Total ram usage:       25 bytes
  2684 ;; Hardware stack levels used: 1
  2685 ;; This function calls:
  2686 ;;		Nothing
  2687 ;; This function is called by:
  2688 ;;		_ISR
  2689 ;;		_motorOutMSB
  2690 ;;		_motorOutLSB
  2691 ;;		_PID
  2692 ;; This function uses a non-reentrant model
  2693 ;;
  2694                           
  2695                           	psect	text17
  2696  000816                     __ptext17:
  2697                           	callstack 0
  2698  000816                     ___flmul:
  2699                           	callstack 26
  2700  000816  5004               	movf	(___flmul@b+3)^0,w,c
  2701  000818  0B80               	andlw	128
  2702  00081A  6E0D               	movwf	___flmul@sign^0,c
  2703  00081C  5004               	movf	(___flmul@b+3)^0,w,c
  2704  00081E  2404               	addwf	(___flmul@b+3)^0,w,c
  2705  000820  6E13               	movwf	___flmul@bexp^0,c
  2706  000822  AE03               	btfss	(___flmul@b+2)^0,7,c
  2707  000824  EF16  F004         	goto	i2u153_41
  2708  000828  EF18  F004         	goto	i2u153_40
  2709  00082C                     i2u153_41:
  2710  00082C  EF19  F004         	goto	i2l1950
  2711  000830                     i2u153_40:
  2712  000830  8013               	bsf	___flmul@bexp^0,0,c
  2713  000832                     i2l1950:
  2714  000832  5013               	movf	___flmul@bexp^0,w,c
  2715  000834  B4D8               	btfsc	status,2,c
  2716  000836  EF1F  F004         	goto	i2u154_41
  2717  00083A  EF21  F004         	goto	i2u154_40
  2718  00083E                     i2u154_41:
  2719  00083E  EF34  F004         	goto	i2l1958
  2720  000842                     i2u154_40:
  2721  000842  2813               	incf	___flmul@bexp^0,w,c
  2722  000844  A4D8               	btfss	status,2,c
  2723  000846  EF27  F004         	goto	i2u155_41
  2724  00084A  EF29  F004         	goto	i2u155_40
  2725  00084E                     i2u155_41:
  2726  00084E  EF31  F004         	goto	i2l1956
  2727  000852                     i2u155_40:
  2728  000852  0E00               	movlw	0
  2729  000854  6E01               	movwf	___flmul@b^0,c
  2730  000856  0E00               	movlw	0
  2731  000858  6E02               	movwf	(___flmul@b+1)^0,c
  2732  00085A  0E00               	movlw	0
  2733  00085C  6E03               	movwf	(___flmul@b+2)^0,c
  2734  00085E  0E00               	movlw	0
  2735  000860  6E04               	movwf	(___flmul@b+3)^0,c
  2736  000862                     i2l1956:
  2737  000862  8E03               	bsf	(___flmul@b+2)^0,7,c
  2738  000864  EF3C  F004         	goto	i2l1960
  2739  000868                     i2l1958:
  2740  000868  0E00               	movlw	0
  2741  00086A  6E01               	movwf	___flmul@b^0,c
  2742  00086C  0E00               	movlw	0
  2743  00086E  6E02               	movwf	(___flmul@b+1)^0,c
  2744  000870  0E00               	movlw	0
  2745  000872  6E03               	movwf	(___flmul@b+2)^0,c
  2746  000874  0E00               	movlw	0
  2747  000876  6E04               	movwf	(___flmul@b+3)^0,c
  2748  000878                     i2l1960:
  2749  000878  5008               	movf	(___flmul@a+3)^0,w,c
  2750  00087A  0B80               	andlw	128
  2751  00087C  1A0D               	xorwf	___flmul@sign^0,f,c
  2752  00087E  5008               	movf	(___flmul@a+3)^0,w,c
  2753  000880  2408               	addwf	(___flmul@a+3)^0,w,c
  2754  000882  6E12               	movwf	___flmul@aexp^0,c
  2755  000884  AE07               	btfss	(___flmul@a+2)^0,7,c
  2756  000886  EF47  F004         	goto	i2u156_41
  2757  00088A  EF49  F004         	goto	i2u156_40
  2758  00088E                     i2u156_41:
  2759  00088E  EF4A  F004         	goto	i2l1968
  2760  000892                     i2u156_40:
  2761  000892  8012               	bsf	___flmul@aexp^0,0,c
  2762  000894                     i2l1968:
  2763  000894  5012               	movf	___flmul@aexp^0,w,c
  2764  000896  B4D8               	btfsc	status,2,c
  2765  000898  EF50  F004         	goto	i2u157_41
  2766  00089C  EF52  F004         	goto	i2u157_40
  2767  0008A0                     i2u157_41:
  2768  0008A0  EF65  F004         	goto	i2l1976
  2769  0008A4                     i2u157_40:
  2770  0008A4  2812               	incf	___flmul@aexp^0,w,c
  2771  0008A6  A4D8               	btfss	status,2,c
  2772  0008A8  EF58  F004         	goto	i2u158_41
  2773  0008AC  EF5A  F004         	goto	i2u158_40
  2774  0008B0                     i2u158_41:
  2775  0008B0  EF62  F004         	goto	i2l1974
  2776  0008B4                     i2u158_40:
  2777  0008B4  0E00               	movlw	0
  2778  0008B6  6E05               	movwf	___flmul@a^0,c
  2779  0008B8  0E00               	movlw	0
  2780  0008BA  6E06               	movwf	(___flmul@a+1)^0,c
  2781  0008BC  0E00               	movlw	0
  2782  0008BE  6E07               	movwf	(___flmul@a+2)^0,c
  2783  0008C0  0E00               	movlw	0
  2784  0008C2  6E08               	movwf	(___flmul@a+3)^0,c
  2785  0008C4                     i2l1974:
  2786  0008C4  8E07               	bsf	(___flmul@a+2)^0,7,c
  2787  0008C6  EF6D  F004         	goto	i2l841
  2788  0008CA                     i2l1976:
  2789  0008CA  0E00               	movlw	0
  2790  0008CC  6E05               	movwf	___flmul@a^0,c
  2791  0008CE  0E00               	movlw	0
  2792  0008D0  6E06               	movwf	(___flmul@a+1)^0,c
  2793  0008D2  0E00               	movlw	0
  2794  0008D4  6E07               	movwf	(___flmul@a+2)^0,c
  2795  0008D6  0E00               	movlw	0
  2796  0008D8  6E08               	movwf	(___flmul@a+3)^0,c
  2797  0008DA                     i2l841:
  2798  0008DA  5012               	movf	___flmul@aexp^0,w,c
  2799  0008DC  B4D8               	btfsc	status,2,c
  2800  0008DE  EF73  F004         	goto	i2u159_41
  2801  0008E2  EF75  F004         	goto	i2u159_40
  2802  0008E6                     i2u159_41:
  2803  0008E6  EF7D  F004         	goto	i2l1980
  2804  0008EA                     i2u159_40:
  2805  0008EA  5013               	movf	___flmul@bexp^0,w,c
  2806  0008EC  A4D8               	btfss	status,2,c
  2807  0008EE  EF7B  F004         	goto	i2u160_41
  2808  0008F2  EF7D  F004         	goto	i2u160_40
  2809  0008F6                     i2u160_41:
  2810  0008F6  EF87  F004         	goto	i2l1984
  2811  0008FA                     i2u160_40:
  2812  0008FA                     i2l1980:
  2813  0008FA  0E00               	movlw	0
  2814  0008FC  6E01               	movwf	?___flmul^0,c
  2815  0008FE  0E00               	movlw	0
  2816  000900  6E02               	movwf	(?___flmul+1)^0,c
  2817  000902  0E00               	movlw	0
  2818  000904  6E03               	movwf	(?___flmul+2)^0,c
  2819  000906  0E00               	movlw	0
  2820  000908  6E04               	movwf	(?___flmul+3)^0,c
  2821  00090A  EF1F  F006         	goto	i2l845
  2822  00090E                     i2l1984:
  2823  00090E  5007               	movf	(___flmul@a+2)^0,w,c
  2824  000910  0201               	mulwf	___flmul@b^0,c
  2825  000912  CFF3 F018          	movff	prodl,___flmul@temp
  2826  000916  CFF4 F019          	movff	prodh,___flmul@temp+1
  2827  00091A  5018               	movf	___flmul@temp^0,w,c
  2828  00091C  6E0E               	movwf	___flmul@grs^0,c
  2829  00091E  6A0F               	clrf	(___flmul@grs+1)^0,c
  2830  000920  6A10               	clrf	(___flmul@grs+2)^0,c
  2831  000922  6A11               	clrf	(___flmul@grs+3)^0,c
  2832  000924  5019               	movf	(___flmul@temp+1)^0,w,c
  2833  000926  6E14               	movwf	___flmul@prod^0,c
  2834  000928  6A15               	clrf	(___flmul@prod+1)^0,c
  2835  00092A  6A16               	clrf	(___flmul@prod+2)^0,c
  2836  00092C  6A17               	clrf	(___flmul@prod+3)^0,c
  2837  00092E  5006               	movf	(___flmul@a+1)^0,w,c
  2838  000930  0202               	mulwf	(___flmul@b+1)^0,c
  2839  000932  CFF3 F018          	movff	prodl,___flmul@temp
  2840  000936  CFF4 F019          	movff	prodh,___flmul@temp+1
  2841  00093A  5018               	movf	___flmul@temp^0,w,c
  2842  00093C  260E               	addwf	___flmul@grs^0,f,c
  2843  00093E  0E00               	movlw	0
  2844  000940  220F               	addwfc	(___flmul@grs+1)^0,f,c
  2845  000942  2210               	addwfc	(___flmul@grs+2)^0,f,c
  2846  000944  2211               	addwfc	(___flmul@grs+3)^0,f,c
  2847  000946  5019               	movf	(___flmul@temp+1)^0,w,c
  2848  000948  2614               	addwf	___flmul@prod^0,f,c
  2849  00094A  0E00               	movlw	0
  2850  00094C  2215               	addwfc	(___flmul@prod+1)^0,f,c
  2851  00094E  2216               	addwfc	(___flmul@prod+2)^0,f,c
  2852  000950  2217               	addwfc	(___flmul@prod+3)^0,f,c
  2853  000952  5005               	movf	___flmul@a^0,w,c
  2854  000954  0203               	mulwf	(___flmul@b+2)^0,c
  2855  000956  CFF3 F018          	movff	prodl,___flmul@temp
  2856  00095A  CFF4 F019          	movff	prodh,___flmul@temp+1
  2857  00095E  5018               	movf	___flmul@temp^0,w,c
  2858  000960  260E               	addwf	___flmul@grs^0,f,c
  2859  000962  0E00               	movlw	0
  2860  000964  220F               	addwfc	(___flmul@grs+1)^0,f,c
  2861  000966  2210               	addwfc	(___flmul@grs+2)^0,f,c
  2862  000968  2211               	addwfc	(___flmul@grs+3)^0,f,c
  2863  00096A  5019               	movf	(___flmul@temp+1)^0,w,c
  2864  00096C  2614               	addwf	___flmul@prod^0,f,c
  2865  00096E  0E00               	movlw	0
  2866  000970  2215               	addwfc	(___flmul@prod+1)^0,f,c
  2867  000972  2216               	addwfc	(___flmul@prod+2)^0,f,c
  2868  000974  2217               	addwfc	(___flmul@prod+3)^0,f,c
  2869  000976  C010  F011         	movff	___flmul@grs+2,___flmul@grs+3
  2870  00097A  C00F  F010         	movff	___flmul@grs+1,___flmul@grs+2
  2871  00097E  C00E  F00F         	movff	___flmul@grs,___flmul@grs+1
  2872  000982  6A0E               	clrf	___flmul@grs^0,c
  2873  000984  5005               	movf	___flmul@a^0,w,c
  2874  000986  0202               	mulwf	(___flmul@b+1)^0,c
  2875  000988  CFF3 F018          	movff	prodl,___flmul@temp
  2876  00098C  CFF4 F019          	movff	prodh,___flmul@temp+1
  2877  000990  5018               	movf	___flmul@temp^0,w,c
  2878  000992  260E               	addwf	___flmul@grs^0,f,c
  2879  000994  5019               	movf	(___flmul@temp+1)^0,w,c
  2880  000996  220F               	addwfc	(___flmul@grs+1)^0,f,c
  2881  000998  0E00               	movlw	0
  2882  00099A  2210               	addwfc	(___flmul@grs+2)^0,f,c
  2883  00099C  0E00               	movlw	0
  2884  00099E  2211               	addwfc	(___flmul@grs+3)^0,f,c
  2885  0009A0  5006               	movf	(___flmul@a+1)^0,w,c
  2886  0009A2  0201               	mulwf	___flmul@b^0,c
  2887  0009A4  CFF3 F018          	movff	prodl,___flmul@temp
  2888  0009A8  CFF4 F019          	movff	prodh,___flmul@temp+1
  2889  0009AC  5018               	movf	___flmul@temp^0,w,c
  2890  0009AE  260E               	addwf	___flmul@grs^0,f,c
  2891  0009B0  5019               	movf	(___flmul@temp+1)^0,w,c
  2892  0009B2  220F               	addwfc	(___flmul@grs+1)^0,f,c
  2893  0009B4  0E00               	movlw	0
  2894  0009B6  2210               	addwfc	(___flmul@grs+2)^0,f,c
  2895  0009B8  0E00               	movlw	0
  2896  0009BA  2211               	addwfc	(___flmul@grs+3)^0,f,c
  2897  0009BC  C010  F011         	movff	___flmul@grs+2,___flmul@grs+3
  2898  0009C0  C00F  F010         	movff	___flmul@grs+1,___flmul@grs+2
  2899  0009C4  C00E  F00F         	movff	___flmul@grs,___flmul@grs+1
  2900  0009C8  6A0E               	clrf	___flmul@grs^0,c
  2901  0009CA  5005               	movf	___flmul@a^0,w,c
  2902  0009CC  0201               	mulwf	___flmul@b^0,c
  2903  0009CE  CFF3 F018          	movff	prodl,___flmul@temp
  2904  0009D2  CFF4 F019          	movff	prodh,___flmul@temp+1
  2905  0009D6  5018               	movf	___flmul@temp^0,w,c
  2906  0009D8  260E               	addwf	___flmul@grs^0,f,c
  2907  0009DA  5019               	movf	(___flmul@temp+1)^0,w,c
  2908  0009DC  220F               	addwfc	(___flmul@grs+1)^0,f,c
  2909  0009DE  0E00               	movlw	0
  2910  0009E0  2210               	addwfc	(___flmul@grs+2)^0,f,c
  2911  0009E2  0E00               	movlw	0
  2912  0009E4  2211               	addwfc	(___flmul@grs+3)^0,f,c
  2913  0009E6  5007               	movf	(___flmul@a+2)^0,w,c
  2914  0009E8  0202               	mulwf	(___flmul@b+1)^0,c
  2915  0009EA  CFF3 F018          	movff	prodl,___flmul@temp
  2916  0009EE  CFF4 F019          	movff	prodh,___flmul@temp+1
  2917  0009F2  5018               	movf	___flmul@temp^0,w,c
  2918  0009F4  2614               	addwf	___flmul@prod^0,f,c
  2919  0009F6  5019               	movf	(___flmul@temp+1)^0,w,c
  2920  0009F8  2215               	addwfc	(___flmul@prod+1)^0,f,c
  2921  0009FA  0E00               	movlw	0
  2922  0009FC  2216               	addwfc	(___flmul@prod+2)^0,f,c
  2923  0009FE  0E00               	movlw	0
  2924  000A00  2217               	addwfc	(___flmul@prod+3)^0,f,c
  2925  000A02  5006               	movf	(___flmul@a+1)^0,w,c
  2926  000A04  0203               	mulwf	(___flmul@b+2)^0,c
  2927  000A06  CFF3 F018          	movff	prodl,___flmul@temp
  2928  000A0A  CFF4 F019          	movff	prodh,___flmul@temp+1
  2929  000A0E  5018               	movf	___flmul@temp^0,w,c
  2930  000A10  2614               	addwf	___flmul@prod^0,f,c
  2931  000A12  5019               	movf	(___flmul@temp+1)^0,w,c
  2932  000A14  2215               	addwfc	(___flmul@prod+1)^0,f,c
  2933  000A16  0E00               	movlw	0
  2934  000A18  2216               	addwfc	(___flmul@prod+2)^0,f,c
  2935  000A1A  0E00               	movlw	0
  2936  000A1C  2217               	addwfc	(___flmul@prod+3)^0,f,c
  2937  000A1E  5007               	movf	(___flmul@a+2)^0,w,c
  2938  000A20  0203               	mulwf	(___flmul@b+2)^0,c
  2939  000A22  CFF3 F018          	movff	prodl,___flmul@temp
  2940  000A26  CFF4 F019          	movff	prodh,___flmul@temp+1
  2941  000A2A  5018               	movf	___flmul@temp^0,w,c
  2942  000A2C  6E09               	movwf	??___flmul^0,c
  2943  000A2E  5019               	movf	(___flmul@temp+1)^0,w,c
  2944  000A30  6E0A               	movwf	(??___flmul+1)^0,c
  2945  000A32  6A0B               	clrf	(??___flmul+2)^0,c
  2946  000A34  6A0C               	clrf	(??___flmul+3)^0,c
  2947  000A36  C00B  F00C         	movff	??___flmul+2,??___flmul+3
  2948  000A3A  C00A  F00B         	movff	??___flmul+1,??___flmul+2
  2949  000A3E  C009  F00A         	movff	??___flmul,??___flmul+1
  2950  000A42  6A09               	clrf	??___flmul^0,c
  2951  000A44  5009               	movf	??___flmul^0,w,c
  2952  000A46  2614               	addwf	___flmul@prod^0,f,c
  2953  000A48  500A               	movf	(??___flmul+1)^0,w,c
  2954  000A4A  2215               	addwfc	(___flmul@prod+1)^0,f,c
  2955  000A4C  500B               	movf	(??___flmul+2)^0,w,c
  2956  000A4E  2216               	addwfc	(___flmul@prod+2)^0,f,c
  2957  000A50  500C               	movf	(??___flmul+3)^0,w,c
  2958  000A52  2217               	addwfc	(___flmul@prod+3)^0,f,c
  2959  000A54  C00E  F009         	movff	___flmul@grs,??___flmul
  2960  000A58  C00F  F00A         	movff	___flmul@grs+1,??___flmul+1
  2961  000A5C  C010  F00B         	movff	___flmul@grs+2,??___flmul+2
  2962  000A60  C011  F00C         	movff	___flmul@grs+3,??___flmul+3
  2963  000A64  0E19               	movlw	25
  2964  000A66  EF3A  F005         	goto	i2u161_40
  2965  000A6A                     i2u161_45:
  2966  000A6A  90D8               	bcf	status,0,c
  2967  000A6C  320C               	rrcf	(??___flmul+3)^0,f,c
  2968  000A6E  320B               	rrcf	(??___flmul+2)^0,f,c
  2969  000A70  320A               	rrcf	(??___flmul+1)^0,f,c
  2970  000A72  3209               	rrcf	??___flmul^0,f,c
  2971  000A74                     i2u161_40:
  2972  000A74  2EE8               	decfsz	wreg,f,c
  2973  000A76  EF35  F005         	goto	i2u161_45
  2974  000A7A  5009               	movf	??___flmul^0,w,c
  2975  000A7C  2614               	addwf	___flmul@prod^0,f,c
  2976  000A7E  500A               	movf	(??___flmul+1)^0,w,c
  2977  000A80  2215               	addwfc	(___flmul@prod+1)^0,f,c
  2978  000A82  500B               	movf	(??___flmul+2)^0,w,c
  2979  000A84  2216               	addwfc	(___flmul@prod+2)^0,f,c
  2980  000A86  500C               	movf	(??___flmul+3)^0,w,c
  2981  000A88  2217               	addwfc	(___flmul@prod+3)^0,f,c
  2982  000A8A  C010  F011         	movff	___flmul@grs+2,___flmul@grs+3
  2983  000A8E  C00F  F010         	movff	___flmul@grs+1,___flmul@grs+2
  2984  000A92  C00E  F00F         	movff	___flmul@grs,___flmul@grs+1
  2985  000A96  6A0E               	clrf	___flmul@grs^0,c
  2986  000A98  5012               	movf	___flmul@aexp^0,w,c
  2987  000A9A  C013  F009         	movff	___flmul@bexp,??___flmul
  2988  000A9E  6A0A               	clrf	(??___flmul+1)^0,c
  2989  000AA0  2609               	addwf	??___flmul^0,f,c
  2990  000AA2  0E00               	movlw	0
  2991  000AA4  220A               	addwfc	(??___flmul+1)^0,f,c
  2992  000AA6  0E82               	movlw	130
  2993  000AA8  2409               	addwf	??___flmul^0,w,c
  2994  000AAA  6E18               	movwf	___flmul@temp^0,c
  2995  000AAC  0EFF               	movlw	255
  2996  000AAE  200A               	addwfc	(??___flmul+1)^0,w,c
  2997  000AB0  6E19               	movwf	(___flmul@temp+1)^0,c
  2998  000AB2  EF70  F005         	goto	i2l2032
  2999  000AB6                     i2l2026:
  3000  000AB6  90D8               	bcf	status,0,c
  3001  000AB8  3614               	rlcf	___flmul@prod^0,f,c
  3002  000ABA  3615               	rlcf	(___flmul@prod+1)^0,f,c
  3003  000ABC  3616               	rlcf	(___flmul@prod+2)^0,f,c
  3004  000ABE  3617               	rlcf	(___flmul@prod+3)^0,f,c
  3005  000AC0  AE11               	btfss	(___flmul@grs+3)^0,7,c
  3006  000AC2  EF65  F005         	goto	i2u162_41
  3007  000AC6  EF67  F005         	goto	i2u162_40
  3008  000ACA                     i2u162_41:
  3009  000ACA  EF68  F005         	goto	i2l848
  3010  000ACE                     i2u162_40:
  3011  000ACE  8014               	bsf	___flmul@prod^0,0,c
  3012  000AD0                     i2l848:
  3013  000AD0  90D8               	bcf	status,0,c
  3014  000AD2  360E               	rlcf	___flmul@grs^0,f,c
  3015  000AD4  360F               	rlcf	(___flmul@grs+1)^0,f,c
  3016  000AD6  3610               	rlcf	(___flmul@grs+2)^0,f,c
  3017  000AD8  3611               	rlcf	(___flmul@grs+3)^0,f,c
  3018  000ADA  0618               	decf	___flmul@temp^0,f,c
  3019  000ADC  A0D8               	btfss	status,0,c
  3020  000ADE  0619               	decf	(___flmul@temp+1)^0,f,c
  3021  000AE0                     i2l2032:
  3022  000AE0  AE16               	btfss	(___flmul@prod+2)^0,7,c
  3023  000AE2  EF75  F005         	goto	i2u163_41
  3024  000AE6  EF77  F005         	goto	i2u163_40
  3025  000AEA                     i2u163_41:
  3026  000AEA  EF5B  F005         	goto	i2l2026
  3027  000AEE                     i2u163_40:
  3028  000AEE  0E00               	movlw	0
  3029  000AF0  6E12               	movwf	___flmul@aexp^0,c
  3030  000AF2  AE11               	btfss	(___flmul@grs+3)^0,7,c
  3031  000AF4  EF7E  F005         	goto	i2u164_41
  3032  000AF8  EF80  F005         	goto	i2u164_40
  3033  000AFC                     i2u164_41:
  3034  000AFC  EFA4  F005         	goto	i2l850
  3035  000B00                     i2u164_40:
  3036  000B00  0EFF               	movlw	255
  3037  000B02  140E               	andwf	___flmul@grs^0,w,c
  3038  000B04  6E09               	movwf	??___flmul^0,c
  3039  000B06  0EFF               	movlw	255
  3040  000B08  140F               	andwf	(___flmul@grs+1)^0,w,c
  3041  000B0A  6E0A               	movwf	(??___flmul+1)^0,c
  3042  000B0C  0EFF               	movlw	255
  3043  000B0E  1410               	andwf	(___flmul@grs+2)^0,w,c
  3044  000B10  6E0B               	movwf	(??___flmul+2)^0,c
  3045  000B12  0E7F               	movlw	127
  3046  000B14  1411               	andwf	(___flmul@grs+3)^0,w,c
  3047  000B16  6E0C               	movwf	(??___flmul+3)^0,c
  3048  000B18  5009               	movf	??___flmul^0,w,c
  3049  000B1A  100A               	iorwf	(??___flmul+1)^0,w,c
  3050  000B1C  100B               	iorwf	(??___flmul+2)^0,w,c
  3051  000B1E  100C               	iorwf	(??___flmul+3)^0,w,c
  3052  000B20  B4D8               	btfsc	status,2,c
  3053  000B22  EF95  F005         	goto	i2u165_41
  3054  000B26  EF97  F005         	goto	i2u165_40
  3055  000B2A                     i2u165_41:
  3056  000B2A  EF9B  F005         	goto	i2l851
  3057  000B2E                     i2u165_40:
  3058  000B2E                     i2l2040:
  3059  000B2E  0E01               	movlw	1
  3060  000B30  6E12               	movwf	___flmul@aexp^0,c
  3061  000B32  EFA4  F005         	goto	i2l850
  3062  000B36                     i2l851:
  3063  000B36  A014               	btfss	___flmul@prod^0,0,c
  3064  000B38  EFA0  F005         	goto	i2u166_41
  3065  000B3C  EFA2  F005         	goto	i2u166_40
  3066  000B40                     i2u166_41:
  3067  000B40  EFA4  F005         	goto	i2l850
  3068  000B44                     i2u166_40:
  3069  000B44  EF97  F005         	goto	i2l2040
  3070  000B48                     i2l850:
  3071  000B48  5012               	movf	___flmul@aexp^0,w,c
  3072  000B4A  B4D8               	btfsc	status,2,c
  3073  000B4C  EFAA  F005         	goto	i2u167_41
  3074  000B50  EFAC  F005         	goto	i2u167_40
  3075  000B54                     i2u167_41:
  3076  000B54  EFD0  F005         	goto	i2l2052
  3077  000B58                     i2u167_40:
  3078  000B58  0E01               	movlw	1
  3079  000B5A  2614               	addwf	___flmul@prod^0,f,c
  3080  000B5C  0E00               	movlw	0
  3081  000B5E  2215               	addwfc	(___flmul@prod+1)^0,f,c
  3082  000B60  2216               	addwfc	(___flmul@prod+2)^0,f,c
  3083  000B62  2217               	addwfc	(___flmul@prod+3)^0,f,c
  3084  000B64  A017               	btfss	(___flmul@prod+3)^0,0,c
  3085  000B66  EFB7  F005         	goto	i2u168_41
  3086  000B6A  EFB9  F005         	goto	i2u168_40
  3087  000B6E                     i2u168_41:
  3088  000B6E  EFD0  F005         	goto	i2l2052
  3089  000B72                     i2u168_40:
  3090  000B72  C014  F009         	movff	___flmul@prod,??___flmul
  3091  000B76  C015  F00A         	movff	___flmul@prod+1,??___flmul+1
  3092  000B7A  C016  F00B         	movff	___flmul@prod+2,??___flmul+2
  3093  000B7E  C017  F00C         	movff	___flmul@prod+3,??___flmul+3
  3094  000B82  340C               	rlcf	(??___flmul+3)^0,w,c
  3095  000B84  320C               	rrcf	(??___flmul+3)^0,f,c
  3096  000B86  320B               	rrcf	(??___flmul+2)^0,f,c
  3097  000B88  320A               	rrcf	(??___flmul+1)^0,f,c
  3098  000B8A  3209               	rrcf	??___flmul^0,f,c
  3099  000B8C  C009  F014         	movff	??___flmul,___flmul@prod
  3100  000B90  C00A  F015         	movff	??___flmul+1,___flmul@prod+1
  3101  000B94  C00B  F016         	movff	??___flmul+2,___flmul@prod+2
  3102  000B98  C00C  F017         	movff	??___flmul+3,___flmul@prod+3
  3103  000B9C  4A18               	infsnz	___flmul@temp^0,f,c
  3104  000B9E  2A19               	incf	(___flmul@temp+1)^0,f,c
  3105  000BA0                     i2l2052:
  3106  000BA0  BE19               	btfsc	(___flmul@temp+1)^0,7,c
  3107  000BA2  EFDB  F005         	goto	i2u169_41
  3108  000BA6  5019               	movf	(___flmul@temp+1)^0,w,c
  3109  000BA8  E108               	bnz	i2u169_40
  3110  000BAA  2818               	incf	___flmul@temp^0,w,c
  3111  000BAC  A0D8               	btfss	status,0,c
  3112  000BAE  EFDB  F005         	goto	i2u169_41
  3113  000BB2  EFDD  F005         	goto	i2u169_40
  3114  000BB6                     i2u169_41:
  3115  000BB6  EFE7  F005         	goto	i2l2056
  3116  000BBA                     i2u169_40:
  3117  000BBA  0E00               	movlw	0
  3118  000BBC  6E14               	movwf	___flmul@prod^0,c
  3119  000BBE  0E00               	movlw	0
  3120  000BC0  6E15               	movwf	(___flmul@prod+1)^0,c
  3121  000BC2  0E80               	movlw	128
  3122  000BC4  6E16               	movwf	(___flmul@prod+2)^0,c
  3123  000BC6  0E7F               	movlw	127
  3124  000BC8  6E17               	movwf	(___flmul@prod+3)^0,c
  3125  000BCA  EF15  F006         	goto	i2l2068
  3126  000BCE                     i2l2056:
  3127  000BCE  BE19               	btfsc	(___flmul@temp+1)^0,7,c
  3128  000BD0  EFF4  F005         	goto	i2u170_40
  3129  000BD4  5019               	movf	(___flmul@temp+1)^0,w,c
  3130  000BD6  E106               	bnz	i2u170_41
  3131  000BD8  0418               	decf	___flmul@temp^0,w,c
  3132  000BDA  B0D8               	btfsc	status,0,c
  3133  000BDC  EFF2  F005         	goto	i2u170_41
  3134  000BE0  EFF4  F005         	goto	i2u170_40
  3135  000BE4                     i2u170_41:
  3136  000BE4  EF00  F006         	goto	i2l858
  3137  000BE8                     i2u170_40:
  3138  000BE8  0E00               	movlw	0
  3139  000BEA  6E14               	movwf	___flmul@prod^0,c
  3140  000BEC  0E00               	movlw	0
  3141  000BEE  6E15               	movwf	(___flmul@prod+1)^0,c
  3142  000BF0  0E00               	movlw	0
  3143  000BF2  6E16               	movwf	(___flmul@prod+2)^0,c
  3144  000BF4  0E00               	movlw	0
  3145  000BF6  6E17               	movwf	(___flmul@prod+3)^0,c
  3146  000BF8  0E00               	movlw	0
  3147  000BFA  6E0D               	movwf	___flmul@sign^0,c
  3148  000BFC  EF15  F006         	goto	i2l2068
  3149  000C00                     i2l858:
  3150  000C00  C018  F013         	movff	___flmul@temp,___flmul@bexp
  3151  000C04  0EFF               	movlw	255
  3152  000C06  1614               	andwf	___flmul@prod^0,f,c
  3153  000C08  0EFF               	movlw	255
  3154  000C0A  1615               	andwf	(___flmul@prod+1)^0,f,c
  3155  000C0C  0E7F               	movlw	127
  3156  000C0E  1616               	andwf	(___flmul@prod+2)^0,f,c
  3157  000C10  0E00               	movlw	0
  3158  000C12  1617               	andwf	(___flmul@prod+3)^0,f,c
  3159  000C14  A013               	btfss	___flmul@bexp^0,0,c
  3160  000C16  EF0F  F006         	goto	i2u171_41
  3161  000C1A  EF11  F006         	goto	i2u171_40
  3162  000C1E                     i2u171_41:
  3163  000C1E  EF12  F006         	goto	i2l2066
  3164  000C22                     i2u171_40:
  3165  000C22  8E16               	bsf	(___flmul@prod+2)^0,7,c
  3166  000C24                     i2l2066:
  3167  000C24  90D8               	bcf	status,0,c
  3168  000C26  3013               	rrcf	___flmul@bexp^0,w,c
  3169  000C28  6E17               	movwf	(___flmul@prod+3)^0,c
  3170  000C2A                     i2l2068:
  3171  000C2A  500D               	movf	___flmul@sign^0,w,c
  3172  000C2C  1217               	iorwf	(___flmul@prod+3)^0,f,c
  3173  000C2E  C014  F001         	movff	___flmul@prod,?___flmul
  3174  000C32  C015  F002         	movff	___flmul@prod+1,?___flmul+1
  3175  000C36  C016  F003         	movff	___flmul@prod+2,?___flmul+2
  3176  000C3A  C017  F004         	movff	___flmul@prod+3,?___flmul+3
  3177  000C3E                     i2l845:
  3178  000C3E  0012               	return		;funcret
  3179  000C40                     __end_of___flmul:
  3180                           	callstack 0
  3181                           
  3182 ;; *************** function ___flge *****************
  3183 ;; Defined at:
  3184 ;;		line 4 in file "C:\Program Files\Microchip\xc8\v2.32\pic\sources\c90\common\flge.c"
  3185 ;; Parameters:    Size  Location     Type
  3186 ;;  ff1             4    0[COMRAM] unsigned char 
  3187 ;;  ff2             4    4[COMRAM] unsigned char 
  3188 ;; Auto vars:     Size  Location     Type
  3189 ;;		None
  3190 ;; Return value:  Size  Location     Type
  3191 ;;		None               void
  3192 ;; Registers used:
  3193 ;;		wreg, status,2, status,0
  3194 ;; Tracked objects:
  3195 ;;		On entry : 0/0
  3196 ;;		On exit  : 0/0
  3197 ;;		Unchanged: 0/0
  3198 ;; Data sizes:     COMRAM   BANK0   BANK1   BANK2
  3199 ;;      Params:         8       0       0       0
  3200 ;;      Locals:         0       0       0       0
  3201 ;;      Temps:          4       0       0       0
  3202 ;;      Totals:        12       0       0       0
  3203 ;;Total ram usage:       12 bytes
  3204 ;; Hardware stack levels used: 1
  3205 ;; This function calls:
  3206 ;;		Nothing
  3207 ;; This function is called by:
  3208 ;;		_medianF
  3209 ;;		_PID
  3210 ;; This function uses a non-reentrant model
  3211 ;;
  3212                           
  3213                           	psect	text18
  3214  0012CA                     __ptext18:
  3215                           	callstack 0
  3216  0012CA                     ___flge:
  3217                           	callstack 26
  3218  0012CA  0E00               	movlw	0
  3219  0012CC  1401               	andwf	___flge@ff1^0,w,c
  3220  0012CE  6E09               	movwf	??___flge^0,c
  3221  0012D0  0E00               	movlw	0
  3222  0012D2  1402               	andwf	(___flge@ff1+1)^0,w,c
  3223  0012D4  6E0A               	movwf	(??___flge+1)^0,c
  3224  0012D6  0E80               	movlw	128
  3225  0012D8  1403               	andwf	(___flge@ff1+2)^0,w,c
  3226  0012DA  6E0B               	movwf	(??___flge+2)^0,c
  3227  0012DC  0E7F               	movlw	127
  3228  0012DE  1404               	andwf	(___flge@ff1+3)^0,w,c
  3229  0012E0  6E0C               	movwf	(??___flge+3)^0,c
  3230  0012E2  5009               	movf	??___flge^0,w,c
  3231  0012E4  100A               	iorwf	(??___flge+1)^0,w,c
  3232  0012E6  100B               	iorwf	(??___flge+2)^0,w,c
  3233  0012E8  100C               	iorwf	(??___flge+3)^0,w,c
  3234  0012EA  A4D8               	btfss	status,2,c
  3235  0012EC  EF7A  F009         	goto	i2u172_41
  3236  0012F0  EF7C  F009         	goto	i2u172_40
  3237  0012F4                     i2u172_41:
  3238  0012F4  EF84  F009         	goto	i2l2078
  3239  0012F8                     i2u172_40:
  3240  0012F8  0E00               	movlw	0
  3241  0012FA  6E01               	movwf	___flge@ff1^0,c
  3242  0012FC  0E00               	movlw	0
  3243  0012FE  6E02               	movwf	(___flge@ff1+1)^0,c
  3244  001300  0E00               	movlw	0
  3245  001302  6E03               	movwf	(___flge@ff1+2)^0,c
  3246  001304  0E00               	movlw	0
  3247  001306  6E04               	movwf	(___flge@ff1+3)^0,c
  3248  001308                     i2l2078:
  3249  001308  0E00               	movlw	0
  3250  00130A  1405               	andwf	___flge@ff2^0,w,c
  3251  00130C  6E09               	movwf	??___flge^0,c
  3252  00130E  0E00               	movlw	0
  3253  001310  1406               	andwf	(___flge@ff2+1)^0,w,c
  3254  001312  6E0A               	movwf	(??___flge+1)^0,c
  3255  001314  0E80               	movlw	128
  3256  001316  1407               	andwf	(___flge@ff2+2)^0,w,c
  3257  001318  6E0B               	movwf	(??___flge+2)^0,c
  3258  00131A  0E7F               	movlw	127
  3259  00131C  1408               	andwf	(___flge@ff2+3)^0,w,c
  3260  00131E  6E0C               	movwf	(??___flge+3)^0,c
  3261  001320  5009               	movf	??___flge^0,w,c
  3262  001322  100A               	iorwf	(??___flge+1)^0,w,c
  3263  001324  100B               	iorwf	(??___flge+2)^0,w,c
  3264  001326  100C               	iorwf	(??___flge+3)^0,w,c
  3265  001328  A4D8               	btfss	status,2,c
  3266  00132A  EF99  F009         	goto	i2u173_41
  3267  00132E  EF9B  F009         	goto	i2u173_40
  3268  001332                     i2u173_41:
  3269  001332  EFA3  F009         	goto	i2l2082
  3270  001336                     i2u173_40:
  3271  001336  0E00               	movlw	0
  3272  001338  6E05               	movwf	___flge@ff2^0,c
  3273  00133A  0E00               	movlw	0
  3274  00133C  6E06               	movwf	(___flge@ff2+1)^0,c
  3275  00133E  0E00               	movlw	0
  3276  001340  6E07               	movwf	(___flge@ff2+2)^0,c
  3277  001342  0E00               	movlw	0
  3278  001344  6E08               	movwf	(___flge@ff2+3)^0,c
  3279  001346                     i2l2082:
  3280  001346  AE04               	btfss	(___flge@ff1+3)^0,7,c
  3281  001348  EFA8  F009         	goto	i2u174_41
  3282  00134C  EFAA  F009         	goto	i2u174_40
  3283  001350                     i2u174_41:
  3284  001350  EFB3  F009         	goto	i2l2086
  3285  001354                     i2u174_40:
  3286  001354  6C01               	negf	___flge@ff1^0,c
  3287  001356  1E02               	comf	(___flge@ff1+1)^0,f,c
  3288  001358  B0D8               	btfsc	status,0,c
  3289  00135A  2A02               	incf	(___flge@ff1+1)^0,f,c
  3290  00135C  1E03               	comf	(___flge@ff1+2)^0,f,c
  3291  00135E  B0D8               	btfsc	status,0,c
  3292  001360  2A03               	incf	(___flge@ff1+2)^0,f,c
  3293  001362  0E80               	movlw	128
  3294  001364  5604               	subfwb	(___flge@ff1+3)^0,f,c
  3295  001366                     i2l2086:
  3296  001366  AE08               	btfss	(___flge@ff2+3)^0,7,c
  3297  001368  EFB8  F009         	goto	i2u175_41
  3298  00136C  EFBA  F009         	goto	i2u175_40
  3299  001370                     i2u175_41:
  3300  001370  EFC3  F009         	goto	i2l500
  3301  001374                     i2u175_40:
  3302  001374  6C05               	negf	___flge@ff2^0,c
  3303  001376  1E06               	comf	(___flge@ff2+1)^0,f,c
  3304  001378  B0D8               	btfsc	status,0,c
  3305  00137A  2A06               	incf	(___flge@ff2+1)^0,f,c
  3306  00137C  1E07               	comf	(___flge@ff2+2)^0,f,c
  3307  00137E  B0D8               	btfsc	status,0,c
  3308  001380  2A07               	incf	(___flge@ff2+2)^0,f,c
  3309  001382  0E80               	movlw	128
  3310  001384  5608               	subfwb	(___flge@ff2+3)^0,f,c
  3311  001386                     i2l500:
  3312  001386  0E00               	movlw	0
  3313  001388  1A01               	xorwf	___flge@ff1^0,f,c
  3314  00138A  0E00               	movlw	0
  3315  00138C  1A02               	xorwf	(___flge@ff1+1)^0,f,c
  3316  00138E  0E00               	movlw	0
  3317  001390  1A03               	xorwf	(___flge@ff1+2)^0,f,c
  3318  001392  0E80               	movlw	128
  3319  001394  1A04               	xorwf	(___flge@ff1+3)^0,f,c
  3320  001396  0E00               	movlw	0
  3321  001398  1A05               	xorwf	___flge@ff2^0,f,c
  3322  00139A  0E00               	movlw	0
  3323  00139C  1A06               	xorwf	(___flge@ff2+1)^0,f,c
  3324  00139E  0E00               	movlw	0
  3325  0013A0  1A07               	xorwf	(___flge@ff2+2)^0,f,c
  3326  0013A2  0E80               	movlw	128
  3327  0013A4  1A08               	xorwf	(___flge@ff2+3)^0,f,c
  3328  0013A6  5005               	movf	___flge@ff2^0,w,c
  3329  0013A8  5C01               	subwf	___flge@ff1^0,w,c
  3330  0013AA  5006               	movf	(___flge@ff2+1)^0,w,c
  3331  0013AC  5802               	subwfb	(___flge@ff1+1)^0,w,c
  3332  0013AE  5007               	movf	(___flge@ff2+2)^0,w,c
  3333  0013B0  5803               	subwfb	(___flge@ff1+2)^0,w,c
  3334  0013B2  5008               	movf	(___flge@ff2+3)^0,w,c
  3335  0013B4  5804               	subwfb	(___flge@ff1+3)^0,w,c
  3336  0013B6  B0D8               	btfsc	status,0,c
  3337  0013B8  EFE0  F009         	goto	i2u176_41
  3338  0013BC  EFE2  F009         	goto	i2u176_40
  3339  0013C0                     i2u176_41:
  3340  0013C0  EFE5  F009         	goto	i2l2092
  3341  0013C4                     i2u176_40:
  3342  0013C4  90D8               	bcf	status,0,c
  3343  0013C6  EFE6  F009         	goto	i2l501
  3344  0013CA                     i2l2092:
  3345  0013CA  80D8               	bsf	status,0,c
  3346  0013CC                     i2l501:
  3347  0013CC  0012               	return		;funcret
  3348  0013CE                     __end_of___flge:
  3349                           	callstack 0
  3350                           
  3351 ;; *************** function ___fladd *****************
  3352 ;; Defined at:
  3353 ;;		line 10 in file "C:\Program Files\Microchip\xc8\v2.32\pic\sources\c90\common\sprcadd.c"
  3354 ;; Parameters:    Size  Location     Type
  3355 ;;  b               4   25[COMRAM] unsigned char 
  3356 ;;  a               4   29[COMRAM] unsigned char 
  3357 ;; Auto vars:     Size  Location     Type
  3358 ;;  grs             1   40[COMRAM] unsigned char 
  3359 ;;  bexp            1   39[COMRAM] unsigned char 
  3360 ;;  aexp            1   38[COMRAM] unsigned char 
  3361 ;;  signs           1   37[COMRAM] unsigned char 
  3362 ;; Return value:  Size  Location     Type
  3363 ;;                  4   25[COMRAM] unsigned char 
  3364 ;; Registers used:
  3365 ;;		wreg, status,2, status,0
  3366 ;; Tracked objects:
  3367 ;;		On entry : 0/0
  3368 ;;		On exit  : 0/0
  3369 ;;		Unchanged: 0/0
  3370 ;; Data sizes:     COMRAM   BANK0   BANK1   BANK2
  3371 ;;      Params:         8       0       0       0
  3372 ;;      Locals:         4       0       0       0
  3373 ;;      Temps:          4       0       0       0
  3374 ;;      Totals:        16       0       0       0
  3375 ;;Total ram usage:       16 bytes
  3376 ;; Hardware stack levels used: 1
  3377 ;; This function calls:
  3378 ;;		Nothing
  3379 ;; This function is called by:
  3380 ;;		_ISR
  3381 ;;		_PID
  3382 ;; This function uses a non-reentrant model
  3383 ;;
  3384                           
  3385                           	psect	text19
  3386  000356                     __ptext19:
  3387                           	callstack 0
  3388  000356                     ___fladd:
  3389                           	callstack 27
  3390  000356  501D               	movf	(___fladd@b+3)^0,w,c
  3391  000358  0B80               	andlw	128
  3392  00035A  6E26               	movwf	___fladd@signs^0,c
  3393  00035C  501D               	movf	(___fladd@b+3)^0,w,c
  3394  00035E  241D               	addwf	(___fladd@b+3)^0,w,c
  3395  000360  6E28               	movwf	___fladd@bexp^0,c
  3396  000362  AE1C               	btfss	(___fladd@b+2)^0,7,c
  3397  000364  EFB6  F001         	goto	i2u114_41
  3398  000368  EFB8  F001         	goto	i2u114_40
  3399  00036C                     i2u114_41:
  3400  00036C  EFB9  F001         	goto	i2l1748
  3401  000370                     i2u114_40:
  3402  000370  8028               	bsf	___fladd@bexp^0,0,c
  3403  000372                     i2l1748:
  3404  000372  5028               	movf	___fladd@bexp^0,w,c
  3405  000374  B4D8               	btfsc	status,2,c
  3406  000376  EFBF  F001         	goto	i2u115_41
  3407  00037A  EFC1  F001         	goto	i2u115_40
  3408  00037E                     i2u115_41:
  3409  00037E  EFD6  F001         	goto	i2l1758
  3410  000382                     i2u115_40:
  3411  000382  2828               	incf	___fladd@bexp^0,w,c
  3412  000384  A4D8               	btfss	status,2,c
  3413  000386  EFC7  F001         	goto	i2u116_41
  3414  00038A  EFC9  F001         	goto	i2u116_40
  3415  00038E                     i2u116_41:
  3416  00038E  EFD1  F001         	goto	i2l1754
  3417  000392                     i2u116_40:
  3418  000392  0E00               	movlw	0
  3419  000394  6E1A               	movwf	___fladd@b^0,c
  3420  000396  0E00               	movlw	0
  3421  000398  6E1B               	movwf	(___fladd@b+1)^0,c
  3422  00039A  0E00               	movlw	0
  3423  00039C  6E1C               	movwf	(___fladd@b+2)^0,c
  3424  00039E  0E00               	movlw	0
  3425  0003A0  6E1D               	movwf	(___fladd@b+3)^0,c
  3426  0003A2                     i2l1754:
  3427  0003A2  8E1C               	bsf	(___fladd@b+2)^0,7,c
  3428  0003A4  0E00               	movlw	0
  3429  0003A6  6E1D               	movwf	(___fladd@b+3)^0,c
  3430  0003A8  EFDE  F001         	goto	i2l1760
  3431  0003AC                     i2l1758:
  3432  0003AC  0E00               	movlw	0
  3433  0003AE  6E1A               	movwf	___fladd@b^0,c
  3434  0003B0  0E00               	movlw	0
  3435  0003B2  6E1B               	movwf	(___fladd@b+1)^0,c
  3436  0003B4  0E00               	movlw	0
  3437  0003B6  6E1C               	movwf	(___fladd@b+2)^0,c
  3438  0003B8  0E00               	movlw	0
  3439  0003BA  6E1D               	movwf	(___fladd@b+3)^0,c
  3440  0003BC                     i2l1760:
  3441  0003BC  5021               	movf	(___fladd@a+3)^0,w,c
  3442  0003BE  0B80               	andlw	128
  3443  0003C0  6E27               	movwf	___fladd@aexp^0,c
  3444  0003C2  5026               	movf	___fladd@signs^0,w,c
  3445  0003C4  1827               	xorwf	___fladd@aexp^0,w,c
  3446  0003C6  B4D8               	btfsc	status,2,c
  3447  0003C8  EFE8  F001         	goto	i2u117_41
  3448  0003CC  EFEA  F001         	goto	i2u117_40
  3449  0003D0                     i2u117_41:
  3450  0003D0  EFEB  F001         	goto	i2l1766
  3451  0003D4                     i2u117_40:
  3452  0003D4  8C26               	bsf	___fladd@signs^0,6,c
  3453  0003D6                     i2l1766:
  3454  0003D6  5021               	movf	(___fladd@a+3)^0,w,c
  3455  0003D8  2421               	addwf	(___fladd@a+3)^0,w,c
  3456  0003DA  6E27               	movwf	___fladd@aexp^0,c
  3457  0003DC  AE20               	btfss	(___fladd@a+2)^0,7,c
  3458  0003DE  EFF3  F001         	goto	i2u118_41
  3459  0003E2  EFF5  F001         	goto	i2u118_40
  3460  0003E6                     i2u118_41:
  3461  0003E6  EFF6  F001         	goto	i2l1772
  3462  0003EA                     i2u118_40:
  3463  0003EA  8027               	bsf	___fladd@aexp^0,0,c
  3464  0003EC                     i2l1772:
  3465  0003EC  5027               	movf	___fladd@aexp^0,w,c
  3466  0003EE  B4D8               	btfsc	status,2,c
  3467  0003F0  EFFC  F001         	goto	i2u119_41
  3468  0003F4  EFFE  F001         	goto	i2u119_40
  3469  0003F8                     i2u119_41:
  3470  0003F8  EF13  F002         	goto	i2l1782
  3471  0003FC                     i2u119_40:
  3472  0003FC  2827               	incf	___fladd@aexp^0,w,c
  3473  0003FE  A4D8               	btfss	status,2,c
  3474  000400  EF04  F002         	goto	i2u120_41
  3475  000404  EF06  F002         	goto	i2u120_40
  3476  000408                     i2u120_41:
  3477  000408  EF0E  F002         	goto	i2l1778
  3478  00040C                     i2u120_40:
  3479  00040C  0E00               	movlw	0
  3480  00040E  6E1E               	movwf	___fladd@a^0,c
  3481  000410  0E00               	movlw	0
  3482  000412  6E1F               	movwf	(___fladd@a+1)^0,c
  3483  000414  0E00               	movlw	0
  3484  000416  6E20               	movwf	(___fladd@a+2)^0,c
  3485  000418  0E00               	movlw	0
  3486  00041A  6E21               	movwf	(___fladd@a+3)^0,c
  3487  00041C                     i2l1778:
  3488  00041C  8E20               	bsf	(___fladd@a+2)^0,7,c
  3489  00041E  0E00               	movlw	0
  3490  000420  6E21               	movwf	(___fladd@a+3)^0,c
  3491  000422  EF1B  F002         	goto	i2l1784
  3492  000426                     i2l1782:
  3493  000426  0E00               	movlw	0
  3494  000428  6E1E               	movwf	___fladd@a^0,c
  3495  00042A  0E00               	movlw	0
  3496  00042C  6E1F               	movwf	(___fladd@a+1)^0,c
  3497  00042E  0E00               	movlw	0
  3498  000430  6E20               	movwf	(___fladd@a+2)^0,c
  3499  000432  0E00               	movlw	0
  3500  000434  6E21               	movwf	(___fladd@a+3)^0,c
  3501  000436                     i2l1784:
  3502  000436  5028               	movf	___fladd@bexp^0,w,c
  3503  000438  5C27               	subwf	___fladd@aexp^0,w,c
  3504  00043A  B0D8               	btfsc	status,0,c
  3505  00043C  EF22  F002         	goto	i2u121_41
  3506  000440  EF24  F002         	goto	i2u121_40
  3507  000444                     i2u121_41:
  3508  000444  EF4B  F002         	goto	i2l1820
  3509  000448                     i2u121_40:
  3510  000448  AC26               	btfss	___fladd@signs^0,6,c
  3511  00044A  EF29  F002         	goto	i2u122_41
  3512  00044E  EF2B  F002         	goto	i2u122_40
  3513  000452                     i2u122_41:
  3514  000452  EF2D  F002         	goto	i2l1790
  3515  000456                     i2u122_40:
  3516  000456  0E80               	movlw	128
  3517  000458  1A26               	xorwf	___fladd@signs^0,f,c
  3518  00045A                     i2l1790:
  3519  00045A  C028  F029         	movff	___fladd@bexp,___fladd@grs
  3520  00045E  C027  F028         	movff	___fladd@aexp,___fladd@bexp
  3521  000462  C029  F027         	movff	___fladd@grs,___fladd@aexp
  3522  000466  C01A  F029         	movff	___fladd@b,___fladd@grs
  3523  00046A  C01E  F01A         	movff	___fladd@a,___fladd@b
  3524  00046E  C029  F01E         	movff	___fladd@grs,___fladd@a
  3525  000472  C01B  F029         	movff	___fladd@b+1,___fladd@grs
  3526  000476  C01F  F01B         	movff	___fladd@a+1,___fladd@b+1
  3527  00047A  C029  F01F         	movff	___fladd@grs,___fladd@a+1
  3528  00047E  C01C  F029         	movff	___fladd@b+2,___fladd@grs
  3529  000482  C020  F01C         	movff	___fladd@a+2,___fladd@b+2
  3530  000486  C029  F020         	movff	___fladd@grs,___fladd@a+2
  3531  00048A  C01D  F029         	movff	___fladd@b+3,___fladd@grs
  3532  00048E  C021  F01D         	movff	___fladd@a+3,___fladd@b+3
  3533  000492  C029  F021         	movff	___fladd@grs,___fladd@a+3
  3534  000496                     i2l1820:
  3535  000496  0E00               	movlw	0
  3536  000498  6E29               	movwf	___fladd@grs^0,c
  3537  00049A  5028               	movf	___fladd@bexp^0,w,c
  3538  00049C  C027  F022         	movff	___fladd@aexp,??___fladd
  3539  0004A0  6A23               	clrf	(??___fladd+1)^0,c
  3540  0004A2  5E22               	subwf	??___fladd^0,f,c
  3541  0004A4  0E00               	movlw	0
  3542  0004A6  5A23               	subwfb	(??___fladd+1)^0,f,c
  3543  0004A8  BE23               	btfsc	(??___fladd+1)^0,7,c
  3544  0004AA  EF60  F002         	goto	i2u123_41
  3545  0004AE  5023               	movf	(??___fladd+1)^0,w,c
  3546  0004B0  E109               	bnz	i2u123_40
  3547  0004B2  0E1A               	movlw	26
  3548  0004B4  5C22               	subwf	??___fladd^0,w,c
  3549  0004B6  A0D8               	btfss	status,0,c
  3550  0004B8  EF60  F002         	goto	i2u123_41
  3551  0004BC  EF62  F002         	goto	i2u123_40
  3552  0004C0                     i2u123_41:
  3553  0004C0  EF99  F002         	goto	i2l756
  3554  0004C4                     i2u123_40:
  3555  0004C4  501A               	movf	___fladd@b^0,w,c
  3556  0004C6  101B               	iorwf	(___fladd@b+1)^0,w,c
  3557  0004C8  101C               	iorwf	(___fladd@b+2)^0,w,c
  3558  0004CA  101D               	iorwf	(___fladd@b+3)^0,w,c
  3559  0004CC  A4D8               	btfss	status,2,c
  3560  0004CE  EF6B  F002         	goto	i2u124_41
  3561  0004D2  EF6E  F002         	goto	i2u124_40
  3562  0004D6                     i2u124_41:
  3563  0004D6  0E01               	movlw	1
  3564  0004D8  EF6F  F002         	goto	i2u125_40
  3565  0004DC                     i2u124_40:
  3566  0004DC  0E00               	movlw	0
  3567  0004DE                     i2u125_40:
  3568  0004DE  6E29               	movwf	___fladd@grs^0,c
  3569  0004E0  0E00               	movlw	0
  3570  0004E2  6E1A               	movwf	___fladd@b^0,c
  3571  0004E4  0E00               	movlw	0
  3572  0004E6  6E1B               	movwf	(___fladd@b+1)^0,c
  3573  0004E8  0E00               	movlw	0
  3574  0004EA  6E1C               	movwf	(___fladd@b+2)^0,c
  3575  0004EC  0E00               	movlw	0
  3576  0004EE  6E1D               	movwf	(___fladd@b+3)^0,c
  3577  0004F0  C027  F028         	movff	___fladd@aexp,___fladd@bexp
  3578  0004F4  EFA2  F002         	goto	i2l755
  3579  0004F8                     i2l757:
  3580  0004F8  A029               	btfss	___fladd@grs^0,0,c
  3581  0004FA  EF81  F002         	goto	i2u126_41
  3582  0004FE  EF83  F002         	goto	i2u126_40
  3583  000502                     i2u126_41:
  3584  000502  EF89  F002         	goto	i2l1832
  3585  000506                     i2u126_40:
  3586  000506  90D8               	bcf	status,0,c
  3587  000508  3029               	rrcf	___fladd@grs^0,w,c
  3588  00050A  0901               	iorlw	1
  3589  00050C  6E29               	movwf	___fladd@grs^0,c
  3590  00050E  EF8B  F002         	goto	i2l1834
  3591  000512                     i2l1832:
  3592  000512  90D8               	bcf	status,0,c
  3593  000514  3229               	rrcf	___fladd@grs^0,f,c
  3594  000516                     i2l1834:
  3595  000516  A01A               	btfss	___fladd@b^0,0,c
  3596  000518  EF90  F002         	goto	i2u127_41
  3597  00051C  EF92  F002         	goto	i2u127_40
  3598  000520                     i2u127_41:
  3599  000520  EF93  F002         	goto	i2l1838
  3600  000524                     i2u127_40:
  3601  000524  8E29               	bsf	___fladd@grs^0,7,c
  3602  000526                     i2l1838:
  3603  000526  341D               	rlcf	(___fladd@b+3)^0,w,c
  3604  000528  321D               	rrcf	(___fladd@b+3)^0,f,c
  3605  00052A  321C               	rrcf	(___fladd@b+2)^0,f,c
  3606  00052C  321B               	rrcf	(___fladd@b+1)^0,f,c
  3607  00052E  321A               	rrcf	___fladd@b^0,f,c
  3608  000530  2A28               	incf	___fladd@bexp^0,f,c
  3609  000532                     i2l756:
  3610  000532  5027               	movf	___fladd@aexp^0,w,c
  3611  000534  5C28               	subwf	___fladd@bexp^0,w,c
  3612  000536  A0D8               	btfss	status,0,c
  3613  000538  EFA0  F002         	goto	i2u128_41
  3614  00053C  EFA2  F002         	goto	i2u128_40
  3615  000540                     i2u128_41:
  3616  000540  EF7C  F002         	goto	i2l757
  3617  000544                     i2u128_40:
  3618  000544                     i2l755:
  3619  000544  BC26               	btfsc	___fladd@signs^0,6,c
  3620  000546  EFA7  F002         	goto	i2u129_41
  3621  00054A  EFA9  F002         	goto	i2u129_40
  3622  00054E                     i2u129_41:
  3623  00054E  EFE9  F002         	goto	i2l1866
  3624  000552                     i2u129_40:
  3625  000552  5028               	movf	___fladd@bexp^0,w,c
  3626  000554  A4D8               	btfss	status,2,c
  3627  000556  EFAF  F002         	goto	i2u130_41
  3628  00055A  EFB1  F002         	goto	i2u130_40
  3629  00055E                     i2u130_41:
  3630  00055E  EFBB  F002         	goto	i2l1848
  3631  000562                     i2u130_40:
  3632  000562  0E00               	movlw	0
  3633  000564  6E1A               	movwf	?___fladd^0,c
  3634  000566  0E00               	movlw	0
  3635  000568  6E1B               	movwf	(?___fladd+1)^0,c
  3636  00056A  0E00               	movlw	0
  3637  00056C  6E1C               	movwf	(?___fladd+2)^0,c
  3638  00056E  0E00               	movlw	0
  3639  000570  6E1D               	movwf	(?___fladd+3)^0,c
  3640  000572  EF0A  F004         	goto	i2l764
  3641  000576                     i2l1848:
  3642  000576  501E               	movf	___fladd@a^0,w,c
  3643  000578  261A               	addwf	___fladd@b^0,f,c
  3644  00057A  501F               	movf	(___fladd@a+1)^0,w,c
  3645  00057C  221B               	addwfc	(___fladd@b+1)^0,f,c
  3646  00057E  5020               	movf	(___fladd@a+2)^0,w,c
  3647  000580  221C               	addwfc	(___fladd@b+2)^0,f,c
  3648  000582  5021               	movf	(___fladd@a+3)^0,w,c
  3649  000584  221D               	addwfc	(___fladd@b+3)^0,f,c
  3650  000586  A01D               	btfss	(___fladd@b+3)^0,0,c
  3651  000588  EFC8  F002         	goto	i2u131_41
  3652  00058C  EFCA  F002         	goto	i2u131_40
  3653  000590                     i2u131_41:
  3654  000590  EF76  F003         	goto	i2l1902
  3655  000594                     i2u131_40:
  3656  000594  A029               	btfss	___fladd@grs^0,0,c
  3657  000596  EFCF  F002         	goto	i2u132_41
  3658  00059A  EFD1  F002         	goto	i2u132_40
  3659  00059E                     i2u132_41:
  3660  00059E  EFD7  F002         	goto	i2l1856
  3661  0005A2                     i2u132_40:
  3662  0005A2  90D8               	bcf	status,0,c
  3663  0005A4  3029               	rrcf	___fladd@grs^0,w,c
  3664  0005A6  0901               	iorlw	1
  3665  0005A8  6E29               	movwf	___fladd@grs^0,c
  3666  0005AA  EFD9  F002         	goto	i2l1858
  3667  0005AE                     i2l1856:
  3668  0005AE  90D8               	bcf	status,0,c
  3669  0005B0  3229               	rrcf	___fladd@grs^0,f,c
  3670  0005B2                     i2l1858:
  3671  0005B2  A01A               	btfss	___fladd@b^0,0,c
  3672  0005B4  EFDE  F002         	goto	i2u133_41
  3673  0005B8  EFE0  F002         	goto	i2u133_40
  3674  0005BC                     i2u133_41:
  3675  0005BC  EFE1  F002         	goto	i2l1862
  3676  0005C0                     i2u133_40:
  3677  0005C0  8E29               	bsf	___fladd@grs^0,7,c
  3678  0005C2                     i2l1862:
  3679  0005C2  341D               	rlcf	(___fladd@b+3)^0,w,c
  3680  0005C4  321D               	rrcf	(___fladd@b+3)^0,f,c
  3681  0005C6  321C               	rrcf	(___fladd@b+2)^0,f,c
  3682  0005C8  321B               	rrcf	(___fladd@b+1)^0,f,c
  3683  0005CA  321A               	rrcf	___fladd@b^0,f,c
  3684  0005CC  2A28               	incf	___fladd@bexp^0,f,c
  3685  0005CE  EF76  F003         	goto	i2l1902
  3686  0005D2                     i2l1866:
  3687  0005D2  501E               	movf	___fladd@a^0,w,c
  3688  0005D4  5C1A               	subwf	___fladd@b^0,w,c
  3689  0005D6  501F               	movf	(___fladd@a+1)^0,w,c
  3690  0005D8  581B               	subwfb	(___fladd@b+1)^0,w,c
  3691  0005DA  5020               	movf	(___fladd@a+2)^0,w,c
  3692  0005DC  581C               	subwfb	(___fladd@b+2)^0,w,c
  3693  0005DE  501D               	movf	(___fladd@b+3)^0,w,c
  3694  0005E0  0A80               	xorlw	128
  3695  0005E2  6E22               	movwf	??___fladd^0,c
  3696  0005E4  5021               	movf	(___fladd@a+3)^0,w,c
  3697  0005E6  0A80               	xorlw	128
  3698  0005E8  5822               	subwfb	??___fladd^0,w,c
  3699  0005EA  B0D8               	btfsc	status,0,c
  3700  0005EC  EFFA  F002         	goto	i2u134_41
  3701  0005F0  EFFC  F002         	goto	i2u134_40
  3702  0005F4                     i2u134_41:
  3703  0005F4  EF27  F003         	goto	i2l1876
  3704  0005F8                     i2u134_40:
  3705  0005F8  501A               	movf	___fladd@b^0,w,c
  3706  0005FA  5C1E               	subwf	___fladd@a^0,w,c
  3707  0005FC  6E22               	movwf	??___fladd^0,c
  3708  0005FE  501B               	movf	(___fladd@b+1)^0,w,c
  3709  000600  581F               	subwfb	(___fladd@a+1)^0,w,c
  3710  000602  6E23               	movwf	(??___fladd+1)^0,c
  3711  000604  501C               	movf	(___fladd@b+2)^0,w,c
  3712  000606  5820               	subwfb	(___fladd@a+2)^0,w,c
  3713  000608  6E24               	movwf	(??___fladd+2)^0,c
  3714  00060A  501D               	movf	(___fladd@b+3)^0,w,c
  3715  00060C  5821               	subwfb	(___fladd@a+3)^0,w,c
  3716  00060E  6E25               	movwf	(??___fladd+3)^0,c
  3717  000610  0EFF               	movlw	255
  3718  000612  2422               	addwf	??___fladd^0,w,c
  3719  000614  6E1A               	movwf	___fladd@b^0,c
  3720  000616  0EFF               	movlw	255
  3721  000618  2023               	addwfc	(??___fladd+1)^0,w,c
  3722  00061A  6E1B               	movwf	(___fladd@b+1)^0,c
  3723  00061C  0EFF               	movlw	255
  3724  00061E  2024               	addwfc	(??___fladd+2)^0,w,c
  3725  000620  6E1C               	movwf	(___fladd@b+2)^0,c
  3726  000622  0EFF               	movlw	255
  3727  000624  2025               	addwfc	(??___fladd+3)^0,w,c
  3728  000626  6E1D               	movwf	(___fladd@b+3)^0,c
  3729  000628  0E80               	movlw	128
  3730  00062A  1A26               	xorwf	___fladd@signs^0,f,c
  3731  00062C  6C29               	negf	___fladd@grs^0,c
  3732  00062E  5029               	movf	___fladd@grs^0,w,c
  3733  000630  A4D8               	btfss	status,2,c
  3734  000632  EF1D  F003         	goto	i2u135_41
  3735  000636  EF1F  F003         	goto	i2u135_40
  3736  00063A                     i2u135_41:
  3737  00063A  EF2F  F003         	goto	i2l772
  3738  00063E                     i2u135_40:
  3739  00063E  0E01               	movlw	1
  3740  000640  261A               	addwf	___fladd@b^0,f,c
  3741  000642  0E00               	movlw	0
  3742  000644  221B               	addwfc	(___fladd@b+1)^0,f,c
  3743  000646  221C               	addwfc	(___fladd@b+2)^0,f,c
  3744  000648  221D               	addwfc	(___fladd@b+3)^0,f,c
  3745  00064A  EF2F  F003         	goto	i2l772
  3746  00064E                     i2l1876:
  3747  00064E  501E               	movf	___fladd@a^0,w,c
  3748  000650  5E1A               	subwf	___fladd@b^0,f,c
  3749  000652  501F               	movf	(___fladd@a+1)^0,w,c
  3750  000654  5A1B               	subwfb	(___fladd@b+1)^0,f,c
  3751  000656  5020               	movf	(___fladd@a+2)^0,w,c
  3752  000658  5A1C               	subwfb	(___fladd@b+2)^0,f,c
  3753  00065A  5021               	movf	(___fladd@a+3)^0,w,c
  3754  00065C  5A1D               	subwfb	(___fladd@b+3)^0,f,c
  3755  00065E                     i2l772:
  3756  00065E  501A               	movf	___fladd@b^0,w,c
  3757  000660  101B               	iorwf	(___fladd@b+1)^0,w,c
  3758  000662  101C               	iorwf	(___fladd@b+2)^0,w,c
  3759  000664  101D               	iorwf	(___fladd@b+3)^0,w,c
  3760  000666  A4D8               	btfss	status,2,c
  3761  000668  EF38  F003         	goto	i2u136_41
  3762  00066C  EF3A  F003         	goto	i2u136_40
  3763  000670                     i2u136_41:
  3764  000670  EF6F  F003         	goto	i2l1900
  3765  000674                     i2u136_40:
  3766  000674  5029               	movf	___fladd@grs^0,w,c
  3767  000676  A4D8               	btfss	status,2,c
  3768  000678  EF40  F003         	goto	i2u137_41
  3769  00067C  EF42  F003         	goto	i2u137_40
  3770  000680                     i2u137_41:
  3771  000680  EF6F  F003         	goto	i2l1900
  3772  000684                     i2u137_40:
  3773  000684  0E00               	movlw	0
  3774  000686  6E1A               	movwf	?___fladd^0,c
  3775  000688  0E00               	movlw	0
  3776  00068A  6E1B               	movwf	(?___fladd+1)^0,c
  3777  00068C  0E00               	movlw	0
  3778  00068E  6E1C               	movwf	(?___fladd+2)^0,c
  3779  000690  0E00               	movlw	0
  3780  000692  6E1D               	movwf	(?___fladd+3)^0,c
  3781  000694  EF0A  F004         	goto	i2l764
  3782  000698                     i2l1884:
  3783  000698  90D8               	bcf	status,0,c
  3784  00069A  361A               	rlcf	___fladd@b^0,f,c
  3785  00069C  361B               	rlcf	(___fladd@b+1)^0,f,c
  3786  00069E  361C               	rlcf	(___fladd@b+2)^0,f,c
  3787  0006A0  361D               	rlcf	(___fladd@b+3)^0,f,c
  3788  0006A2  AE29               	btfss	___fladd@grs^0,7,c
  3789  0006A4  EF56  F003         	goto	i2u138_41
  3790  0006A8  EF58  F003         	goto	i2u138_40
  3791  0006AC                     i2u138_41:
  3792  0006AC  EF59  F003         	goto	i2l1890
  3793  0006B0                     i2u138_40:
  3794  0006B0  801A               	bsf	___fladd@b^0,0,c
  3795  0006B2                     i2l1890:
  3796  0006B2  A029               	btfss	___fladd@grs^0,0,c
  3797  0006B4  EF5E  F003         	goto	i2u139_41
  3798  0006B8  EF60  F003         	goto	i2u139_40
  3799  0006BC                     i2u139_41:
  3800  0006BC  EF64  F003         	goto	i2l1894
  3801  0006C0                     i2u139_40:
  3802  0006C0  80D8               	bsf	status,0,c
  3803  0006C2  3629               	rlcf	___fladd@grs^0,f,c
  3804  0006C4  EF66  F003         	goto	i2l1896
  3805  0006C8                     i2l1894:
  3806  0006C8  90D8               	bcf	status,0,c
  3807  0006CA  3629               	rlcf	___fladd@grs^0,f,c
  3808  0006CC                     i2l1896:
  3809  0006CC  5028               	movf	___fladd@bexp^0,w,c
  3810  0006CE  B4D8               	btfsc	status,2,c
  3811  0006D0  EF6C  F003         	goto	i2u140_41
  3812  0006D4  EF6E  F003         	goto	i2u140_40
  3813  0006D8                     i2u140_41:
  3814  0006D8  EF6F  F003         	goto	i2l1900
  3815  0006DC                     i2u140_40:
  3816  0006DC  0628               	decf	___fladd@bexp^0,f,c
  3817  0006DE                     i2l1900:
  3818  0006DE  AE1C               	btfss	(___fladd@b+2)^0,7,c
  3819  0006E0  EF74  F003         	goto	i2u141_41
  3820  0006E4  EF76  F003         	goto	i2u141_40
  3821  0006E8                     i2u141_41:
  3822  0006E8  EF4C  F003         	goto	i2l1884
  3823  0006EC                     i2u141_40:
  3824  0006EC                     i2l1902:
  3825  0006EC  0E00               	movlw	0
  3826  0006EE  6E27               	movwf	___fladd@aexp^0,c
  3827  0006F0  AE29               	btfss	___fladd@grs^0,7,c
  3828  0006F2  EF7D  F003         	goto	i2u142_41
  3829  0006F6  EF7F  F003         	goto	i2u142_40
  3830  0006FA                     i2u142_41:
  3831  0006FA  EF97  F003         	goto	i2l781
  3832  0006FE                     i2u142_40:
  3833  0006FE  C029  F022         	movff	___fladd@grs,??___fladd
  3834  000702  0E7F               	movlw	127
  3835  000704  1622               	andwf	??___fladd^0,f,c
  3836  000706  B4D8               	btfsc	status,2,c
  3837  000708  EF88  F003         	goto	i2u143_41
  3838  00070C  EF8A  F003         	goto	i2u143_40
  3839  000710                     i2u143_41:
  3840  000710  EF8E  F003         	goto	i2l782
  3841  000714                     i2u143_40:
  3842  000714                     i2l1908:
  3843  000714  0E01               	movlw	1
  3844  000716  6E27               	movwf	___fladd@aexp^0,c
  3845  000718  EF97  F003         	goto	i2l781
  3846  00071C                     i2l782:
  3847  00071C  A01A               	btfss	___fladd@b^0,0,c
  3848  00071E  EF93  F003         	goto	i2u144_41
  3849  000722  EF95  F003         	goto	i2u144_40
  3850  000726                     i2u144_41:
  3851  000726  EF97  F003         	goto	i2l781
  3852  00072A                     i2u144_40:
  3853  00072A  EF8A  F003         	goto	i2l1908
  3854  00072E                     i2l781:
  3855  00072E  5027               	movf	___fladd@aexp^0,w,c
  3856  000730  B4D8               	btfsc	status,2,c
  3857  000732  EF9D  F003         	goto	i2u145_41
  3858  000736  EF9F  F003         	goto	i2u145_40
  3859  00073A                     i2u145_41:
  3860  00073A  EFCA  F003         	goto	i2l1920
  3861  00073E                     i2u145_40:
  3862  00073E  0E01               	movlw	1
  3863  000740  261A               	addwf	___fladd@b^0,f,c
  3864  000742  0E00               	movlw	0
  3865  000744  221B               	addwfc	(___fladd@b+1)^0,f,c
  3866  000746  221C               	addwfc	(___fladd@b+2)^0,f,c
  3867  000748  221D               	addwfc	(___fladd@b+3)^0,f,c
  3868  00074A  A01D               	btfss	(___fladd@b+3)^0,0,c
  3869  00074C  EFAA  F003         	goto	i2u146_41
  3870  000750  EFAC  F003         	goto	i2u146_40
  3871  000754                     i2u146_41:
  3872  000754  EFCA  F003         	goto	i2l1920
  3873  000758                     i2u146_40:
  3874  000758  C01A  F022         	movff	___fladd@b,??___fladd
  3875  00075C  C01B  F023         	movff	___fladd@b+1,??___fladd+1
  3876  000760  C01C  F024         	movff	___fladd@b+2,??___fladd+2
  3877  000764  C01D  F025         	movff	___fladd@b+3,??___fladd+3
  3878  000768  3425               	rlcf	(??___fladd+3)^0,w,c
  3879  00076A  3225               	rrcf	(??___fladd+3)^0,f,c
  3880  00076C  3224               	rrcf	(??___fladd+2)^0,f,c
  3881  00076E  3223               	rrcf	(??___fladd+1)^0,f,c
  3882  000770  3222               	rrcf	??___fladd^0,f,c
  3883  000772  C022  F01A         	movff	??___fladd,___fladd@b
  3884  000776  C023  F01B         	movff	??___fladd+1,___fladd@b+1
  3885  00077A  C024  F01C         	movff	??___fladd+2,___fladd@b+2
  3886  00077E  C025  F01D         	movff	??___fladd+3,___fladd@b+3
  3887  000782  2828               	incf	___fladd@bexp^0,w,c
  3888  000784  B4D8               	btfsc	status,2,c
  3889  000786  EFC7  F003         	goto	i2u147_41
  3890  00078A  EFC9  F003         	goto	i2u147_40
  3891  00078E                     i2u147_41:
  3892  00078E  EFCA  F003         	goto	i2l1920
  3893  000792                     i2u147_40:
  3894  000792  2A28               	incf	___fladd@bexp^0,f,c
  3895  000794                     i2l1920:
  3896  000794  2828               	incf	___fladd@bexp^0,w,c
  3897  000796  B4D8               	btfsc	status,2,c
  3898  000798  EFD0  F003         	goto	i2u148_41
  3899  00079C  EFD2  F003         	goto	i2u148_40
  3900  0007A0                     i2u148_41:
  3901  0007A0  EFDA  F003         	goto	i2l1924
  3902  0007A4                     i2u148_40:
  3903  0007A4  5028               	movf	___fladd@bexp^0,w,c
  3904  0007A6  A4D8               	btfss	status,2,c
  3905  0007A8  EFD8  F003         	goto	i2u149_41
  3906  0007AC  EFDA  F003         	goto	i2u149_40
  3907  0007B0                     i2u149_41:
  3908  0007B0  EFEC  F003         	goto	i2l1928
  3909  0007B4                     i2u149_40:
  3910  0007B4                     i2l1924:
  3911  0007B4  0E00               	movlw	0
  3912  0007B6  6E1A               	movwf	___fladd@b^0,c
  3913  0007B8  0E00               	movlw	0
  3914  0007BA  6E1B               	movwf	(___fladd@b+1)^0,c
  3915  0007BC  0E00               	movlw	0
  3916  0007BE  6E1C               	movwf	(___fladd@b+2)^0,c
  3917  0007C0  0E00               	movlw	0
  3918  0007C2  6E1D               	movwf	(___fladd@b+3)^0,c
  3919  0007C4  5028               	movf	___fladd@bexp^0,w,c
  3920  0007C6  A4D8               	btfss	status,2,c
  3921  0007C8  EFE8  F003         	goto	i2u150_41
  3922  0007CC  EFEA  F003         	goto	i2u150_40
  3923  0007D0                     i2u150_41:
  3924  0007D0  EFEC  F003         	goto	i2l1928
  3925  0007D4                     i2u150_40:
  3926  0007D4  0E00               	movlw	0
  3927  0007D6  6E26               	movwf	___fladd@signs^0,c
  3928  0007D8                     i2l1928:
  3929  0007D8  A028               	btfss	___fladd@bexp^0,0,c
  3930  0007DA  EFF1  F003         	goto	i2u151_41
  3931  0007DE  EFF3  F003         	goto	i2u151_40
  3932  0007E2                     i2u151_41:
  3933  0007E2  EFF6  F003         	goto	i2l1932
  3934  0007E6                     i2u151_40:
  3935  0007E6  8E1C               	bsf	(___fladd@b+2)^0,7,c
  3936  0007E8  EFF7  F003         	goto	i2l1934
  3937  0007EC                     i2l1932:
  3938  0007EC  9E1C               	bcf	(___fladd@b+2)^0,7,c
  3939  0007EE                     i2l1934:
  3940  0007EE  90D8               	bcf	status,0,c
  3941  0007F0  3028               	rrcf	___fladd@bexp^0,w,c
  3942  0007F2  6E1D               	movwf	(___fladd@b+3)^0,c
  3943  0007F4  AE26               	btfss	___fladd@signs^0,7,c
  3944  0007F6  EFFF  F003         	goto	i2u152_41
  3945  0007FA  EF01  F004         	goto	i2u152_40
  3946  0007FE                     i2u152_41:
  3947  0007FE  EF02  F004         	goto	i2l1940
  3948  000802                     i2u152_40:
  3949  000802  8E1D               	bsf	(___fladd@b+3)^0,7,c
  3950  000804                     i2l1940:
  3951  000804  C01A  F01A         	movff	___fladd@b,?___fladd
  3952  000808  C01B  F01B         	movff	___fladd@b+1,?___fladd+1
  3953  00080C  C01C  F01C         	movff	___fladd@b+2,?___fladd+2
  3954  000810  C01D  F01D         	movff	___fladd@b+3,?___fladd+3
  3955  000814                     i2l764:
  3956  000814  0012               	return		;funcret
  3957  000816                     __end_of___fladd:
  3958                           	callstack 0
  3959                           
  3960                           	psect	rparam
  3961  0000                     
  3962                           	psect	temp
  3963  00005F                     btemp:
  3964                           	callstack 0
  3965  00005F                     	ds	1
  3966  0000                     int$flags	set	btemp
  3967  0000                     wtemp8	set	btemp+1
  3968  0000                     ttemp5	set	btemp+1
  3969  0000                     ttemp6	set	btemp+4
  3970  0000                     ttemp7	set	btemp+8
  3971                           
  3972                           	psect	idloc
  3973                           
  3974                           ;Config register IDLOC0 @ 0x200000
  3975                           ;	unspecified, using default values
  3976  200000                     	org	2097152
  3977  200000  FF                 	db	255
  3978                           
  3979                           ;Config register IDLOC1 @ 0x200001
  3980                           ;	unspecified, using default values
  3981  200001                     	org	2097153
  3982  200001  FF                 	db	255
  3983                           
  3984                           ;Config register IDLOC2 @ 0x200002
  3985                           ;	unspecified, using default values
  3986  200002                     	org	2097154
  3987  200002  FF                 	db	255
  3988                           
  3989                           ;Config register IDLOC3 @ 0x200003
  3990                           ;	unspecified, using default values
  3991  200003                     	org	2097155
  3992  200003  FF                 	db	255
  3993                           
  3994                           ;Config register IDLOC4 @ 0x200004
  3995                           ;	unspecified, using default values
  3996  200004                     	org	2097156
  3997  200004  FF                 	db	255
  3998                           
  3999                           ;Config register IDLOC5 @ 0x200005
  4000                           ;	unspecified, using default values
  4001  200005                     	org	2097157
  4002  200005  FF                 	db	255
  4003                           
  4004                           ;Config register IDLOC6 @ 0x200006
  4005                           ;	unspecified, using default values
  4006  200006                     	org	2097158
  4007  200006  FF                 	db	255
  4008                           
  4009                           ;Config register IDLOC7 @ 0x200007
  4010                           ;	unspecified, using default values
  4011  200007                     	org	2097159
  4012  200007  FF                 	db	255
  4013                           
  4014                           	psect	config
  4015                           
  4016                           ; Padding undefined space
  4017  300000                     	org	3145728
  4018  300000  FF                 	db	255
  4019                           
  4020                           ;Config register CONFIG1H @ 0x300001
  4021                           ;	Oscillator Selection bits
  4022                           ;	OSC = RC, 11XX External RC oscillator, CLKO function on RA6
  4023                           ;	Fail-Safe Clock Monitor Enable bit
  4024                           ;	FCMEN = ON, Fail-Safe Clock Monitor enabled
  4025                           ;	Internal External Oscillator Switchover bit
  4026                           ;	IESO = ON, Internal External Switchover mode enabled
  4027  300001                     	org	3145729
  4028  300001  CC                 	db	204
  4029                           
  4030                           ;Config register CONFIG2L @ 0x300002
  4031                           ;	Power-up Timer Enable bit
  4032                           ;	PWRTEN = OFF, PWRT disabled
  4033                           ;	Brown-out Reset Enable bits
  4034                           ;	BOREN = ON, Brown-out Reset enabled
  4035                           ;	Brown Out Reset Voltage bits
  4036                           ;	BORV = 0x3, unprogrammed default
  4037  300002                     	org	3145730
  4038  300002  0F                 	db	15
  4039                           
  4040                           ;Config register CONFIG2H @ 0x300003
  4041                           ;	Watchdog Timer Enable bit
  4042                           ;	WDTEN = OFF, WDT disabled (control is placed on the SWDTEN bit)
  4043                           ;	Watchdog Timer Postscale Select bits
  4044                           ;	WDPS = 32768, 1:32768
  4045                           ;	Watchdog Timer Window Enable bit
  4046                           ;	WINEN = OFF, WDT window disabled
  4047  300003                     	org	3145731
  4048  300003  3E                 	db	62
  4049                           
  4050                           ;Config register CONFIG3L @ 0x300004
  4051                           ;	PWM output pins Reset state control
  4052                           ;	PWMPIN = OFF, PWM outputs disabled upon Reset (default)
  4053                           ;	Low-Side Transistors Polarity
  4054                           ;	LPOL = HIGH, PWM0, 2, 4 and 6 are active-high
  4055                           ;	High-Side Transistors Polarity
  4056                           ;	HPOL = HIGH, PWM1, 3, 5 and 7 are active-high
  4057                           ;	Timer1 Oscillator MUX
  4058                           ;	T1OSCMX = ON, Low-power Timer1 operation when microcontroller is in Sleep mode
  4059  300004                     	org	3145732
  4060  300004  3C                 	db	60
  4061                           
  4062                           ;Config register CONFIG3H @ 0x300005
  4063                           ;	FLTA MUX bit
  4064                           ;	FLTAMX = RC1, FLTA input is multiplexed with RC1
  4065                           ;	SSP I/O MUX bit
  4066                           ;	SSPMX = RC7, SCK/SCL clocks and SDA/SDI data are multiplexed with RC5 and RC4, respect
      +                          ively. SDO output is multiplexed with RC7.
  4067                           ;	PWM4 MUX bit
  4068                           ;	PWM4MX = RB5, PWM4 output is multiplexed with RB5
  4069                           ;	TMR0/T5CKI External clock MUX bit
  4070                           ;	EXCLKMX = RC3, TMR0/T5CKI external clock input is multiplexed with RC3
  4071                           ;	MCLR Pin Enable bit
  4072                           ;	MCLRE = ON, Enabled
  4073  300005                     	org	3145733
  4074  300005  9D                 	db	157
  4075                           
  4076                           ;Config register CONFIG4L @ 0x300006
  4077                           ;	Stack Full/Underflow Reset Enable bit
  4078                           ;	STVREN = ON, Stack full/underflow will cause Reset
  4079                           ;	Low-Voltage ICSP Enable bit
  4080                           ;	LVP = ON, Low-voltage ICSP enabled
  4081                           ;	Background Debugger Enable bit
  4082                           ;	DEBUG = 0x1, unprogrammed default
  4083  300006                     	org	3145734
  4084  300006  85                 	db	133
  4085                           
  4086                           ; Padding undefined space
  4087  300007                     	org	3145735
  4088  300007  FF                 	db	255
  4089                           
  4090                           ;Config register CONFIG5L @ 0x300008
  4091                           ;	Code Protection bit
  4092                           ;	CP0 = OFF, Block 0 (000200-000FFFh) not code-protected
  4093                           ;	Code Protection bit
  4094                           ;	CP1 = OFF, Block 1 (001000-001FFF) not code-protected
  4095                           ;	Code Protection bit
  4096                           ;	CP2 = OFF, Block 2 (002000-002FFFh) not code-protected
  4097                           ;	Code Protection bit
  4098                           ;	CP3 = OFF, Block 3 (003000-003FFFh) not code-protected
  4099  300008                     	org	3145736
  4100  300008  0F                 	db	15
  4101                           
  4102                           ;Config register CONFIG5H @ 0x300009
  4103                           ;	Boot Block Code Protection bit
  4104                           ;	CPB = OFF, Boot Block (000000-0001FFh) not code-protected
  4105                           ;	Data EEPROM Code Protection bit
  4106                           ;	CPD = OFF, Data EEPROM not code-protected
  4107  300009                     	org	3145737
  4108  300009  C0                 	db	192
  4109                           
  4110                           ;Config register CONFIG6L @ 0x30000A
  4111                           ;	Write Protection bit
  4112                           ;	WRT0 = OFF, Block 0 (000200-000FFFh) not write-protected
  4113                           ;	Write Protection bit
  4114                           ;	WRT1 = OFF, Block 1 (001000-001FFF) not write-protected
  4115                           ;	Write Protection bit
  4116                           ;	WRT2 = OFF, Block 2 (002000-002FFFh) not write-protected
  4117                           ;	Write Protection bit
  4118                           ;	WRT3 = OFF, Block 3 (003000-003FFFh) not write-protected
  4119  30000A                     	org	3145738
  4120  30000A  0F                 	db	15
  4121                           
  4122                           ;Config register CONFIG6H @ 0x30000B
  4123                           ;	Configuration Register Write Protection bit
  4124                           ;	WRTC = OFF, Configuration registers (300000-3000FFh) not write-protected
  4125                           ;	Boot Block Write Protection bit
  4126                           ;	WRTB = OFF, Boot Block (000000-0001FFh) not write-protected
  4127                           ;	Data EEPROM Write Protection bit
  4128                           ;	WRTD = OFF, Data EEPROM not write-protected
  4129  30000B                     	org	3145739
  4130  30000B  E0                 	db	224
  4131                           
  4132                           ;Config register CONFIG7L @ 0x30000C
  4133                           ;	Table Read Protection bit
  4134                           ;	EBTR0 = OFF, Block 0 (000200-000FFFh) not protected from table reads executed in other
      +                           blocks
  4135                           ;	Table Read Protection bit
  4136                           ;	EBTR1 = OFF, Block 1 (001000-001FFF) not protected from table reads executed in other 
      +                          blocks
  4137                           ;	Table Read Protection bit
  4138                           ;	EBTR2 = OFF, Block 2 (002000-002FFFh) not protected from table reads executed in other
      +                           blocks
  4139                           ;	Table Read Protection bit
  4140                           ;	EBTR3 = OFF, Block 3 (003000-003FFFh) not protected from table reads executed in other
      +                           blocks
  4141  30000C                     	org	3145740
  4142  30000C  0F                 	db	15
  4143                           
  4144                           ;Config register CONFIG7H @ 0x30000D
  4145                           ;	Boot Block Table Read Protection bit
  4146                           ;	EBTRB = OFF, Boot Block (000000-0001FFh) not protected from table reads executed in ot
      +                          her blocks
  4147  30000D                     	org	3145741
  4148  30000D  40                 	db	64
  4149                           tosu	equ	0xFFF
  4150                           tosh	equ	0xFFE
  4151                           tosl	equ	0xFFD
  4152                           stkptr	equ	0xFFC
  4153                           pclatu	equ	0xFFB
  4154                           pclath	equ	0xFFA
  4155                           pcl	equ	0xFF9
  4156                           tblptru	equ	0xFF8
  4157                           tblptrh	equ	0xFF7
  4158                           tblptrl	equ	0xFF6
  4159                           tablat	equ	0xFF5
  4160                           prodh	equ	0xFF4
  4161                           prodl	equ	0xFF3
  4162                           indf0	equ	0xFEF
  4163                           postinc0	equ	0xFEE
  4164                           postdec0	equ	0xFED
  4165                           preinc0	equ	0xFEC
  4166                           plusw0	equ	0xFEB
  4167                           fsr0h	equ	0xFEA
  4168                           fsr0l	equ	0xFE9
  4169                           wreg	equ	0xFE8
  4170                           indf1	equ	0xFE7
  4171                           postinc1	equ	0xFE6
  4172                           postdec1	equ	0xFE5
  4173                           preinc1	equ	0xFE4
  4174                           plusw1	equ	0xFE3
  4175                           fsr1h	equ	0xFE2
  4176                           fsr1l	equ	0xFE1
  4177                           bsr	equ	0xFE0
  4178                           indf2	equ	0xFDF
  4179                           postinc2	equ	0xFDE
  4180                           postdec2	equ	0xFDD
  4181                           preinc2	equ	0xFDC
  4182                           plusw2	equ	0xFDB
  4183                           fsr2h	equ	0xFDA
  4184                           fsr2l	equ	0xFD9
  4185                           status	equ	0xFD8

Data Sizes:
    Strings     2
    Constant    0
    Data        9
    BSS         53
    Persistent  0
    Stack       0

Auto Spaces:
    Space          Size  Autos    Used
    COMRAM           94     90      94
    BANK0           160      0      58
    BANK1           256      0       0
    BANK2           256      0       0

Pointer List with Targets:

    str	PTR unsigned char  size(2) Largest target is 0
		 -> NULL(NULL[0]), 


Critical Paths under _main in COMRAM

    None.

Critical Paths under _ISR in COMRAM

    _ISR->_motorOutMSB
    _motorOutMSB->_PID
    _motorOutLSB->_PID
    _medianF->___flge
    _PID->___xxtofl
    _abs->___fltol
    ___xxtofl->_abs
    ___fltol->___flmul
    ___fladd->___flmul

Critical Paths under _main in BANK0

    None.

Critical Paths under _ISR in BANK0

    None.

Critical Paths under _main in BANK1

    None.

Critical Paths under _ISR in BANK1

    None.

Critical Paths under _main in BANK2

    None.

Critical Paths under _ISR in BANK2

    None.

Call Graph Tables:

 ---------------------------------------------------------------------------------
 (Depth) Function   	        Calls       Base Space   Used Autos Params    Refs
 ---------------------------------------------------------------------------------
 (0) _main                                                 0     0      0       0
                     _SPI_Init_Slave
                           _setupPWM
                           _setupQEI
                        _setupTimer0
                        _setupTimer5
 ---------------------------------------------------------------------------------
 (1) _setupTimer5                                          0     0      0       0
 ---------------------------------------------------------------------------------
 (1) _setupTimer0                                          0     0      0       0
 ---------------------------------------------------------------------------------
 (1) _setupQEI                                             0     0      0       0
 ---------------------------------------------------------------------------------
 (1) _setupPWM                                             0     0      0       0
                        _setupTimer2
 ---------------------------------------------------------------------------------
 (2) _setupTimer2                                          0     0      0       0
 ---------------------------------------------------------------------------------
 (1) _SPI_Init_Slave                                       0     0      0       0
 ---------------------------------------------------------------------------------
 Estimated maximum stack depth 2
 ---------------------------------------------------------------------------------
 (Depth) Function   	        Calls       Base Space   Used Autos Params    Refs
 ---------------------------------------------------------------------------------
 (3) _ISR                                                  6     6      0   25496
                                             84 COMRAM     6     6      0
                                _PID
                            _ReadSPI
                            ___awdiv
                            ___fladd
                            ___flmul
                            ___fltol
                            _medianF
                        _motorOutLSB
                        _motorOutMSB
 ---------------------------------------------------------------------------------
 (4) _motorOutMSB                                          9     5      4    3713
                                             75 COMRAM     9     5      4
                                _PID (ARG)
                            ___flmul
                            ___fltol
 ---------------------------------------------------------------------------------
 (4) _motorOutLSB                                          7     3      4    3713
                                             75 COMRAM     7     3      4
                                _PID (ARG)
                            ___flmul
                            ___fltol
 ---------------------------------------------------------------------------------
 (4) _medianF                                             16     4     12    2398
                                             12 COMRAM    16     4     12
                             ___flge
 ---------------------------------------------------------------------------------
 (4) ___awdiv                                              8     4      4     452
                                              0 COMRAM     8     4      4
 ---------------------------------------------------------------------------------
 (4) _ReadSPI                                              1     1      0       1
 ---------------------------------------------------------------------------------
 (4) _PID                                                 22    18      4    8958
                                             53 COMRAM    22    18      4
                            ___fladd
                             ___flge
                            ___flmul
                            ___fltol
                           ___xxtofl
                                _abs
 ---------------------------------------------------------------------------------
 (5) _abs                                                  4     2      2     142
                                             35 COMRAM     4     2      2
                            ___fltol (ARG)
 ---------------------------------------------------------------------------------
 (5) ___xxtofl                                            14    10      4     474
                                             39 COMRAM    14    10      4
                            ___fltol (ARG)
                                _abs (ARG)
 ---------------------------------------------------------------------------------
 (5) ___fltol                                             10     6      4     761
                                             25 COMRAM    10     6      4
                            ___flmul (ARG)
 ---------------------------------------------------------------------------------
 (5) ___flmul                                             25    17      8    2808
                                              0 COMRAM    25    17      8
 ---------------------------------------------------------------------------------
 (5) ___flge                                              12     4      8    1702
                                              0 COMRAM    12     4      8
 ---------------------------------------------------------------------------------
 (4) ___fladd                                             16     8      8    2692
                                             25 COMRAM    16     8      8
                            ___flmul (ARG)
 ---------------------------------------------------------------------------------
 Estimated maximum stack depth 5
 ---------------------------------------------------------------------------------

 Call Graph Graphs:

 _main (ROOT)
   _SPI_Init_Slave
   _setupPWM
     _setupTimer2
   _setupQEI
   _setupTimer0
   _setupTimer5

 _ISR (ROOT)
   _PID
     ___fladd
       ___flmul (ARG)
     ___flge
     ___flmul
     ___fltol
       ___flmul (ARG)
     ___xxtofl
       ___fltol (ARG)
       _abs (ARG)
         ___fltol (ARG)
     _abs
   _ReadSPI
   ___awdiv
   ___fladd
   ___flmul
   ___fltol
   _medianF
     ___flge
   _motorOutLSB
     _PID (ARG)
     ___flmul (ARG)
     ___fltol (ARG)
   _motorOutMSB
     _PID (ARG)
     ___flmul (ARG)
     ___fltol (ARG)

 Address spaces:
Name               Size   Autos  Total    Cost      Usage
BIGRAM             2FF      0       0      10        0.0%
EEDATA             100      0       0       0        0.0%
BITBANK2           100      0       0       8        0.0%
BANK2              100      0       0       9        0.0%
BITBANK1           100      0       0       6        0.0%
BANK1              100      0       0       7        0.0%
BITBANK0            A0      0       0       4        0.0%
BANK0               A0      0      3A       5       36.2%
BITCOMRAM           5E      0       0       0        0.0%
COMRAM              5E     5A      5E       1      100.0%
BITSFR               0      0       0     200        0.0%
SFR                  0      0       0     200        0.0%
STACK                0      0       0       2        0.0%
NULL                 0      0       0       0        0.0%
ABS                  0      0      98       3        0.0%
DATA                 0      0      98      11        0.0%
CODE                 0      0       0       0        0.0%


Microchip Technology PIC18 Macro Assembler V2.32 build 20210201212658 
Symbol Table                                                                                   Thu Dec 09 00:47:35 2021

                      _a 0082                        _b 007E                        _w 0099  
                     _CS 007C22             ___awdiv@sign 0006                      l202 1612  
                    l211 167E                      l208 165E                      l190 15F4  
                    l184 15CE                      l193 162C                      l185 15CE  
                    l196 1672                      _PR2 000FCB                      _PID 0C40  
                    _ISR 0008                      _abs 157E                      _ind 008F  
                    _str 0088                      prod 000FF3                      wreg 000FE8  
           ___flmul@aexp 0012             ___flmul@bexp 0013             ___flmul@sign 000D  
           ___flmul@temp 0018             ___flmul@prod 0014                     ?_PID 0036  
                   ?_ISR 0001             ___fltol@exp1 0023                     ?_abs 0024  
                   l2300 165A                     l2302 165C                     l2304 15F6  
                   l2306 1600                     l2308 1608                     l2260 15DA  
                   l2420 15BE                     l2412 15B2                     l2270 15EE  
                   l2262 15DE                     l2422 15C2                     l2414 15B6  
                   l2272 15F0                     l2264 15E0                     l2280 1670  
                   l2424 15C6                     l2416 15B8                     l1730 1674  
                   l2290 164E                     l2274 15F2                     l2266 15E2  
                   l2258 15D6                     l2282 1614                     l2426 15CA  
                   l2418 15BA                     l1732 1678                     l2292 1652  
                   l2268 15E4                     l2284 1622                     l2276 1660  
                   l1734 167A                     l2294 1654                     l2286 162A  
                   l2278 1668                     l1736 167C                     l2296 1656  
                   l2288 1648                     l2298 1658                     STR_1 0353  
                   _RCIF 007CF5                     _TMR0 000FD6                     _TMR5 000F87  
                   _TRMT 007D61                     abs@a 0024                     _main 15B2  
 __end_of_SPI_Init_Slave 1614                     fsr2h 000FDA                     fsr1l 000FE1  
                   fsr2l 000FD9                     btemp 005F                     prodh 000FF4  
                   prodl 000FF3                     start 034E             ___param_bank 000000  
        __end_of_ReadSPI 1648                    ??_PID 003A                    ??_ISR 0055  
                  ??_abs 0026                    PID@Ki 0040                    PID@Kp 003C  
          ___fltol@sign1 0022          __end_of___fladd 0816                    ?_main 0001  
        __end_of___awdiv 1492          __end_of___flmul 0C40          __end_of___fltol 12CA  
        ___awdiv@divisor 0003                    _T2CON 000FCA                    i2l214 14EC  
                  i2l143 1636                    i2l151 0F06                    i2l224 0E5A  
                  i2l217 1536                    i2l146 1646                    i2l154 0FFE  
                  i2l500 1386                    i2l172 0096                    i2l501 13CC  
                  i2l165 100E                    i2l157 0FB4                    i2l179 033A  
                  i2l470 1490                    i2l528 12C8                    i2l901 15A8  
                  i2l902 15B0                    i2l841 08DA                    i2l850 0B48  
                  i2l755 0544                    i2l851 0B36                    i2l772 065E  
                  i2l764 0814                    i2l756 0532                    i2l781 072E  
                  i2l757 04F8                    i2l845 0C3E                    i2l782 071C  
                  i2l848 0AD0                    i2l858 0C00                    i2l882 1066  
        ___awdiv@counter 0005                    i2l885 11C2                    i2l896 115A  
                  i2l889 10FE                    _RCREG 000FAE                    _SPBRG 000FAF  
                  _PORTB 000F81                    _TRISB 000F93                    _TXREG 000FAD  
        __end_of_medianF 1010                    _digit 0090                    _count 008C  
                  _speed 005B                    tablat 000FF5                    ttemp5 0060  
                  ttemp6 0063                    ttemp7 0067                    status 000FD8  
                  wtemp8 0060          ?_SPI_Init_Slave 0001             _stringBuffer 0060  
        __initialization 1538             __end_of_main 15D6                   ??_main 0000  
          __activetblptr 000001                   PID@err 0044                   PID@ref 0036  
                 _ADCON0 000FC2                   _ADCON1 000FC1                   _CCPR1L 000FBE  
       ___awdiv@dividend 0001                   i2l2000 0984                   i2l2010 09D6  
                 i2l2002 0990                   i2l2020 0A54                   i2l2012 09E6  
                 i2l2004 09A0                   i2l2030 0ACE                   i2l2022 0A8A  
                 i2l2014 0A02                   i2l2006 09AC                   i2l2110 122E  
                 i2l2102 11EE                   i2l2040 0B2E                   i2l2032 0AE0  
                 i2l2024 0A98                   i2l2016 0A0E                   i2l2008 09BC  
                 i2l2120 125E                   i2l2112 123C                   i2l2104 1218  
                 i2l2200 0EF2                   i2l2050 0B9C                   i2l2034 0AEE  
                 i2l2026 0AB6                   i2l2018 0A2A                   i2l2130 1288  
                 i2l2122 1268                   i2l2106 121A                   i2l2210 0FC8  
                 i2l2202 0F1A                   i2l2060 0C04                   i2l2044 0B58  
                 i2l2052 0BA0                   i2l2036 0AF2                   i2l2028 0AC0  
                 i2l2132 1298                   i2l2108 122A                   i2l2140 1012  
                 i2l2220 0CCA                   i2l2204 0F4C                   i2l2070 0C2E  
                 i2l2062 0C14                   i2l2054 0BBA                   i2l2046 0B64  
                 i2l2038 0B00                   i2l2134 12A8                   i2l2118 1254  
                 i2l2142 1022                   i2l2230 0DCA                   i2l2222 0D46  
                 i2l2214 0C40                   i2l2310 13CE                   i2l2206 0F7E  
                 i2l2080 1336                   i2l2064 0C22                   i2l2056 0BCE  
                 i2l2048 0B72                   i2l2136 12B8                   i2l2128 127C  
                 i2l2160 10E8                   i2l2152 10A0                   i2l2144 1030  
                 i2l2232 0DD8                   i2l2224 0D78                   i2l2216 0C60  
                 i2l2320 13FA                   i2l2312 13D2                   i2l2400 02C6  
                 i2l2090 13C4                   i2l2082 1346                   i2l2074 12CA  
                 i2l2066 0C24                   i2l2058 0BE8                   i2l2170 1168  
                 i2l2162 10F4                   i2l2154 10A8                   i2l2146 1076  
                 i2l2234 0DDC                   i2l2226 0D88                   i2l2218 0C96  
                 i2l2330 1428                   i2l2322 1402                   i2l2314 13E0  
                 i2l2250 14EE                   i2l2242 1492                   i2l2410 0338  
                 i2l2402 02CA                   i2l2092 13CA                   i2l2084 1354  
                 i2l2076 12F8                   i2l2068 0C2A                   i2l2180 11B0  
                 i2l2172 116A                   i2l2164 1130                   i2l2156 10B4  
                 i2l2148 108C                   i2l2236 0E0E                   i2l2228 0DBA  
                 i2l2340 1462                   i2l2332 1430                   i2l2324 1406  
                 i2l2316 13E8                   i2l2252 152E                   i2l2244 14D2  
                 i2l2404 02CE                   i2l2086 1366                   i2l2078 1308  
                 i2l2182 11B2                   i2l2174 116E                   i2l2166 113C  
                 i2l2158 10E6                   i2l2238 0E12                   i2l2190 1644  
                 i2l2350 1488                   i2l2342 1464                   i2l2334 143E  
                 i2l2326 140E                   i2l2318 13EC                   i2l2254 1534  
                 i2l2246 14EA                   i2l2406 02EE                   i2l1800 046E  
                 i2l2088 1374                   i2l2096 11C4                   i2l2176 1192  
                 i2l2168 114A                   i2l2344 146A                   i2l2336 1444  
                 i2l2328 1420                   i2l2408 0334                   i2l2360 006A  
                 i2l1810 0482                   i2l1802 0472                   i2l2098 11DA  
                 i2l2178 11A2                   i2l2186 162E                   i2l2338 145A  
                 i2l2346 1470                   i2l2194 0E5C                   i2l2370 009A  
                 i2l2362 006C                   i2l2354 001A                   i2l1900 06DE  
                 i2l1812 0486                   i2l1804 0476                   i2l1820 0496  
                 i2l1740 158C                   i2l2188 1632                   i2l2348 1480  
                 i2l2196 0E8E                   i2l2380 00F2                   i2l2372 00AE  
                 i2l2364 007A                   i2l2356 0028                   i2l1902 06EC  
                 i2l1830 0506                   i2l1822 049A                   i2l1814 048A  
                 i2l1806 047A                   i2l1750 0382                   i2l1742 0356  
                 i2l2198 0EC0                   i2l2390 022C                   i2l2382 0102  
                 i2l2374 00BE                   i2l2366 0082                   i2l2358 0036  
                 i2l1912 073E                   i2l1920 0794                   i2l1904 06F0  
                 i2l1840 0530                   i2l1832 0512                   i2l1824 04C4  
                 i2l1816 048E                   i2l1808 047E                   i2l1760 03BC  
                 i2l1752 0392                   i2l1744 0362                   i2l2392 0232  
                 i2l2384 0116                   i2l2376 00CE                   i2l1930 07E6  
                 i2l1922 07A4                   i2l1914 074A                   i2l1906 06FE  
                 i2l1850 0586                   i2l1842 0552                   i2l1834 0516  
                 i2l1826 04E0                   i2l1818 0492                   i2l1770 03EA  
                 i2l1762 03C2                   i2l1754 03A2                   i2l1746 0370  
                 i2l1738 157E                   i2l2394 0284                   i2l2386 015A  
                 i2l2378 00E2                   i2l1940 0804                   i2l1932 07EC  
                 i2l1924 07B4                   i2l1916 0758                   i2l1908 0714  
                 i2l1860 05C0                   i2l1852 0594                   i2l1844 0562  
                 i2l1836 0524                   i2l1828 04F0                   i2l1780 041E  
                 i2l1772 03EC                   i2l1764 03D4                   i2l1756 03A4  
                 i2l1748 0372                   i2l2396 02B0                   i2l2388 016C  
                 i2l1934 07EE                   i2l1926 07D4                   i2l1918 0792  
                 i2l1870 062C                   i2l1862 05C2                   i2l1854 05A2  
                 i2l1838 0526                   i2l1790 045A                   i2l1774 03FC  
                 i2l1782 0426                   i2l1766 03D6                   i2l1758 03AC  
                 i2l1950 0832                   i2l2398 02B4                   i2l1936 07F4  
                 i2l1928 07D8                   i2l1880 0684                   i2l1872 062E  
                 i2l1864 05CC                   i2l1856 05AE                   i2l1848 0576  
                 i2l1792 045E                   i2l1784 0436                   i2l1776 040C  
                 i2l1768 03DC                   i2l1960 0878                   i2l1952 0842  
                 i2l1944 0816                   i2l1938 0802                   i2l1890 06B2  
                 i2l1874 063E                   i2l1858 05B2                   i2l1866 05D2  
                 i2l1794 0462                   i2l1786 0448                   i2l1778 041C  
                 i2l1970 08A4                   i2l1962 087E                   i2l1954 0852  
                 i2l1946 0822                   i2l1892 06C0                   i2l1884 0698  
                 i2l1868 05F8                   i2l1876 064E                   i2l1796 0466  
                 i2l1788 0456                   i2l1980 08FA                   i2l1972 08B4  
                 i2l1964 0884                   i2l1956 0862                   i2l1948 0830  
                 i2l1894 06C8                   i2l1886 06A2                   i2l1878 0674  
                 i2l1798 046A                   i2l1990 093A                   i2l1974 08C4  
                 i2l1966 0892                   i2l1958 0868                   i2l1896 06CC  
                 i2l1888 06B0                   i2l1992 0946                   i2l1984 090E  
                 i2l1976 08CA                   i2l1968 0894                   i2l1898 06DC  
                 i2l1994 095E                   i2l1986 091A                   i2l1978 08EA  
                 i2l1996 096A                   i2l1988 0924                   i2l1998 0976  
                 _SSPBUF 000FC9         __end_of___xxtofl 11C4                ??_ReadSPI 0001  
                 ___flge 12CA                ??___fladd 0022                ??___awdiv 0005  
              ??___flmul 0009                ??___fltol 001E                   _count2 008A  
           ?_motorOutLSB 004C             ?_motorOutMSB 004C                   clear_0 155E  
       ___awdiv@quotient 0007                   isa$std 000001                   _number 0095  
              ??_medianF 0019         __end_of_setupQEI 15F6         __end_of_setupPWM 1660  
           __mediumconst 0000                   tblptrh 000FF7                   tblptrl 000FF6  
                 tblptru 000FF8             ?_setupTimer0 0001             ?_setupTimer2 0001  
           ?_setupTimer5 0001               ___flge@ff1 0001               ___flge@ff2 0005  
           ___xxtofl@arg 0032             ___xxtofl@exp 0031             ___xxtofl@val 0028  
             __accesstop 0060  __end_of__initialization 156C            ___rparam_used 000001  
             ___fltol@f1 001A           __pcstackCOMRAM 0001             __pidataBANK0 1680  
             __pbssBANK0 0060                  PID@duty 0048                  ?___flge 0001  
        motorOutLSB@duty 004C          motorOutMSB@duty 004C                  _IC2QEIE 007D1A  
                _IC2QEIF 007D22        motorOutLSB@buffer 0050        motorOutMSB@buffer 0052  
              ?___xxtofl 0028         ??_SPI_Init_Slave 0000                  _SSPCON1 000FC6  
                _SSPSTAT 000FC7            medianF@middle 0019                  _ReadSPI 162E  
                __Hparam 0000                  __Lparam 0000                ?_setupQEI 0001  
              ?_setupPWM 0001          __size_of___flge 0104                  ___fladd 0356  
                ___awdiv 13CE                  ___flmul 0816                  ___fltol 11C4  
           __psmallconst 0352                  __pcinit 1538                  __ramtop 0300  
                __ptext0 15B2                  __ptext1 1660                  __ptext2 1614  
                __ptext3 15D6                  __ptext4 1648                  __ptext5 1674  
                __ptext6 15F6                  __ptext8 1492                  __ptext9 14EE  
   __size_of_motorOutLSB 004A     __size_of_motorOutMSB 005C                _T0CONbits 000FD5  
                _medianF 0E5C             __size_of_PID 021C             __size_of_ISR 0346  
              _T2CONbits 000FCA             __size_of_abs 0034               ??___xxtofl 002C  
              _T5CONbits 000FB7                  _sum_err 007A     end_of_initialization 156C  
   __size_of_setupTimer0 001A     __size_of_setupTimer2 000C     __size_of_setupTimer5 0014  
             ??_setupQEI 0000                _RCSTAbits 000FAB               ??_setupPWM 0000  
                postdec1 000FE5                  postdec2 000FDD                  postinc0 000FEE  
                postinc2 000FDE                _PORTCbits 000F82              ___fladd@grs 0029  
          ___xxtofl@sign 0030                _TRISCbits 000F94                _TRISDbits 000F95  
            ___flmul@grs 000E              _CCP1CONbits 000FBD                _TXSTAbits 000FAC  
         __end_of___flge 13CE      start_initialization 1538              __end_of_PID 0E5C  
            __end_of_ISR 034E              __end_of_abs 15B2    motorOutLSB@bufferChar 0052  
               ??___flge 0009              __pdataBANK0 0091              _DFLTCONbits 000F60  
              ___fladd@a 001E                ___fladd@b 001A                ___flmul@a 0005  
              ___flmul@b 0001              __pbssCOMRAM 005B            __pcstackBANK0 0000  
      __size_of___xxtofl 01B4                 ?_ReadSPI 0001                __pintcode 0008  
               ?___fladd 001A                 ?___awdiv 0001                 ?___flmul 0001  
               ?___fltol 001A        __size_of_setupQEI 0020        __size_of_setupPWM 0018  
              _bufferRef 008E                 _CAP3BUFH 000F65                 _CAP3BUFL 000F64  
               ?_medianF 000D              __smallconst 0352                _firstTime 0098  
  motorOutMSB@bufferChar 0054                 _PIE1bits 000F9D                 _PIE3bits 000FA3  
               i2u120_40 040C                 i2u200_40 0FB0                 i2u120_41 0408  
               i2u200_41 0FAC                 i2u121_40 0448                 i2u113_40 158C  
               i2u201_40 0FFA                 i2u121_41 0444                 i2u113_41 1588  
               i2u201_41 0FF6                 i2u130_40 0562                 i2u122_40 0456  
               i2u114_40 0370                 i2u202_40 0D78                 i2u210_40 145A  
               i2u130_41 055E                 i2u122_41 0452                 i2u114_41 036C  
               i2u202_41 0D74                 i2u210_41 1456                 i2u131_40 0594  
               i2u123_40 04C4                 i2u115_40 0382                 i2u203_40 0DBA  
               i2u211_40 1480                 i2u131_41 0590                 i2u123_41 04C0  
               i2u115_41 037E                 i2u203_41 0DB6                 i2u211_41 147C  
               i2u140_40 06DC                 i2u132_40 05A2                 i2u124_40 04DC  
               i2u116_40 0392                 i2u204_40 0DD8                 i2u220_40 02C6  
               i2u212_40 0028                 i2u140_41 06D8                 i2u132_41 059E  
               i2u124_41 04D6                 i2u116_41 038E                 i2u204_41 0DD4  
               i2u220_41 02C2                 i2u212_41 0024                 i2u141_40 06EC  
               i2u133_40 05C0                 i2u125_40 04DE                 i2u117_40 03D4  
               i2u205_40 0E0E                 i2u213_40 0036                 i2u141_41 06E8  
               i2u133_41 05BC                 i2u117_41 03D0                 i2u205_41 0E0A  
               i2u213_41 0032                 i2u150_40 07D4                 i2u142_40 06FE  
               i2u134_40 05F8                 i2u126_40 0506                 i2u118_40 03EA  
               i2u206_40 13E0                 i2u214_40 007A                 i2u150_41 07D0  
               i2u142_41 06FA                 i2u134_41 05F4                 i2u126_41 0502  
               i2u118_41 03E6                 i2u206_41 13DC                 i2u214_41 0076  
               i2u151_40 07E6                 i2u143_40 0714                 i2u135_40 063E  
               i2u127_40 0524                 i2u119_40 03FC                 i2u207_40 13FA  
               i2u215_40 0092                 i2u151_41 07E2                 i2u143_41 0710  
               i2u135_41 063A                 i2u127_41 0520                 i2u119_41 03F8  
               i2u207_41 13F6                 i2u215_41 008E                 i2u152_40 0802  
               i2u144_40 072A                 i2u136_40 0674                 i2u128_40 0544  
               i2u160_40 08FA                 i2u208_40 1420                 i2u216_40 00AE  
               i2u152_41 07FE                 i2u144_41 0726                 i2u136_41 0670  
               i2u128_41 0540                 i2u160_41 08F6                 i2u208_41 141C  
               i2u216_41 00AA                 i2u145_40 073E                 i2u137_40 0684  
               i2u129_40 0552                 i2u161_40 0A74                 i2u153_40 0830  
               i2u209_40 143E                 i2u217_40 00E2                 i2u145_41 073A  
               i2u137_41 0680                 i2u129_41 054E                 i2u153_41 082C  
               i2u209_41 143A                 i2u217_41 00DE                 i2u161_45 0A6A  
               i2u146_40 0758                 i2u138_40 06B0                 i2u170_40 0BE8  
               i2u162_40 0ACE                 i2u154_40 0842                 i2u218_40 0116  
               i2u146_41 0754                 i2u138_41 06AC                 i2u170_41 0BE4  
               i2u162_41 0ACA                 i2u154_41 083E                 i2u218_41 0112  
               i2u147_40 0792                 i2u139_40 06C0                 i2u171_40 0C22  
               i2u163_40 0AEE                 i2u155_40 0852                 i2u219_40 016C  
               i2u147_41 078E                 i2u139_41 06BC                 i2u171_41 0C1E  
               i2u163_41 0AEA                 i2u155_41 084E                 i2u219_41 0168  
               i2u148_40 07A4                 i2u172_40 12F8                 i2u164_40 0B00  
               i2u156_40 0892                 i2u180_40 1250                 i2u148_41 07A0  
               i2u172_41 12F4                 i2u164_41 0AFC                 i2u156_41 088E  
               i2u180_41 124C                 i2u149_40 07B4                 i2u173_40 1336  
               i2u165_40 0B2E                 i2u157_40 08A4                 i2u181_40 1278  
               i2u149_41 07B0                 i2u173_41 1332                 i2u165_41 0B2A  
               i2u157_41 08A0                 i2u181_41 1274                 i2u174_40 1354  
               i2u166_40 0B44                 i2u158_40 08B4                 i2u182_40 1298  
               i2u190_40 115A                 i2u174_41 1350                 i2u166_41 0B40  
               i2u158_41 08B0                 i2u182_41 1294                 i2u190_41 1156  
               i2u175_40 1374                 i2u167_40 0B58                 i2u159_40 08EA  
               i2u183_40 12A8                 i2u191_40 1168                 i2u175_41 1370  
               i2u167_41 0B54                 i2u159_41 08E6                 i2u183_41 12A4  
               i2u191_41 1164                 i2u176_40 13C4                 i2u168_40 0B72  
               i2u192_40 11A2                 i2u184_40 1022                 i2u176_41 13C0  
               i2u168_41 0B6E                 i2u192_41 119E                 i2u184_41 101E  
               i2u169_40 0BBA                 i2u177_40 11DA                 i2u193_40 11B0  
               i2u185_40 1030                 i2u169_41 0BB6                 i2u177_41 11D6  
               i2u193_41 11AC                 i2u185_41 102C                 _PIR1bits 000F9E  
               i2u178_40 120E                 i2u186_40 108C                 i2u194_40 1644  
               i2u186_41 1088                 i2u194_41 1640                 i2u178_45 1204  
               i2u179_40 123C                 i2u187_40 10E2                 i2u195_40 0E8E  
               i2u179_41 1238                 i2u187_41 10DE                 i2u195_41 0E8A  
               i2u188_40 112C                 i2u196_40 0EC0                 i2u188_41 1128  
               i2u196_41 0EBC                 i2u189_40 114A                 i2u197_40 0EF2  
               i2u189_41 1146                 i2u197_41 0EEE                 i2u198_40 0F4C  
               i2u198_41 0F48                 i2u199_40 0F7E                 i2u199_41 0F7A  
          ??_motorOutLSB 0050            ??_motorOutMSB 0050            ??_setupTimer0 0000  
          ??_setupTimer2 0000            ??_setupTimer5 0000                copy_data0 154C  
       __size_of_ReadSPI 001A                 __Hrparam 0000  __size_of_SPI_Init_Slave 001E  
               __Lrparam 0000             __Lsmallconst 0352         __size_of___fladd 04C0  
       __size_of___awdiv 00C4         __size_of___flmul 042A         __size_of___fltol 0106  
       _RPM_CONSTANT_QEI 0091         __size_of_medianF 01B4      __end_of_motorOutLSB 1538  
    __end_of_motorOutMSB 14EE                 ___xxtofl 1010                 __ptext10 0E5C  
               __ptext11 13CE                 __ptext12 162E                 __ptext13 0C40  
               __ptext14 157E                 __ptext15 1010                 __ptext16 11C4  
               __ptext17 0816                 __ptext18 12CA                 __ptext19 0356  
          __size_of_main 0024      __end_of_setupTimer0 162E      __end_of_setupTimer2 1680  
    __end_of_setupTimer5 1674                 _speedPID 0086                 _speedRef 0097  
               _speedVal 0074                 isa$xinst 000000                 _setupQEI 15D6  
               _setupPWM 1648                 int$flags 005F                 medianF@a 000D  
               medianF@b 0011                 medianF@c 0015               _INTCONbits 000FF2  
             _QEICONbits 000FB6                 intlevel2 0000              _motorOutLSB 14EE  
            _motorOutMSB 1492              _SSPCON1bits 000FC6              _setupTimer0 1614  
            _setupTimer2 1674              _setupTimer5 1660            ___fladd@signs 0026  
           ___fladd@aexp 0027             ___fladd@bexp 0028           _SPI_Init_Slave 15F6  
