

Microchip MPLAB XC8 Assembler V2.32 build 20210201212658 
                                                                                               Wed Dec 15 12:54:12 2021

Microchip MPLAB XC8 C Compiler v2.32 (Free license) build 20210201212658 Og1 
     1                           	processor	18F4431
     2                           	fnconf	rparam,??,?,0
     3                           	pagewidth 120
     4                           	opt	flic
     5                           	psect	idataCOMRAM,global,class=CODE,delta=1,noexec
     6                           	psect	idataBANK0,global,class=CODE,delta=1,noexec
     7                           	psect	cinit,global,reloc=2,class=CODE,delta=1
     8                           	psect	bssCOMRAM,global,class=COMRAM,space=1,delta=1,lowdata,noexec
     9                           	psect	dataCOMRAM,global,class=COMRAM,space=1,delta=1,lowdata,noexec
    10                           	psect	bssBANK0,global,class=BANK0,space=1,delta=1,lowdata,noexec
    11                           	psect	dataBANK0,global,class=BANK0,space=1,delta=1,lowdata,noexec
    12                           	psect	cstackBANK0,global,class=BANK0,space=1,delta=1,lowdata,noexec
    13                           	psect	cstackCOMRAM,global,class=COMRAM,space=1,delta=1,lowdata,noexec
    14                           	psect	text0,global,reloc=2,class=CODE,delta=1
    15                           	psect	text1,global,reloc=2,class=CODE,delta=1
    16                           	psect	text2,global,reloc=2,class=CODE,delta=1
    17                           	psect	text3,global,reloc=2,class=CODE,delta=1
    18                           	psect	text4,global,reloc=2,class=CODE,delta=1
    19                           	psect	text5,global,reloc=2,class=CODE,delta=1
    20                           	psect	text6,global,reloc=2,class=CODE,delta=1
    21                           	psect	intcode,global,reloc=2,class=CODE,delta=1
    22                           	psect	text8,global,reloc=2,class=CODE,delta=1,group=1
    23                           	psect	text9,global,reloc=2,class=CODE,delta=1,group=1
    24                           	psect	text10,global,reloc=2,class=CODE,delta=1,group=1
    25                           	psect	text11,global,reloc=2,class=CODE,delta=1,group=1
    26                           	psect	text12,global,reloc=2,class=CODE,delta=1,group=1
    27                           	psect	text13,global,reloc=2,class=CODE,delta=1,group=1
    28                           	psect	text14,global,reloc=2,class=CODE,delta=1
    29                           	psect	intsave_regs,global,class=BIGRAM,space=1,delta=1,noexec
    30                           	psect	rparam,global,class=COMRAM,space=1,delta=1,noexec
    31                           	psect	temp,global,ovrld,common,class=COMRAM,space=1,delta=1
    32                           	psect	idloc,global,abs,ovrld,class=IDLOC,space=5,delta=1,noexec
    33                           	psect	config,global,abs,ovrld,class=CONFIG,space=4,delta=1,noexec
    34  0000                     
    35                           ; Version 2.20
    36                           ; Generated 12/02/2020 GMT
    37                           ; 
    38                           ; Copyright © 2020, Microchip Technology Inc. and its subsidiaries ("Microchip")
    39                           ; All rights reserved.
    40                           ; 
    41                           ; This software is developed by Microchip Technology Inc. and its subsidiaries ("Microch
      +                          ip").
    42                           ; 
    43                           ; Redistribution and use in source and binary forms, with or without modification, are
    44                           ; permitted provided that the following conditions are met:
    45                           ; 
    46                           ;     1. Redistributions of source code must retain the above copyright notice, this lis
      +                          t of
    47                           ;        conditions and the following disclaimer.
    48                           ; 
    49                           ;     2. Redistributions in binary form must reproduce the above copyright notice, this 
      +                          list
    50                           ;        of conditions and the following disclaimer in the documentation and/or other
    51                           ;        materials provided with the distribution.
    52                           ; 
    53                           ;     3. Microchip's name may not be used to endorse or promote products derived from th
      +                          is
    54                           ;        software without specific prior written permission.
    55                           ; 
    56                           ; THIS SOFTWARE IS PROVIDED BY MICROCHIP "AS IS" AND ANY EXPRESS OR IMPLIED WARRANTIES,
    57                           ; INCLUDING, BUT NOT LIMITED TO, THE IMPLIED WARRANTIES OF MERCHANTABILITY AND FITNESS F
      +                          OR
    58                           ; PURPOSE ARE DISCLAIMED.  IN NO EVENT SHALL MICROCHIP BE LIABLE FOR ANY DIRECT, INDIREC
      +                          T,
    59                           ; INCIDENTAL, SPECIAL, EXEMPLARY, OR CONSEQUENTIAL DAMAGES (INCLUDING BUT NOT LIMITED TO
    60                           ; PROCUREMENT OF SUBSTITUTE GOODS OR SERVICES; LOSS OF USE, DATA OR PROFITS; OR BUSINESS
    61                           ; INTERRUPTION) HOWSOEVER CAUSED AND ON ANY THEORY OF LIABILITY, WHETHER IN CONTRACT, ST
      +                          RICT
    62                           ; LIABILITY, OR TORT (INCLUDING NEGLIGENCE OR OTHERWISE) ARISING IN ANY WAY OUT OF THE U
      +                          SE OF
    63                           ; THIS SOFTWARE, EVEN IF ADVISED OF THE POSSIBILITY OF SUCH DAMAGE.
    64                           ; 
    65                           ; 
    66                           ; Code-generator required, PIC18F4431 Definitions
    67                           ; 
    68                           ; SFR Addresses
    69  0000                     
    70                           	psect	idataCOMRAM
    71  0011DA                     __pidataCOMRAM:
    72                           	callstack 0
    73                           
    74                           ;initializer for _number
    75  0011DA  0064               	dw	100
    76                           
    77                           ;initializer for _speedRef
    78  0011DC  64                 	db	100
    79                           
    80                           ;initializer for _firstTime
    81  0011DD  01                 	db	1
    82                           
    83                           	psect	idataBANK0
    84  0011C2                     __pidataBANK0:
    85                           	callstack 0
    86                           
    87                           ;initializer for _RPM_CONSTANT_QEI
    88  0011C2  6E36               	dw	28214
    89  0011C4  0001               	dw	1
    90                           
    91                           ;initializer for _Ki
    92  0011C6  B717               	dw	46871
    93  0011C8  3851               	dw	14417
    94                           
    95                           ;initializer for _Kp
    96  0011CA  0000               	dw	0
    97  0011CC  3F00               	dw	16128
    98  0000                     _TMR5	set	3975
    99  0000                     _TMR0	set	4054
   100  0000                     _TXREG	set	4013
   101  0000                     _RCREG	set	4014
   102  0000                     _T2CONbits	set	4042
   103  0000                     _T2CON	set	4042
   104  0000                     _PORTCbits	set	3970
   105  0000                     _CCP1CONbits	set	4029
   106  0000                     _PR2	set	4043
   107  0000                     _SPBRG	set	4015
   108  0000                     _PIE1bits	set	3997
   109  0000                     _RCSTAbits	set	4011
   110  0000                     _TXSTAbits	set	4012
   111  0000                     _TRISCbits	set	3988
   112  0000                     _ADCON1	set	4033
   113  0000                     _ADCON0	set	4034
   114  0000                     _SSPSTAT	set	4039
   115  0000                     _TRISDbits	set	3989
   116  0000                     _T5CONbits	set	4023
   117  0000                     _T0CONbits	set	4053
   118  0000                     _PIE3bits	set	4003
   119  0000                     _CAP3BUFL	set	3940
   120  0000                     _CAP3BUFH	set	3941
   121  0000                     _QEICONbits	set	4022
   122  0000                     _DFLTCONbits	set	3936
   123  0000                     _TRISD	set	3989
   124  0000                     _TRISB	set	3987
   125  0000                     _PORTB	set	3969
   126  0000                     _PORTD	set	3971
   127  0000                     _INTCONbits	set	4082
   128  0000                     _SSPCON1	set	4038
   129  0000                     _SSPCON1bits	set	4038
   130  0000                     _PIR1bits	set	3998
   131  0000                     _SSPBUF	set	4041
   132  0000                     _TRMT	set	32097
   133  0000                     _RCIF	set	31989
   134  0000                     _CS	set	31778
   135  0000                     _IC2QEIF	set	32034
   136  0000                     _IC2QEIE	set	32026
   137                           
   138                           ; #config settings
   139                           
   140                           	psect	cinit
   141  001056                     __pcinit:
   142                           	callstack 0
   143  001056                     start_initialization:
   144                           	callstack 0
   145  001056                     __initialization:
   146                           	callstack 0
   147                           
   148                           ; Initialize objects allocated to BANK0 (12 bytes)
   149                           ; load TBLPTR registers with __pidataBANK0
   150  001056  0EC2               	movlw	low __pidataBANK0
   151  001058  6EF6               	movwf	tblptrl,c
   152  00105A  0E11               	movlw	high __pidataBANK0
   153  00105C  6EF7               	movwf	tblptrh,c
   154  00105E  0E00               	movlw	low (__pidataBANK0 shr (0+16))
   155  001060  6EF8               	movwf	tblptru,c
   156  001062  EE00  F08A         	lfsr	0,__pdataBANK0
   157  001066  EE10 F00C          	lfsr	1,12
   158  00106A                     copy_data0:
   159  00106A  0009               	tblrd		*+
   160  00106C  CFF5 FFEE          	movff	tablat,postinc0
   161  001070  50E5               	movf	postdec1,w,c
   162  001072  50E1               	movf	fsr1l,w,c
   163  001074  E1FA               	bnz	copy_data0
   164                           
   165                           ; Initialize objects allocated to COMRAM (4 bytes)
   166                           ; load TBLPTR registers with __pidataCOMRAM
   167  001076  0EDA               	movlw	low __pidataCOMRAM
   168  001078  6EF6               	movwf	tblptrl,c
   169  00107A  0E11               	movlw	high __pidataCOMRAM
   170  00107C  6EF7               	movwf	tblptrh,c
   171  00107E  0E00               	movlw	low (__pidataCOMRAM shr (0+16))
   172  001080  6EF8               	movwf	tblptru,c
   173  001082  EE00  F05B         	lfsr	0,__pdataCOMRAM
   174  001086  EE10 F004          	lfsr	1,4
   175  00108A                     copy_data1:
   176  00108A  0009               	tblrd		*+
   177  00108C  CFF5 FFEE          	movff	tablat,postinc0
   178  001090  50E5               	movf	postdec1,w,c
   179  001092  50E1               	movf	fsr1l,w,c
   180  001094  E1FA               	bnz	copy_data1
   181                           
   182                           ; Clear objects allocated to BANK0 (42 bytes)
   183  001096  EE00  F060         	lfsr	0,__pbssBANK0
   184  00109A  0E2A               	movlw	42
   185  00109C                     clear_0:
   186  00109C  6AEE               	clrf	postinc0,c
   187  00109E  06E8               	decf	wreg,f,c
   188  0010A0  E1FD               	bnz	clear_0
   189                           
   190                           ; Clear objects allocated to COMRAM (29 bytes)
   191  0010A2  EE00  F03E         	lfsr	0,__pbssCOMRAM
   192  0010A6  0E1D               	movlw	29
   193  0010A8                     clear_1:
   194  0010A8  6AEE               	clrf	postinc0,c
   195  0010AA  06E8               	decf	wreg,f,c
   196  0010AC  E1FD               	bnz	clear_1
   197  0010AE                     end_of_initialization:
   198                           	callstack 0
   199  0010AE                     __end_of__initialization:
   200                           	callstack 0
   201  0010AE  905F               	bcf	int$flags,0,c	;clear compiler interrupt flag (level 1)
   202  0010B0  925F               	bcf	int$flags,1,c	;clear compiler interrupt flag (level 2)
   203  0010B2  0100               	movlb	0
   204  0010B4  EF7F  F008         	goto	_main	;jump to C main() function
   205                           
   206                           	psect	bssCOMRAM
   207  00003E                     __pbssCOMRAM:
   208                           	callstack 0
   209  00003E                     _sum_err:
   210                           	callstack 0
   211  00003E                     	ds	4
   212  000042                     _err:
   213                           	callstack 0
   214  000042                     	ds	4
   215  000046                     _duty:
   216                           	callstack 0
   217  000046                     	ds	4
   218  00004A                     _speed:
   219                           	callstack 0
   220  00004A                     	ds	4
   221  00004E                     _u:
   222                           	callstack 0
   223  00004E                     	ds	2
   224  000050                     _speedPID:
   225                           	callstack 0
   226  000050                     	ds	2
   227  000052                     _str:
   228                           	callstack 0
   229  000052                     	ds	2
   230  000054                     _count2:
   231                           	callstack 0
   232  000054                     	ds	2
   233  000056                     _count:
   234                           	callstack 0
   235  000056                     	ds	2
   236  000058                     _bufferRef:
   237                           	callstack 0
   238  000058                     	ds	1
   239  000059                     _ind:
   240                           	callstack 0
   241  000059                     	ds	1
   242  00005A                     _digit:
   243                           	callstack 0
   244  00005A                     	ds	1
   245                           
   246                           	psect	dataCOMRAM
   247  00005B                     __pdataCOMRAM:
   248                           	callstack 0
   249  00005B                     _number:
   250                           	callstack 0
   251  00005B                     	ds	2
   252  00005D                     _speedRef:
   253                           	callstack 0
   254  00005D                     	ds	1
   255  00005E                     _firstTime:
   256                           	callstack 0
   257  00005E                     	ds	1
   258                           
   259                           	psect	bssBANK0
   260  000060                     __pbssBANK0:
   261                           	callstack 0
   262  000060                     _stringBuffer:
   263                           	callstack 0
   264  000060                     	ds	20
   265  000074                     _speedVal:
   266                           	callstack 0
   267  000074                     	ds	6
   268  00007A                     _pre_err:
   269                           	callstack 0
   270  00007A                     	ds	4
   271  00007E                     _Kd:
   272                           	callstack 0
   273  00007E                     	ds	4
   274  000082                     _b:
   275                           	callstack 0
   276  000082                     	ds	4
   277  000086                     _a:
   278                           	callstack 0
   279  000086                     	ds	4
   280                           
   281                           	psect	dataBANK0
   282  00008A                     __pdataBANK0:
   283                           	callstack 0
   284  00008A                     _RPM_CONSTANT_QEI:
   285                           	callstack 0
   286  00008A                     	ds	4
   287  00008E                     _Ki:
   288                           	callstack 0
   289  00008E                     	ds	4
   290  000092                     _Kp:
   291                           	callstack 0
   292  000092                     	ds	4
   293                           
   294                           	psect	cstackBANK0
   295  000000                     __pcstackBANK0:
   296                           	callstack 0
   297  000000                     
   298                           ; 1 bytes @ 0x0
   299                           
   300                           	psect	cstackCOMRAM
   301  000001                     __pcstackCOMRAM:
   302                           	callstack 0
   303  000001                     ?___flmul:
   304                           	callstack 0
   305  000001                     ?___xxtofl:
   306                           	callstack 0
   307  000001                     ___flge@ff1:
   308                           	callstack 0
   309  000001                     ___flmul@b:
   310                           	callstack 0
   311  000001                     ___xxtofl@val:
   312                           	callstack 0
   313                           
   314                           ; 4 bytes @ 0x0
   315  000001                     	ds	4
   316  000005                     ??___xxtofl:
   317  000005                     ___flge@ff2:
   318                           	callstack 0
   319  000005                     ___flmul@a:
   320                           	callstack 0
   321                           
   322                           ; 4 bytes @ 0x4
   323  000005                     	ds	4
   324  000009                     ??___flmul:
   325  000009                     ??___flge:
   326  000009                     ___xxtofl@sign:
   327                           	callstack 0
   328                           
   329                           ; 1 bytes @ 0x8
   330  000009                     	ds	1
   331  00000A                     ___xxtofl@exp:
   332                           	callstack 0
   333                           
   334                           ; 1 bytes @ 0x9
   335  00000A                     	ds	1
   336  00000B                     ___xxtofl@arg:
   337                           	callstack 0
   338                           
   339                           ; 4 bytes @ 0xA
   340  00000B                     	ds	2
   341  00000D                     ___flmul@sign:
   342                           	callstack 0
   343                           
   344                           ; 1 bytes @ 0xC
   345  00000D                     	ds	1
   346  00000E                     ___flmul@grs:
   347                           	callstack 0
   348                           
   349                           ; 4 bytes @ 0xD
   350  00000E                     	ds	4
   351  000012                     ___flmul@aexp:
   352                           	callstack 0
   353                           
   354                           ; 1 bytes @ 0x11
   355  000012                     	ds	1
   356  000013                     ___flmul@bexp:
   357                           	callstack 0
   358                           
   359                           ; 1 bytes @ 0x12
   360  000013                     	ds	1
   361  000014                     ___flmul@prod:
   362                           	callstack 0
   363                           
   364                           ; 4 bytes @ 0x13
   365  000014                     	ds	4
   366  000018                     ___flmul@temp:
   367                           	callstack 0
   368                           
   369                           ; 2 bytes @ 0x17
   370  000018                     	ds	2
   371  00001A                     ?___fladd:
   372                           	callstack 0
   373  00001A                     ?___fltol:
   374                           	callstack 0
   375  00001A                     ___fltol@f1:
   376                           	callstack 0
   377  00001A                     ___fladd@b:
   378                           	callstack 0
   379                           
   380                           ; 4 bytes @ 0x19
   381  00001A                     	ds	4
   382  00001E                     ??___fltol:
   383  00001E                     ___fladd@a:
   384                           	callstack 0
   385                           
   386                           ; 4 bytes @ 0x1D
   387  00001E                     	ds	4
   388  000022                     ??___fladd:
   389  000022                     ___fltol@sign1:
   390                           	callstack 0
   391                           
   392                           ; 1 bytes @ 0x21
   393  000022                     	ds	1
   394  000023                     ___fltol@exp1:
   395                           	callstack 0
   396                           
   397                           ; 1 bytes @ 0x22
   398  000023                     	ds	3
   399  000026                     ___fladd@signs:
   400                           	callstack 0
   401                           
   402                           ; 1 bytes @ 0x25
   403  000026                     	ds	1
   404  000027                     ___fladd@aexp:
   405                           	callstack 0
   406                           
   407                           ; 1 bytes @ 0x26
   408  000027                     	ds	1
   409  000028                     ___fladd@bexp:
   410                           	callstack 0
   411                           
   412                           ; 1 bytes @ 0x27
   413  000028                     	ds	1
   414  000029                     ___fladd@grs:
   415                           	callstack 0
   416                           
   417                           ; 1 bytes @ 0x28
   418  000029                     	ds	1
   419  00002A                     ?___flsub:
   420                           	callstack 0
   421  00002A                     ___flsub@b:
   422                           	callstack 0
   423                           
   424                           ; 4 bytes @ 0x29
   425  00002A                     	ds	4
   426  00002E                     ___flsub@a:
   427                           	callstack 0
   428                           
   429                           ; 4 bytes @ 0x2D
   430  00002E                     	ds	4
   431  000032                     ??_ISR:
   432                           
   433                           ; 1 bytes @ 0x31
   434  000032                     	ds	4
   435  000036                     _ISR$1676:
   436                           	callstack 0
   437                           
   438                           ; 4 bytes @ 0x35
   439  000036                     	ds	4
   440  00003A                     _ISR$1677:
   441                           	callstack 0
   442                           
   443                           ; 4 bytes @ 0x39
   444  00003A                     	ds	4
   445                           
   446 ;;
   447 ;;Main: autosize = 0, tempsize = 0, incstack = 0, save=0
   448 ;;
   449 ;; *************** function _main *****************
   450 ;; Defined at:
   451 ;;		line 213 in file "motorMain.c"
   452 ;; Parameters:    Size  Location     Type
   453 ;;		None
   454 ;; Auto vars:     Size  Location     Type
   455 ;;		None
   456 ;; Return value:  Size  Location     Type
   457 ;;                  1    wreg      void 
   458 ;; Registers used:
   459 ;;		wreg, status,2, cstack
   460 ;; Tracked objects:
   461 ;;		On entry : 0/0
   462 ;;		On exit  : 0/0
   463 ;;		Unchanged: 0/0
   464 ;; Data sizes:     COMRAM   BANK0   BANK1   BANK2
   465 ;;      Params:         0       0       0       0
   466 ;;      Locals:         0       0       0       0
   467 ;;      Temps:          0       0       0       0
   468 ;;      Totals:         0       0       0       0
   469 ;;Total ram usage:        0 bytes
   470 ;; Hardware stack levels required when called: 5
   471 ;; This function calls:
   472 ;;		_SPI_Init_Slave
   473 ;;		_setupPWM
   474 ;;		_setupQEI
   475 ;;		_setupTimer0
   476 ;;		_setupTimer5
   477 ;; This function is called by:
   478 ;;		Startup code after reset
   479 ;; This function uses a non-reentrant model
   480 ;;
   481                           
   482                           	psect	text0
   483  0010FE                     __ptext0:
   484                           	callstack 0
   485  0010FE                     _main:
   486                           	callstack 26
   487  0010FE                     
   488                           ;motorMain.c: 214: TRISB = 0;
   489  0010FE  0E00               	movlw	0
   490  001100  6E93               	movwf	147,c	;volatile
   491  001102                     
   492                           ;motorMain.c: 215: TRISD = 0xFF;
   493  001102  6895               	setf	149,c	;volatile
   494  001104                     
   495                           ;motorMain.c: 216: INTCONbits.GIE = 1; INTCONbits.PEIE = 1;
   496  001104  8EF2               	bsf	242,7,c	;volatile
   497  001106  8CF2               	bsf	242,6,c	;volatile
   498  001108                     
   499                           ;motorMain.c: 217: setupQEI();
   500  001108  EC92  F008         	call	_setupQEI	;wreg free
   501  00110C                     
   502                           ;motorMain.c: 218: setupTimer5();
   503  00110C  ECD7  F008         	call	_setupTimer5	;wreg free
   504  001110                     
   505                           ;motorMain.c: 219: setupTimer0();
   506  001110  ECB1  F008         	call	_setupTimer0	;wreg free
   507  001114                     
   508                           ;motorMain.c: 220: setupPWM();
   509  001114  ECCB  F008         	call	_setupPWM	;wreg free
   510  001118                     
   511                           ;motorMain.c: 221: SPI_Init_Slave();
   512  001118  ECA2  F008         	call	_SPI_Init_Slave	;wreg free
   513  00111C                     l188:
   514  00111C  EF8E  F008         	goto	l188
   515  001120  EFD5  F001         	goto	start
   516  001124                     __end_of_main:
   517                           	callstack 0
   518                           
   519 ;; *************** function _setupTimer5 *****************
   520 ;; Defined at:
   521 ;;		line 262 in file "motorMain.c"
   522 ;; Parameters:    Size  Location     Type
   523 ;;		None
   524 ;; Auto vars:     Size  Location     Type
   525 ;;		None
   526 ;; Return value:  Size  Location     Type
   527 ;;                  1    wreg      void 
   528 ;; Registers used:
   529 ;;		wreg, status,2
   530 ;; Tracked objects:
   531 ;;		On entry : 0/0
   532 ;;		On exit  : 0/0
   533 ;;		Unchanged: 0/0
   534 ;; Data sizes:     COMRAM   BANK0   BANK1   BANK2
   535 ;;      Params:         0       0       0       0
   536 ;;      Locals:         0       0       0       0
   537 ;;      Temps:          0       0       0       0
   538 ;;      Totals:         0       0       0       0
   539 ;;Total ram usage:        0 bytes
   540 ;; Hardware stack levels used: 1
   541 ;; Hardware stack levels required when called: 3
   542 ;; This function calls:
   543 ;;		Nothing
   544 ;; This function is called by:
   545 ;;		_main
   546 ;; This function uses a non-reentrant model
   547 ;;
   548                           
   549                           	psect	text1
   550  0011AE                     __ptext1:
   551                           	callstack 0
   552  0011AE                     _setupTimer5:
   553                           	callstack 27
   554  0011AE                     
   555                           ;motorMain.c: 263: T5CONbits.TMR5CS = 0;
   556  0011AE  92B7               	bcf	183,1,c	;volatile
   557                           
   558                           ;motorMain.c: 264: T5CONbits.T5PS0 = 0;
   559  0011B0  96B7               	bcf	183,3,c	;volatile
   560                           
   561                           ;motorMain.c: 265: T5CONbits.T5PS1 = 0;
   562  0011B2  98B7               	bcf	183,4,c	;volatile
   563                           
   564                           ;motorMain.c: 266: T5CONbits.T5MOD = 0;
   565  0011B4  9AB7               	bcf	183,5,c	;volatile
   566  0011B6                     
   567                           ;motorMain.c: 267: TMR5 = 0;
   568  0011B6  0E00               	movlw	0
   569  0011B8  6E88               	movwf	136,c	;volatile
   570  0011BA  0E00               	movlw	0
   571  0011BC  6E87               	movwf	135,c	;volatile
   572  0011BE                     
   573                           ;motorMain.c: 268: T5CONbits.TMR5ON = 1;
   574  0011BE  80B7               	bsf	183,0,c	;volatile
   575  0011C0  0012               	return		;funcret
   576  0011C2                     __end_of_setupTimer5:
   577                           	callstack 0
   578                           
   579 ;; *************** function _setupTimer0 *****************
   580 ;; Defined at:
   581 ;;		line 247 in file "motorMain.c"
   582 ;; Parameters:    Size  Location     Type
   583 ;;		None
   584 ;; Auto vars:     Size  Location     Type
   585 ;;		None
   586 ;; Return value:  Size  Location     Type
   587 ;;                  1    wreg      void 
   588 ;; Registers used:
   589 ;;		wreg, status,2
   590 ;; Tracked objects:
   591 ;;		On entry : 0/0
   592 ;;		On exit  : 0/0
   593 ;;		Unchanged: 0/0
   594 ;; Data sizes:     COMRAM   BANK0   BANK1   BANK2
   595 ;;      Params:         0       0       0       0
   596 ;;      Locals:         0       0       0       0
   597 ;;      Temps:          0       0       0       0
   598 ;;      Totals:         0       0       0       0
   599 ;;Total ram usage:        0 bytes
   600 ;; Hardware stack levels used: 1
   601 ;; Hardware stack levels required when called: 3
   602 ;; This function calls:
   603 ;;		Nothing
   604 ;; This function is called by:
   605 ;;		_main
   606 ;; This function uses a non-reentrant model
   607 ;;
   608                           
   609                           	psect	text2
   610  001162                     __ptext2:
   611                           	callstack 0
   612  001162                     _setupTimer0:
   613                           	callstack 27
   614  001162                     
   615                           ;motorMain.c: 248: INTCONbits.TMR0IE = 1;
   616  001162  8AF2               	bsf	242,5,c	;volatile
   617                           
   618                           ;motorMain.c: 249: T0CONbits.T016BIT = 1;
   619  001164  8CD5               	bsf	213,6,c	;volatile
   620                           
   621                           ;motorMain.c: 250: T0CONbits.T0CS = 0;
   622  001166  9AD5               	bcf	213,5,c	;volatile
   623                           
   624                           ;motorMain.c: 254: T0CONbits.PSA = 0;
   625  001168  96D5               	bcf	213,3,c	;volatile
   626                           
   627                           ;motorMain.c: 255: T0CONbits.T0PS2 = 1;
   628  00116A  84D5               	bsf	213,2,c	;volatile
   629                           
   630                           ;motorMain.c: 256: T0CONbits.T0PS1 = 1;
   631  00116C  82D5               	bsf	213,1,c	;volatile
   632                           
   633                           ;motorMain.c: 257: T0CONbits.T0PS0 = 1;
   634  00116E  80D5               	bsf	213,0,c	;volatile
   635  001170                     
   636                           ;motorMain.c: 258: TMR0 = 60;
   637  001170  0E00               	movlw	0
   638  001172  6ED7               	movwf	215,c	;volatile
   639  001174  0E3C               	movlw	60
   640  001176  6ED6               	movwf	214,c	;volatile
   641  001178                     
   642                           ;motorMain.c: 259: T0CONbits.TMR0ON = 1;
   643  001178  8ED5               	bsf	213,7,c	;volatile
   644  00117A  0012               	return		;funcret
   645  00117C                     __end_of_setupTimer0:
   646                           	callstack 0
   647                           
   648 ;; *************** function _setupQEI *****************
   649 ;; Defined at:
   650 ;;		line 229 in file "motorMain.c"
   651 ;; Parameters:    Size  Location     Type
   652 ;;		None
   653 ;; Auto vars:     Size  Location     Type
   654 ;;		None
   655 ;; Return value:  Size  Location     Type
   656 ;;                  1    wreg      void 
   657 ;; Registers used:
   658 ;;		wreg, status,2
   659 ;; Tracked objects:
   660 ;;		On entry : 0/0
   661 ;;		On exit  : 0/0
   662 ;;		Unchanged: 0/0
   663 ;; Data sizes:     COMRAM   BANK0   BANK1   BANK2
   664 ;;      Params:         0       0       0       0
   665 ;;      Locals:         0       0       0       0
   666 ;;      Temps:          0       0       0       0
   667 ;;      Totals:         0       0       0       0
   668 ;;Total ram usage:        0 bytes
   669 ;; Hardware stack levels used: 1
   670 ;; Hardware stack levels required when called: 3
   671 ;; This function calls:
   672 ;;		Nothing
   673 ;; This function is called by:
   674 ;;		_main
   675 ;; This function uses a non-reentrant model
   676 ;;
   677                           
   678                           	psect	text3
   679  001124                     __ptext3:
   680                           	callstack 0
   681  001124                     _setupQEI:
   682                           	callstack 27
   683  001124                     
   684                           ;motorMain.c: 230: DFLTCONbits.FLT3EN = 0;
   685  001124  9A60               	bcf	96,5,c	;volatile
   686                           
   687                           ;motorMain.c: 231: DFLTCONbits.FLT2EN = 0;
   688  001126  9860               	bcf	96,4,c	;volatile
   689  001128                     
   690                           ;motorMain.c: 232: DFLTCONbits.FLTCK = 0;
   691  001128  0EF8               	movlw	-8
   692  00112A  1660               	andwf	96,f,c	;volatile
   693  00112C                     
   694                           ;motorMain.c: 234: QEICONbits.nVELM = 1;
   695  00112C  8EB6               	bsf	182,7,c	;volatile
   696  00112E                     
   697                           ;motorMain.c: 236: QEICONbits.QEIM2 = 1;
   698  00112E  88B6               	bsf	182,4,c	;volatile
   699  001130                     
   700                           ;motorMain.c: 237: QEICONbits.QEIM1 = 1;
   701  001130  86B6               	bsf	182,3,c	;volatile
   702  001132                     
   703                           ;motorMain.c: 238: QEICONbits.QEIM0 = 0;
   704  001132  94B6               	bcf	182,2,c	;volatile
   705                           
   706                           ;motorMain.c: 239: CAP3BUFH = 0x00; CAP3BUFL = 1;
   707  001134  0E00               	movlw	0
   708  001136  6E65               	movwf	101,c	;volatile
   709  001138  0E01               	movlw	1
   710  00113A  6E64               	movwf	100,c	;volatile
   711  00113C                     
   712                           ;motorMain.c: 241: QEICONbits.PDEC0 = 0;
   713  00113C  90B6               	bcf	182,0,c	;volatile
   714  00113E                     
   715                           ;motorMain.c: 242: QEICONbits.PDEC1 = 0;
   716  00113E  92B6               	bcf	182,1,c	;volatile
   717  001140                     
   718                           ;motorMain.c: 243: PIE3bits.IC2QEIE = 1;
   719  001140  84A3               	bsf	163,2,c	;volatile
   720  001142  0012               	return		;funcret
   721  001144                     __end_of_setupQEI:
   722                           	callstack 0
   723                           
   724 ;; *************** function _setupPWM *****************
   725 ;; Defined at:
   726 ;;		line 326 in file "motorMain.c"
   727 ;; Parameters:    Size  Location     Type
   728 ;;		None
   729 ;; Auto vars:     Size  Location     Type
   730 ;;		None
   731 ;; Return value:  Size  Location     Type
   732 ;;                  1    wreg      void 
   733 ;; Registers used:
   734 ;;		wreg, status,2, cstack
   735 ;; Tracked objects:
   736 ;;		On entry : 0/0
   737 ;;		On exit  : 0/0
   738 ;;		Unchanged: 0/0
   739 ;; Data sizes:     COMRAM   BANK0   BANK1   BANK2
   740 ;;      Params:         0       0       0       0
   741 ;;      Locals:         0       0       0       0
   742 ;;      Temps:          0       0       0       0
   743 ;;      Totals:         0       0       0       0
   744 ;;Total ram usage:        0 bytes
   745 ;; Hardware stack levels used: 1
   746 ;; Hardware stack levels required when called: 4
   747 ;; This function calls:
   748 ;;		_setupTimer2
   749 ;; This function is called by:
   750 ;;		_main
   751 ;; This function uses a non-reentrant model
   752 ;;
   753                           
   754                           	psect	text4
   755  001196                     __ptext4:
   756                           	callstack 0
   757  001196                     _setupPWM:
   758                           	callstack 26
   759  001196                     
   760                           ;motorMain.c: 328: TRISCbits.RC2 = 0;
   761  001196  9494               	bcf	148,2,c	;volatile
   762                           
   763                           ;motorMain.c: 329: TRISCbits.RC6 = 1;
   764  001198  8C94               	bsf	148,6,c	;volatile
   765                           
   766                           ;motorMain.c: 330: PR2 = 0xFF;
   767  00119A  68CB               	setf	203,c	;volatile
   768  00119C                     
   769                           ;motorMain.c: 331: setupTimer2();
   770  00119C  ECE7  F008         	call	_setupTimer2	;wreg free
   771  0011A0                     
   772                           ;motorMain.c: 333: CCP1CONbits.CCP1M3 = 1;
   773  0011A0  86BD               	bsf	189,3,c	;volatile
   774  0011A2                     
   775                           ;motorMain.c: 334: CCP1CONbits.CCP1M2 = 1;
   776  0011A2  84BD               	bsf	189,2,c	;volatile
   777  0011A4                     
   778                           ;motorMain.c: 336: TRISCbits.RC0 = 0;
   779  0011A4  9094               	bcf	148,0,c	;volatile
   780  0011A6                     
   781                           ;motorMain.c: 337: TRISCbits.RC1 = 0;
   782  0011A6  9294               	bcf	148,1,c	;volatile
   783  0011A8                     
   784                           ;motorMain.c: 338: PORTCbits.RC0 = 1;
   785  0011A8  8082               	bsf	130,0,c	;volatile
   786  0011AA                     
   787                           ;motorMain.c: 339: PORTCbits.RC1 = 0;
   788  0011AA  9282               	bcf	130,1,c	;volatile
   789  0011AC  0012               	return		;funcret
   790  0011AE                     __end_of_setupPWM:
   791                           	callstack 0
   792                           
   793 ;; *************** function _setupTimer2 *****************
   794 ;; Defined at:
   795 ;;		line 342 in file "motorMain.c"
   796 ;; Parameters:    Size  Location     Type
   797 ;;		None
   798 ;; Auto vars:     Size  Location     Type
   799 ;;		None
   800 ;; Return value:  Size  Location     Type
   801 ;;                  1    wreg      void 
   802 ;; Registers used:
   803 ;;		wreg, status,2
   804 ;; Tracked objects:
   805 ;;		On entry : 0/0
   806 ;;		On exit  : 0/0
   807 ;;		Unchanged: 0/0
   808 ;; Data sizes:     COMRAM   BANK0   BANK1   BANK2
   809 ;;      Params:         0       0       0       0
   810 ;;      Locals:         0       0       0       0
   811 ;;      Temps:          0       0       0       0
   812 ;;      Totals:         0       0       0       0
   813 ;;Total ram usage:        0 bytes
   814 ;; Hardware stack levels used: 1
   815 ;; Hardware stack levels required when called: 3
   816 ;; This function calls:
   817 ;;		Nothing
   818 ;; This function is called by:
   819 ;;		_setupPWM
   820 ;; This function uses a non-reentrant model
   821 ;;
   822                           
   823                           	psect	text5
   824  0011CE                     __ptext5:
   825                           	callstack 0
   826  0011CE                     _setupTimer2:
   827                           	callstack 26
   828  0011CE                     
   829                           ;motorMain.c: 344: T2CON = 0;
   830  0011CE  0E00               	movlw	0
   831  0011D0  6ECA               	movwf	202,c	;volatile
   832  0011D2                     
   833                           ;motorMain.c: 345: T2CONbits.T2CKPS0 = 1;
   834  0011D2  80CA               	bsf	202,0,c	;volatile
   835  0011D4                     
   836                           ;motorMain.c: 346: T2CONbits.T2CKPS1 = 1;
   837  0011D4  82CA               	bsf	202,1,c	;volatile
   838  0011D6                     
   839                           ;motorMain.c: 347: T2CONbits.TMR2ON = 1;
   840  0011D6  84CA               	bsf	202,2,c	;volatile
   841  0011D8  0012               	return		;funcret
   842  0011DA                     __end_of_setupTimer2:
   843                           	callstack 0
   844                           
   845 ;; *************** function _SPI_Init_Slave *****************
   846 ;; Defined at:
   847 ;;		line 292 in file "motorMain.c"
   848 ;; Parameters:    Size  Location     Type
   849 ;;		None
   850 ;; Auto vars:     Size  Location     Type
   851 ;;		None
   852 ;; Return value:  Size  Location     Type
   853 ;;                  1    wreg      void 
   854 ;; Registers used:
   855 ;;		wreg, status,2
   856 ;; Tracked objects:
   857 ;;		On entry : 0/0
   858 ;;		On exit  : 0/0
   859 ;;		Unchanged: 0/0
   860 ;; Data sizes:     COMRAM   BANK0   BANK1   BANK2
   861 ;;      Params:         0       0       0       0
   862 ;;      Locals:         0       0       0       0
   863 ;;      Temps:          0       0       0       0
   864 ;;      Totals:         0       0       0       0
   865 ;;Total ram usage:        0 bytes
   866 ;; Hardware stack levels used: 1
   867 ;; Hardware stack levels required when called: 3
   868 ;; This function calls:
   869 ;;		Nothing
   870 ;; This function is called by:
   871 ;;		_main
   872 ;; This function uses a non-reentrant model
   873 ;;
   874                           
   875                           	psect	text6
   876  001144                     __ptext6:
   877                           	callstack 0
   878  001144                     _SPI_Init_Slave:
   879                           	callstack 27
   880  001144                     
   881                           ;motorMain.c: 294: TRISCbits.TRISC4 = 1;
   882  001144  8894               	bsf	148,4,c	;volatile
   883                           
   884                           ;motorMain.c: 295: TRISCbits.TRISC5 = 1;
   885  001146  8A94               	bsf	148,5,c	;volatile
   886                           
   887                           ;motorMain.c: 296: TRISCbits.TRISC6 = 1;
   888  001148  8C94               	bsf	148,6,c	;volatile
   889                           
   890                           ;motorMain.c: 297: TRISCbits.TRISC7 = 0;
   891  00114A  9E94               	bcf	148,7,c	;volatile
   892                           
   893                           ;motorMain.c: 300: CS = 1;
   894  00114C  8484               	bsf	3972,2,c	;volatile
   895  00114E                     
   896                           ;motorMain.c: 301: SSPSTAT=0x40;
   897  00114E  0E40               	movlw	64
   898  001150  6EC7               	movwf	199,c	;volatile
   899                           
   900                           ;motorMain.c: 302: SSPCON1=0x24;
   901  001152  0E24               	movlw	36
   902  001154  6EC6               	movwf	198,c	;volatile
   903  001156                     
   904                           ;motorMain.c: 304: PIR1bits.SSPIF=0;
   905  001156  969E               	bcf	158,3,c	;volatile
   906                           
   907                           ;motorMain.c: 308: ADCON0=0;
   908  001158  0E00               	movlw	0
   909  00115A  6EC2               	movwf	194,c	;volatile
   910                           
   911                           ;motorMain.c: 310: ADCON1=0x0F;
   912  00115C  0E0F               	movlw	15
   913  00115E  6EC1               	movwf	193,c	;volatile
   914  001160  0012               	return		;funcret
   915  001162                     __end_of_SPI_Init_Slave:
   916                           	callstack 0
   917                           
   918 ;; *************** function _ISR *****************
   919 ;; Defined at:
   920 ;;		line 165 in file "motorMain.c"
   921 ;; Parameters:    Size  Location     Type
   922 ;;		None
   923 ;; Auto vars:     Size  Location     Type
   924 ;;		None
   925 ;; Return value:  Size  Location     Type
   926 ;;                  1    wreg      void 
   927 ;; Registers used:
   928 ;;		wreg, status,2, status,0, prodl, prodh, cstack
   929 ;; Tracked objects:
   930 ;;		On entry : 0/0
   931 ;;		On exit  : 0/0
   932 ;;		Unchanged: 0/0
   933 ;; Data sizes:     COMRAM   BANK0   BANK1   BANK2
   934 ;;      Params:         0       0       0       0
   935 ;;      Locals:         8       0       0       0
   936 ;;      Temps:          4       0       0       0
   937 ;;      Totals:        12       0       0       0
   938 ;;Total ram usage:       12 bytes
   939 ;; Hardware stack levels used: 1
   940 ;; Hardware stack levels required when called: 2
   941 ;; This function calls:
   942 ;;		_ReadSPI
   943 ;;		___fladd
   944 ;;		___flge
   945 ;;		___flmul
   946 ;;		___flsub
   947 ;;		___fltol
   948 ;;		___xxtofl
   949 ;; This function is called by:
   950 ;;		Interrupt level 2
   951 ;; This function uses a non-reentrant model
   952 ;;
   953                           
   954                           	psect	intcode
   955  000008                     __pintcode:
   956                           	callstack 0
   957  000008                     _ISR:
   958                           	callstack 26
   959                           
   960                           ;incstack = 0
   961  000008  825F               	bsf	int$flags,1,c	;set compiler interrupt flag (level 2)
   962  00000A  CFF3 F034          	movff	prodl,??_ISR+2
   963  00000E  CFF4 F035          	movff	prodh,??_ISR+3
   964  000012                     
   965                           ;motorMain.c: 167: if(IC2QEIE && IC2QEIF) {
   966  000012  A4A3               	btfss	4003,2,c	;volatile
   967  000014  EF0E  F000         	goto	i2u188_41
   968  000018  EF10  F000         	goto	i2u188_40
   969  00001C                     i2u188_41:
   970  00001C  EF32  F000         	goto	i2l2195
   971  000020                     i2u188_40:
   972  000020  A4A4               	btfss	4004,2,c	;volatile
   973  000022  EF15  F000         	goto	i2u189_41
   974  000026  EF17  F000         	goto	i2u189_40
   975  00002A                     i2u189_41:
   976  00002A  EF32  F000         	goto	i2l2195
   977  00002E                     i2u189_40:
   978  00002E                     
   979                           ;motorMain.c: 168: speed = speed + 1;
   980  00002E  C04A  F01A         	movff	_speed,___fladd@b
   981  000032  C04B  F01B         	movff	_speed+1,___fladd@b+1
   982  000036  C04C  F01C         	movff	_speed+2,___fladd@b+2
   983  00003A  C04D  F01D         	movff	_speed+3,___fladd@b+3
   984  00003E  0E00               	movlw	0
   985  000040  6E1E               	movwf	___fladd@a^0,c
   986  000042  0E00               	movlw	0
   987  000044  6E1F               	movwf	(___fladd@a+1)^0,c
   988  000046  0E80               	movlw	128
   989  000048  6E20               	movwf	(___fladd@a+2)^0,c
   990  00004A  0E3F               	movlw	63
   991  00004C  6E21               	movwf	(___fladd@a+3)^0,c
   992  00004E  ECD7  F001         	call	___fladd	;wreg free
   993  000052  C01A  F04A         	movff	?___fladd,_speed
   994  000056  C01B  F04B         	movff	?___fladd+1,_speed+1
   995  00005A  C01C  F04C         	movff	?___fladd+2,_speed+2
   996  00005E  C01D  F04D         	movff	?___fladd+3,_speed+3
   997  000062                     
   998                           ;motorMain.c: 169: IC2QEIF = 0;
   999  000062  94A4               	bcf	4004,2,c	;volatile
  1000  000064                     i2l2195:
  1001                           
  1002                           ;motorMain.c: 170: };motorMain.c: 171: if(INTCONbits.TMR0IF==1) {
  1003  000064  A4F2               	btfss	242,2,c	;volatile
  1004  000066  EF37  F000         	goto	i2u190_41
  1005  00006A  EF39  F000         	goto	i2u190_40
  1006  00006E                     i2u190_41:
  1007  00006E  EFCF  F001         	goto	i2l183
  1008  000072                     i2u190_40:
  1009  000072                     
  1010                           ;motorMain.c: 172: bufferRef = ReadSPI();
  1011  000072  ECBE  F008         	call	_ReadSPI	;wreg free
  1012  000076  6E58               	movwf	_bufferRef^0,c
  1013  000078                     
  1014                           ;motorMain.c: 173: if (bufferRef==0) {
  1015  000078  5058               	movf	_bufferRef^0,w,c
  1016  00007A  A4D8               	btfss	status,2,c
  1017  00007C  EF42  F000         	goto	i2u191_41
  1018  000080  EF44  F000         	goto	i2u191_40
  1019  000084                     i2u191_41:
  1020  000084  EF46  F000         	goto	i2l178
  1021  000088                     i2u191_40:
  1022  000088  EF48  F000         	goto	i2l2203
  1023  00008C                     i2l178:
  1024                           
  1025                           ;motorMain.c: 176: else speedRef = bufferRef;
  1026  00008C  C058  F05D         	movff	_bufferRef,_speedRef
  1027  000090                     i2l2203:
  1028                           
  1029                           ;motorMain.c: 190: count++;
  1030  000090  4A56               	infsnz	_count^0,f,c
  1031  000092  2A57               	incf	(_count+1)^0,f,c
  1032  000094                     
  1033                           ;motorMain.c: 192: if (count==1) {
  1034  000094  0456               	decf	_count^0,w,c
  1035  000096  1057               	iorwf	(_count+1)^0,w,c
  1036  000098  A4D8               	btfss	status,2,c
  1037  00009A  EF51  F000         	goto	i2u192_41
  1038  00009E  EF53  F000         	goto	i2u192_40
  1039  0000A2                     i2u192_41:
  1040  0000A2  EFCE  F001         	goto	i2l2241
  1041  0000A6                     i2u192_40:
  1042  0000A6                     
  1043                           ;motorMain.c: 194: speed = PORTD;
  1044  0000A6  5083               	movf	131,w,c	;volatile
  1045  0000A8  6E01               	movwf	___xxtofl@val^0,c
  1046  0000AA  6A02               	clrf	(___xxtofl@val+1)^0,c
  1047  0000AC  6A03               	clrf	(___xxtofl@val+2)^0,c
  1048  0000AE  6A04               	clrf	(___xxtofl@val+3)^0,c
  1049  0000B0  0E00               	movlw	0
  1050  0000B2  EC4C  F006         	call	___xxtofl
  1051  0000B6  C001  F04A         	movff	?___xxtofl,_speed
  1052  0000BA  C002  F04B         	movff	?___xxtofl+1,_speed+1
  1053  0000BE  C003  F04C         	movff	?___xxtofl+2,_speed+2
  1054  0000C2  C004  F04D         	movff	?___xxtofl+3,_speed+3
  1055  0000C6                     
  1056                           ;motorMain.c: 195: speedPID = (int)(speed*1.435294);
  1057  0000C6  0EB7               	movlw	183
  1058  0000C8  6E05               	movwf	___flmul@a^0,c
  1059  0000CA  0EB7               	movlw	183
  1060  0000CC  6E06               	movwf	(___flmul@a+1)^0,c
  1061  0000CE  0EB7               	movlw	183
  1062  0000D0  6E07               	movwf	(___flmul@a+2)^0,c
  1063  0000D2  0E3F               	movlw	63
  1064  0000D4  6E08               	movwf	(___flmul@a+3)^0,c
  1065  0000D6  C04A  F001         	movff	_speed,___flmul@b
  1066  0000DA  C04B  F002         	movff	_speed+1,___flmul@b+1
  1067  0000DE  C04C  F003         	movff	_speed+2,___flmul@b+2
  1068  0000E2  C04D  F004         	movff	_speed+3,___flmul@b+3
  1069  0000E6  EC37  F004         	call	___flmul	;wreg free
  1070  0000EA  C001  F01A         	movff	?___flmul,___fltol@f1
  1071  0000EE  C002  F01B         	movff	?___flmul+1,___fltol@f1+1
  1072  0000F2  C003  F01C         	movff	?___flmul+2,___fltol@f1+2
  1073  0000F6  C004  F01D         	movff	?___flmul+3,___fltol@f1+3
  1074  0000FA  EC26  F007         	call	___fltol	;wreg free
  1075  0000FE  C01A  F050         	movff	?___fltol,_speedPID
  1076  000102  C01B  F051         	movff	?___fltol+1,_speedPID+1
  1077  000106                     
  1078                           ;motorMain.c: 196: duty = 0;
  1079  000106  0E00               	movlw	0
  1080  000108  6E46               	movwf	_duty^0,c
  1081  00010A  0E00               	movlw	0
  1082  00010C  6E47               	movwf	(_duty+1)^0,c
  1083  00010E  0E00               	movlw	0
  1084  000110  6E48               	movwf	(_duty+2)^0,c
  1085  000112  0E00               	movlw	0
  1086  000114  6E49               	movwf	(_duty+3)^0,c
  1087  000116                     
  1088                           ;motorMain.c: 197: err = speedRef - speedPID;
  1089  000116  505D               	movf	_speedRef^0,w,c
  1090  000118  6E32               	movwf	??_ISR^0,c
  1091  00011A  6A33               	clrf	(??_ISR+1)^0,c
  1092  00011C  5050               	movf	_speedPID^0,w,c
  1093  00011E  5E32               	subwf	??_ISR^0,f,c
  1094  000120  5051               	movf	(_speedPID+1)^0,w,c
  1095  000122  5A33               	subwfb	(??_ISR+1)^0,f,c
  1096  000124  C032  F001         	movff	??_ISR,___xxtofl@val
  1097  000128  C033  F002         	movff	??_ISR+1,___xxtofl@val+1
  1098  00012C  0E00               	movlw	0
  1099  00012E  BE02               	btfsc	(___xxtofl@val+1)^0,7,c
  1100  000130  0EFF               	movlw	-1
  1101  000132  6E03               	movwf	(___xxtofl@val+2)^0,c
  1102  000134  6E04               	movwf	(___xxtofl@val+3)^0,c
  1103  000136  0E01               	movlw	1
  1104  000138  EC4C  F006         	call	___xxtofl
  1105  00013C  C001  F042         	movff	?___xxtofl,_err
  1106  000140  C002  F043         	movff	?___xxtofl+1,_err+1
  1107  000144  C003  F044         	movff	?___xxtofl+2,_err+2
  1108  000148  C004  F045         	movff	?___xxtofl+3,_err+3
  1109  00014C                     
  1110                           ;motorMain.c: 198: sum_err = sum_err + err;
  1111  00014C  C03E  F01A         	movff	_sum_err,___fladd@b
  1112  000150  C03F  F01B         	movff	_sum_err+1,___fladd@b+1
  1113  000154  C040  F01C         	movff	_sum_err+2,___fladd@b+2
  1114  000158  C041  F01D         	movff	_sum_err+3,___fladd@b+3
  1115  00015C  C042  F01E         	movff	_err,___fladd@a
  1116  000160  C043  F01F         	movff	_err+1,___fladd@a+1
  1117  000164  C044  F020         	movff	_err+2,___fladd@a+2
  1118  000168  C045  F021         	movff	_err+3,___fladd@a+3
  1119  00016C  ECD7  F001         	call	___fladd	;wreg free
  1120  000170  C01A  F03E         	movff	?___fladd,_sum_err
  1121  000174  C01B  F03F         	movff	?___fladd+1,_sum_err+1
  1122  000178  C01C  F040         	movff	?___fladd+2,_sum_err+2
  1123  00017C  C01D  F041         	movff	?___fladd+3,_sum_err+3
  1124  000180                     
  1125                           ;motorMain.c: 199: duty = Kp*err + Ki*sum_err + Kd*(err-pre_err);
  1126  000180  C03E  F005         	movff	_sum_err,___flmul@a
  1127  000184  C03F  F006         	movff	_sum_err+1,___flmul@a+1
  1128  000188  C040  F007         	movff	_sum_err+2,___flmul@a+2
  1129  00018C  C041  F008         	movff	_sum_err+3,___flmul@a+3
  1130  000190  C08E  F001         	movff	_Ki,___flmul@b
  1131  000194  C08F  F002         	movff	_Ki+1,___flmul@b+1
  1132  000198  C090  F003         	movff	_Ki+2,___flmul@b+2
  1133  00019C  C091  F004         	movff	_Ki+3,___flmul@b+3
  1134  0001A0  EC37  F004         	call	___flmul	;wreg free
  1135  0001A4  C001  F01E         	movff	?___flmul,___fladd@a
  1136  0001A8  C002  F01F         	movff	?___flmul+1,___fladd@a+1
  1137  0001AC  C003  F020         	movff	?___flmul+2,___fladd@a+2
  1138  0001B0  C004  F021         	movff	?___flmul+3,___fladd@a+3
  1139  0001B4  C042  F005         	movff	_err,___flmul@a
  1140  0001B8  C043  F006         	movff	_err+1,___flmul@a+1
  1141  0001BC  C044  F007         	movff	_err+2,___flmul@a+2
  1142  0001C0  C045  F008         	movff	_err+3,___flmul@a+3
  1143  0001C4  C092  F001         	movff	_Kp,___flmul@b
  1144  0001C8  C093  F002         	movff	_Kp+1,___flmul@b+1
  1145  0001CC  C094  F003         	movff	_Kp+2,___flmul@b+2
  1146  0001D0  C095  F004         	movff	_Kp+3,___flmul@b+3
  1147  0001D4  EC37  F004         	call	___flmul	;wreg free
  1148  0001D8  C001  F01A         	movff	?___flmul,___fladd@b
  1149  0001DC  C002  F01B         	movff	?___flmul+1,___fladd@b+1
  1150  0001E0  C003  F01C         	movff	?___flmul+2,___fladd@b+2
  1151  0001E4  C004  F01D         	movff	?___flmul+3,___fladd@b+3
  1152  0001E8  ECD7  F001         	call	___fladd	;wreg free
  1153  0001EC  C01A  F036         	movff	?___fladd,_ISR$1676
  1154  0001F0  C01B  F037         	movff	?___fladd+1,_ISR$1676+1
  1155  0001F4  C01C  F038         	movff	?___fladd+2,_ISR$1676+2
  1156  0001F8  C01D  F039         	movff	?___fladd+3,_ISR$1676+3
  1157  0001FC                     
  1158                           ;motorMain.c: 199: duty = Kp*err + Ki*sum_err + Kd*(err-pre_err);
  1159  0001FC  C07E  F005         	movff	_Kd,___flmul@a
  1160  000200  C07F  F006         	movff	_Kd+1,___flmul@a+1
  1161  000204  C080  F007         	movff	_Kd+2,___flmul@a+2
  1162  000208  C081  F008         	movff	_Kd+3,___flmul@a+3
  1163  00020C  C07A  F02E         	movff	_pre_err,___flsub@a
  1164  000210  C07B  F02F         	movff	_pre_err+1,___flsub@a+1
  1165  000214  C07C  F030         	movff	_pre_err+2,___flsub@a+2
  1166  000218  C07D  F031         	movff	_pre_err+3,___flsub@a+3
  1167  00021C  C042  F02A         	movff	_err,___flsub@b
  1168  000220  C043  F02B         	movff	_err+1,___flsub@b+1
  1169  000224  C044  F02C         	movff	_err+2,___flsub@b+2
  1170  000228  C045  F02D         	movff	_err+3,___flsub@b+3
  1171  00022C  EC5C  F008         	call	___flsub	;wreg free
  1172  000230  C02A  F001         	movff	?___flsub,___flmul@b
  1173  000234  C02B  F002         	movff	?___flsub+1,___flmul@b+1
  1174  000238  C02C  F003         	movff	?___flsub+2,___flmul@b+2
  1175  00023C  C02D  F004         	movff	?___flsub+3,___flmul@b+3
  1176  000240  EC37  F004         	call	___flmul	;wreg free
  1177  000244  C001  F03A         	movff	?___flmul,_ISR$1677
  1178  000248  C002  F03B         	movff	?___flmul+1,_ISR$1677+1
  1179  00024C  C003  F03C         	movff	?___flmul+2,_ISR$1677+2
  1180  000250  C004  F03D         	movff	?___flmul+3,_ISR$1677+3
  1181  000254                     
  1182                           ;motorMain.c: 199: duty = Kp*err + Ki*sum_err + Kd*(err-pre_err);
  1183  000254  C036  F01A         	movff	_ISR$1676,___fladd@b
  1184  000258  C037  F01B         	movff	_ISR$1676+1,___fladd@b+1
  1185  00025C  C038  F01C         	movff	_ISR$1676+2,___fladd@b+2
  1186  000260  C039  F01D         	movff	_ISR$1676+3,___fladd@b+3
  1187  000264  C03A  F01E         	movff	_ISR$1677,___fladd@a
  1188  000268  C03B  F01F         	movff	_ISR$1677+1,___fladd@a+1
  1189  00026C  C03C  F020         	movff	_ISR$1677+2,___fladd@a+2
  1190  000270  C03D  F021         	movff	_ISR$1677+3,___fladd@a+3
  1191  000274  ECD7  F001         	call	___fladd	;wreg free
  1192  000278  C01A  F046         	movff	?___fladd,_duty
  1193  00027C  C01B  F047         	movff	?___fladd+1,_duty+1
  1194  000280  C01C  F048         	movff	?___fladd+2,_duty+2
  1195  000284  C01D  F049         	movff	?___fladd+3,_duty+3
  1196  000288                     
  1197                           ;motorMain.c: 200: pre_err = err;
  1198  000288  C042  F07A         	movff	_err,_pre_err
  1199  00028C  C043  F07B         	movff	_err+1,_pre_err+1
  1200  000290  C044  F07C         	movff	_err+2,_pre_err+2
  1201  000294  C045  F07D         	movff	_err+3,_pre_err+3
  1202  000298                     
  1203                           ;motorMain.c: 201: if(duty>100) duty = 100;
  1204  000298  0E00               	movlw	0
  1205  00029A  6E01               	movwf	___flge@ff1^0,c
  1206  00029C  0E00               	movlw	0
  1207  00029E  6E02               	movwf	(___flge@ff1+1)^0,c
  1208  0002A0  0EC8               	movlw	200
  1209  0002A2  6E03               	movwf	(___flge@ff1+2)^0,c
  1210  0002A4  0E42               	movlw	66
  1211  0002A6  6E04               	movwf	(___flge@ff1+3)^0,c
  1212  0002A8  C046  F005         	movff	_duty,___flge@ff2
  1213  0002AC  C047  F006         	movff	_duty+1,___flge@ff2+1
  1214  0002B0  C048  F007         	movff	_duty+2,___flge@ff2+2
  1215  0002B4  C049  F008         	movff	_duty+3,___flge@ff2+3
  1216  0002B8  ECA9  F007         	call	___flge	;wreg free
  1217  0002BC  B0D8               	btfsc	status,0,c
  1218  0002BE  EF63  F001         	goto	i2u193_41
  1219  0002C2  EF65  F001         	goto	i2u193_40
  1220  0002C6                     i2u193_41:
  1221  0002C6  EF6D  F001         	goto	i2l2229
  1222  0002CA                     i2u193_40:
  1223  0002CA  0E00               	movlw	0
  1224  0002CC  6E46               	movwf	_duty^0,c
  1225  0002CE  0E00               	movlw	0
  1226  0002D0  6E47               	movwf	(_duty+1)^0,c
  1227  0002D2  0EC8               	movlw	200
  1228  0002D4  6E48               	movwf	(_duty+2)^0,c
  1229  0002D6  0E42               	movlw	66
  1230  0002D8  6E49               	movwf	(_duty+3)^0,c
  1231  0002DA                     i2l2229:
  1232                           
  1233                           ;motorMain.c: 202: if(duty<-100) duty = -100;
  1234  0002DA  C046  F001         	movff	_duty,___flge@ff1
  1235  0002DE  C047  F002         	movff	_duty+1,___flge@ff1+1
  1236  0002E2  C048  F003         	movff	_duty+2,___flge@ff1+2
  1237  0002E6  C049  F004         	movff	_duty+3,___flge@ff1+3
  1238  0002EA  0E00               	movlw	0
  1239  0002EC  6E05               	movwf	___flge@ff2^0,c
  1240  0002EE  0E00               	movlw	0
  1241  0002F0  6E06               	movwf	(___flge@ff2+1)^0,c
  1242  0002F2  0EC8               	movlw	200
  1243  0002F4  6E07               	movwf	(___flge@ff2+2)^0,c
  1244  0002F6  0EC2               	movlw	194
  1245  0002F8  6E08               	movwf	(___flge@ff2+3)^0,c
  1246  0002FA  ECA9  F007         	call	___flge	;wreg free
  1247  0002FE  B0D8               	btfsc	status,0,c
  1248  000300  EF84  F001         	goto	i2u194_41
  1249  000304  EF86  F001         	goto	i2u194_40
  1250  000308                     i2u194_41:
  1251  000308  EF8E  F001         	goto	i2l2233
  1252  00030C                     i2u194_40:
  1253  00030C  0E00               	movlw	0
  1254  00030E  6E46               	movwf	_duty^0,c
  1255  000310  0E00               	movlw	0
  1256  000312  6E47               	movwf	(_duty+1)^0,c
  1257  000314  0EC8               	movlw	200
  1258  000316  6E48               	movwf	(_duty+2)^0,c
  1259  000318  0EC2               	movlw	194
  1260  00031A  6E49               	movwf	(_duty+3)^0,c
  1261  00031C                     i2l2233:
  1262                           
  1263                           ;motorMain.c: 204: duty = (duty + 100)*1.275;
  1264  00031C  0E00               	movlw	0
  1265  00031E  6E1E               	movwf	___fladd@a^0,c
  1266  000320  0E00               	movlw	0
  1267  000322  6E1F               	movwf	(___fladd@a+1)^0,c
  1268  000324  0EC8               	movlw	200
  1269  000326  6E20               	movwf	(___fladd@a+2)^0,c
  1270  000328  0E42               	movlw	66
  1271  00032A  6E21               	movwf	(___fladd@a+3)^0,c
  1272  00032C  C046  F01A         	movff	_duty,___fladd@b
  1273  000330  C047  F01B         	movff	_duty+1,___fladd@b+1
  1274  000334  C048  F01C         	movff	_duty+2,___fladd@b+2
  1275  000338  C049  F01D         	movff	_duty+3,___fladd@b+3
  1276  00033C  ECD7  F001         	call	___fladd	;wreg free
  1277  000340  C01A  F001         	movff	?___fladd,___flmul@b
  1278  000344  C01B  F002         	movff	?___fladd+1,___flmul@b+1
  1279  000348  C01C  F003         	movff	?___fladd+2,___flmul@b+2
  1280  00034C  C01D  F004         	movff	?___fladd+3,___flmul@b+3
  1281  000350  0E33               	movlw	51
  1282  000352  6E05               	movwf	___flmul@a^0,c
  1283  000354  0E33               	movlw	51
  1284  000356  6E06               	movwf	(___flmul@a+1)^0,c
  1285  000358  0EA3               	movlw	163
  1286  00035A  6E07               	movwf	(___flmul@a+2)^0,c
  1287  00035C  0E3F               	movlw	63
  1288  00035E  6E08               	movwf	(___flmul@a+3)^0,c
  1289  000360  EC37  F004         	call	___flmul	;wreg free
  1290  000364  C001  F046         	movff	?___flmul,_duty
  1291  000368  C002  F047         	movff	?___flmul+1,_duty+1
  1292  00036C  C003  F048         	movff	?___flmul+2,_duty+2
  1293  000370  C004  F049         	movff	?___flmul+3,_duty+3
  1294  000374                     
  1295                           ;motorMain.c: 205: count = (unsigned int)duty;
  1296  000374  C046  F01A         	movff	_duty,___fltol@f1
  1297  000378  C047  F01B         	movff	_duty+1,___fltol@f1+1
  1298  00037C  C048  F01C         	movff	_duty+2,___fltol@f1+2
  1299  000380  C049  F01D         	movff	_duty+3,___fltol@f1+3
  1300  000384  EC26  F007         	call	___fltol	;wreg free
  1301  000388  C01A  F056         	movff	?___fltol,_count
  1302  00038C  C01B  F057         	movff	?___fltol+1,_count+1
  1303  000390                     
  1304                           ;motorMain.c: 206: PORTB = count;
  1305  000390  C056  FF81         	movff	_count,3969	;volatile
  1306  000394                     
  1307                           ;motorMain.c: 207: count = 0;
  1308  000394  0E00               	movlw	0
  1309  000396  6E57               	movwf	(_count+1)^0,c
  1310  000398  0E00               	movlw	0
  1311  00039A  6E56               	movwf	_count^0,c
  1312  00039C                     i2l2241:
  1313                           
  1314                           ;motorMain.c: 208: };motorMain.c: 209: INTCONbits.TMR0IF = 0;
  1315  00039C  94F2               	bcf	242,2,c	;volatile
  1316  00039E                     i2l183:
  1317  00039E  C035  FFF4         	movff	??_ISR+3,prodh
  1318  0003A2  C034  FFF3         	movff	??_ISR+2,prodl
  1319  0003A6  925F               	bcf	int$flags,1,c	;clear compiler interrupt flag (level 2)
  1320  0003A8  0011               	retfie		f
  1321  0003AA                     __end_of_ISR:
  1322                           	callstack 0
  1323                           
  1324 ;; *************** function ___xxtofl *****************
  1325 ;; Defined at:
  1326 ;;		line 10 in file "C:\Program Files\Microchip\xc8\v2.32\pic\sources\c90\common\xxtofl.c"
  1327 ;; Parameters:    Size  Location     Type
  1328 ;;  sign            1    wreg     unsigned char 
  1329 ;;  val             4    0[COMRAM] long 
  1330 ;; Auto vars:     Size  Location     Type
  1331 ;;  sign            1    8[COMRAM] unsigned char 
  1332 ;;  arg             4   10[COMRAM] unsigned long 
  1333 ;;  exp             1    9[COMRAM] unsigned char 
  1334 ;; Return value:  Size  Location     Type
  1335 ;;                  4    0[COMRAM] unsigned char 
  1336 ;; Registers used:
  1337 ;;		wreg, status,2, status,0
  1338 ;; Tracked objects:
  1339 ;;		On entry : 0/0
  1340 ;;		On exit  : 0/0
  1341 ;;		Unchanged: 0/0
  1342 ;; Data sizes:     COMRAM   BANK0   BANK1   BANK2
  1343 ;;      Params:         4       0       0       0
  1344 ;;      Locals:         6       0       0       0
  1345 ;;      Temps:          4       0       0       0
  1346 ;;      Totals:        14       0       0       0
  1347 ;;Total ram usage:       14 bytes
  1348 ;; Hardware stack levels used: 1
  1349 ;; This function calls:
  1350 ;;		Nothing
  1351 ;; This function is called by:
  1352 ;;		_ISR
  1353 ;; This function uses a non-reentrant model
  1354 ;;
  1355                           
  1356                           	psect	text8
  1357  000C98                     __ptext8:
  1358                           	callstack 0
  1359  000C98                     ___xxtofl:
  1360                           	callstack 27
  1361                           
  1362                           ;incstack = 0
  1363                           ;___xxtofl@sign stored from wreg
  1364  000C98  6E09               	movwf	___xxtofl@sign^0,c
  1365  000C9A  5009               	movf	___xxtofl@sign^0,w,c
  1366  000C9C  B4D8               	btfsc	status,2,c
  1367  000C9E  EF53  F006         	goto	i2u171_41
  1368  000CA2  EF55  F006         	goto	i2u171_40
  1369  000CA6                     i2u171_41:
  1370  000CA6  EF77  F006         	goto	i2l879
  1371  000CAA                     i2u171_40:
  1372  000CAA  BE04               	btfsc	(___xxtofl@val+3)^0,7,c
  1373  000CAC  EF5C  F006         	goto	i2u172_40
  1374  000CB0  EF5A  F006         	goto	i2u172_41
  1375  000CB4                     i2u172_41:
  1376  000CB4  EF77  F006         	goto	i2l879
  1377  000CB8                     i2u172_40:
  1378  000CB8  C001  F005         	movff	___xxtofl@val,??___xxtofl
  1379  000CBC  C002  F006         	movff	___xxtofl@val+1,??___xxtofl+1
  1380  000CC0  C003  F007         	movff	___xxtofl@val+2,??___xxtofl+2
  1381  000CC4  C004  F008         	movff	___xxtofl@val+3,??___xxtofl+3
  1382  000CC8  1E05               	comf	??___xxtofl^0,f,c
  1383  000CCA  1E06               	comf	(??___xxtofl+1)^0,f,c
  1384  000CCC  1E07               	comf	(??___xxtofl+2)^0,f,c
  1385  000CCE  1E08               	comf	(??___xxtofl+3)^0,f,c
  1386  000CD0  2A05               	incf	??___xxtofl^0,f,c
  1387  000CD2  0E00               	movlw	0
  1388  000CD4  2206               	addwfc	(??___xxtofl+1)^0,f,c
  1389  000CD6  2207               	addwfc	(??___xxtofl+2)^0,f,c
  1390  000CD8  2208               	addwfc	(??___xxtofl+3)^0,f,c
  1391  000CDA  C005  F00B         	movff	??___xxtofl,___xxtofl@arg
  1392  000CDE  C006  F00C         	movff	??___xxtofl+1,___xxtofl@arg+1
  1393  000CE2  C007  F00D         	movff	??___xxtofl+2,___xxtofl@arg+2
  1394  000CE6  C008  F00E         	movff	??___xxtofl+3,___xxtofl@arg+3
  1395  000CEA  EF7F  F006         	goto	i2l2127
  1396  000CEE                     i2l879:
  1397  000CEE  C001  F00B         	movff	___xxtofl@val,___xxtofl@arg
  1398  000CF2  C002  F00C         	movff	___xxtofl@val+1,___xxtofl@arg+1
  1399  000CF6  C003  F00D         	movff	___xxtofl@val+2,___xxtofl@arg+2
  1400  000CFA  C004  F00E         	movff	___xxtofl@val+3,___xxtofl@arg+3
  1401  000CFE                     i2l2127:
  1402  000CFE  5001               	movf	___xxtofl@val^0,w,c
  1403  000D00  1002               	iorwf	(___xxtofl@val+1)^0,w,c
  1404  000D02  1003               	iorwf	(___xxtofl@val+2)^0,w,c
  1405  000D04  1004               	iorwf	(___xxtofl@val+3)^0,w,c
  1406  000D06  A4D8               	btfss	status,2,c
  1407  000D08  EF88  F006         	goto	i2u173_41
  1408  000D0C  EF8A  F006         	goto	i2u173_40
  1409  000D10                     i2u173_41:
  1410  000D10  EF94  F006         	goto	i2l2133
  1411  000D14                     i2u173_40:
  1412  000D14  0E00               	movlw	0
  1413  000D16  6E01               	movwf	?___xxtofl^0,c
  1414  000D18  0E00               	movlw	0
  1415  000D1A  6E02               	movwf	(?___xxtofl+1)^0,c
  1416  000D1C  0E00               	movlw	0
  1417  000D1E  6E03               	movwf	(?___xxtofl+2)^0,c
  1418  000D20  0E00               	movlw	0
  1419  000D22  6E04               	movwf	(?___xxtofl+3)^0,c
  1420  000D24  EF25  F007         	goto	i2l882
  1421  000D28                     i2l2133:
  1422  000D28  0E96               	movlw	150
  1423  000D2A  6E0A               	movwf	___xxtofl@exp^0,c
  1424  000D2C  EF9E  F006         	goto	i2l2137
  1425  000D30                     i2l2135:
  1426  000D30  2A0A               	incf	___xxtofl@exp^0,f,c
  1427  000D32  90D8               	bcf	status,0,c
  1428  000D34  320E               	rrcf	(___xxtofl@arg+3)^0,f,c
  1429  000D36  320D               	rrcf	(___xxtofl@arg+2)^0,f,c
  1430  000D38  320C               	rrcf	(___xxtofl@arg+1)^0,f,c
  1431  000D3A  320B               	rrcf	___xxtofl@arg^0,f,c
  1432  000D3C                     i2l2137:
  1433  000D3C  0E00               	movlw	0
  1434  000D3E  140B               	andwf	___xxtofl@arg^0,w,c
  1435  000D40  6E05               	movwf	??___xxtofl^0,c
  1436  000D42  0E00               	movlw	0
  1437  000D44  140C               	andwf	(___xxtofl@arg+1)^0,w,c
  1438  000D46  6E06               	movwf	(??___xxtofl+1)^0,c
  1439  000D48  0E00               	movlw	0
  1440  000D4A  140D               	andwf	(___xxtofl@arg+2)^0,w,c
  1441  000D4C  6E07               	movwf	(??___xxtofl+2)^0,c
  1442  000D4E  0EFE               	movlw	254
  1443  000D50  140E               	andwf	(___xxtofl@arg+3)^0,w,c
  1444  000D52  6E08               	movwf	(??___xxtofl+3)^0,c
  1445  000D54  5005               	movf	??___xxtofl^0,w,c
  1446  000D56  1006               	iorwf	(??___xxtofl+1)^0,w,c
  1447  000D58  1007               	iorwf	(??___xxtofl+2)^0,w,c
  1448  000D5A  1008               	iorwf	(??___xxtofl+3)^0,w,c
  1449  000D5C  A4D8               	btfss	status,2,c
  1450  000D5E  EFB3  F006         	goto	i2u174_41
  1451  000D62  EFB5  F006         	goto	i2u174_40
  1452  000D66                     i2u174_41:
  1453  000D66  EF98  F006         	goto	i2l2135
  1454  000D6A                     i2u174_40:
  1455  000D6A  EFC3  F006         	goto	i2l886
  1456  000D6E                     i2l2139:
  1457  000D6E  2A0A               	incf	___xxtofl@exp^0,f,c
  1458  000D70  0E01               	movlw	1
  1459  000D72  260B               	addwf	___xxtofl@arg^0,f,c
  1460  000D74  0E00               	movlw	0
  1461  000D76  220C               	addwfc	(___xxtofl@arg+1)^0,f,c
  1462  000D78  220D               	addwfc	(___xxtofl@arg+2)^0,f,c
  1463  000D7A  220E               	addwfc	(___xxtofl@arg+3)^0,f,c
  1464  000D7C  90D8               	bcf	status,0,c
  1465  000D7E  320E               	rrcf	(___xxtofl@arg+3)^0,f,c
  1466  000D80  320D               	rrcf	(___xxtofl@arg+2)^0,f,c
  1467  000D82  320C               	rrcf	(___xxtofl@arg+1)^0,f,c
  1468  000D84  320B               	rrcf	___xxtofl@arg^0,f,c
  1469  000D86                     i2l886:
  1470  000D86  0E00               	movlw	0
  1471  000D88  140B               	andwf	___xxtofl@arg^0,w,c
  1472  000D8A  6E05               	movwf	??___xxtofl^0,c
  1473  000D8C  0E00               	movlw	0
  1474  000D8E  140C               	andwf	(___xxtofl@arg+1)^0,w,c
  1475  000D90  6E06               	movwf	(??___xxtofl+1)^0,c
  1476  000D92  0E00               	movlw	0
  1477  000D94  140D               	andwf	(___xxtofl@arg+2)^0,w,c
  1478  000D96  6E07               	movwf	(??___xxtofl+2)^0,c
  1479  000D98  0EFF               	movlw	255
  1480  000D9A  140E               	andwf	(___xxtofl@arg+3)^0,w,c
  1481  000D9C  6E08               	movwf	(??___xxtofl+3)^0,c
  1482  000D9E  5005               	movf	??___xxtofl^0,w,c
  1483  000DA0  1006               	iorwf	(??___xxtofl+1)^0,w,c
  1484  000DA2  1007               	iorwf	(??___xxtofl+2)^0,w,c
  1485  000DA4  1008               	iorwf	(??___xxtofl+3)^0,w,c
  1486  000DA6  A4D8               	btfss	status,2,c
  1487  000DA8  EFD8  F006         	goto	i2u175_41
  1488  000DAC  EFDA  F006         	goto	i2u175_40
  1489  000DB0                     i2u175_41:
  1490  000DB0  EFB7  F006         	goto	i2l2139
  1491  000DB4                     i2u175_40:
  1492  000DB4  EFE2  F006         	goto	i2l2147
  1493  000DB8                     i2l2145:
  1494  000DB8  060A               	decf	___xxtofl@exp^0,f,c
  1495  000DBA  90D8               	bcf	status,0,c
  1496  000DBC  360B               	rlcf	___xxtofl@arg^0,f,c
  1497  000DBE  360C               	rlcf	(___xxtofl@arg+1)^0,f,c
  1498  000DC0  360D               	rlcf	(___xxtofl@arg+2)^0,f,c
  1499  000DC2  360E               	rlcf	(___xxtofl@arg+3)^0,f,c
  1500  000DC4                     i2l2147:
  1501  000DC4  BE0D               	btfsc	(___xxtofl@arg+2)^0,7,c
  1502  000DC6  EFE7  F006         	goto	i2u176_41
  1503  000DCA  EFE9  F006         	goto	i2u176_40
  1504  000DCE                     i2u176_41:
  1505  000DCE  EFF1  F006         	goto	i2l893
  1506  000DD2                     i2u176_40:
  1507  000DD2  0E02               	movlw	2
  1508  000DD4  600A               	cpfslt	___xxtofl@exp^0,c
  1509  000DD6  EFEF  F006         	goto	i2u177_41
  1510  000DDA  EFF1  F006         	goto	i2u177_40
  1511  000DDE                     i2u177_41:
  1512  000DDE  EFDC  F006         	goto	i2l2145
  1513  000DE2                     i2u177_40:
  1514  000DE2                     i2l893:
  1515  000DE2  B00A               	btfsc	___xxtofl@exp^0,0,c
  1516  000DE4  EFF6  F006         	goto	i2u178_41
  1517  000DE8  EFF8  F006         	goto	i2u178_40
  1518  000DEC                     i2u178_41:
  1519  000DEC  EFF9  F006         	goto	i2l2153
  1520  000DF0                     i2u178_40:
  1521  000DF0  9E0D               	bcf	(___xxtofl@arg+2)^0,7,c
  1522  000DF2                     i2l2153:
  1523  000DF2  90D8               	bcf	status,0,c
  1524  000DF4  320A               	rrcf	___xxtofl@exp^0,f,c
  1525  000DF6  C00A  F005         	movff	___xxtofl@exp,??___xxtofl
  1526  000DFA  6A06               	clrf	(??___xxtofl+1)^0,c
  1527  000DFC  6A07               	clrf	(??___xxtofl+2)^0,c
  1528  000DFE  6A08               	clrf	(??___xxtofl+3)^0,c
  1529  000E00  C005  F008         	movff	??___xxtofl,??___xxtofl+3
  1530  000E04  6A07               	clrf	(??___xxtofl+2)^0,c
  1531  000E06  6A06               	clrf	(??___xxtofl+1)^0,c
  1532  000E08  6A05               	clrf	??___xxtofl^0,c
  1533  000E0A  5005               	movf	??___xxtofl^0,w,c
  1534  000E0C  120B               	iorwf	___xxtofl@arg^0,f,c
  1535  000E0E  5006               	movf	(??___xxtofl+1)^0,w,c
  1536  000E10  120C               	iorwf	(___xxtofl@arg+1)^0,f,c
  1537  000E12  5007               	movf	(??___xxtofl+2)^0,w,c
  1538  000E14  120D               	iorwf	(___xxtofl@arg+2)^0,f,c
  1539  000E16  5008               	movf	(??___xxtofl+3)^0,w,c
  1540  000E18  120E               	iorwf	(___xxtofl@arg+3)^0,f,c
  1541  000E1A  5009               	movf	___xxtofl@sign^0,w,c
  1542  000E1C  B4D8               	btfsc	status,2,c
  1543  000E1E  EF13  F007         	goto	i2u179_41
  1544  000E22  EF15  F007         	goto	i2u179_40
  1545  000E26                     i2u179_41:
  1546  000E26  EF1D  F007         	goto	i2l2163
  1547  000E2A                     i2u179_40:
  1548  000E2A  BE04               	btfsc	(___xxtofl@val+3)^0,7,c
  1549  000E2C  EF1C  F007         	goto	i2u180_40
  1550  000E30  EF1A  F007         	goto	i2u180_41
  1551  000E34                     i2u180_41:
  1552  000E34  EF1D  F007         	goto	i2l2163
  1553  000E38                     i2u180_40:
  1554  000E38  8E0E               	bsf	(___xxtofl@arg+3)^0,7,c
  1555  000E3A                     i2l2163:
  1556  000E3A  C00B  F001         	movff	___xxtofl@arg,?___xxtofl
  1557  000E3E  C00C  F002         	movff	___xxtofl@arg+1,?___xxtofl+1
  1558  000E42  C00D  F003         	movff	___xxtofl@arg+2,?___xxtofl+2
  1559  000E46  C00E  F004         	movff	___xxtofl@arg+3,?___xxtofl+3
  1560  000E4A                     i2l882:
  1561  000E4A  0012               	return		;funcret
  1562  000E4C                     __end_of___xxtofl:
  1563                           	callstack 0
  1564                           
  1565 ;; *************** function ___fltol *****************
  1566 ;; Defined at:
  1567 ;;		line 43 in file "C:\Program Files\Microchip\xc8\v2.32\pic\sources\c90\common\fltol.c"
  1568 ;; Parameters:    Size  Location     Type
  1569 ;;  f1              4   25[COMRAM] unsigned char 
  1570 ;; Auto vars:     Size  Location     Type
  1571 ;;  exp1            1   34[COMRAM] unsigned char 
  1572 ;;  sign1           1   33[COMRAM] unsigned char 
  1573 ;; Return value:  Size  Location     Type
  1574 ;;                  4   25[COMRAM] long 
  1575 ;; Registers used:
  1576 ;;		wreg, status,2, status,0
  1577 ;; Tracked objects:
  1578 ;;		On entry : 0/0
  1579 ;;		On exit  : 0/0
  1580 ;;		Unchanged: 0/0
  1581 ;; Data sizes:     COMRAM   BANK0   BANK1   BANK2
  1582 ;;      Params:         4       0       0       0
  1583 ;;      Locals:         2       0       0       0
  1584 ;;      Temps:          4       0       0       0
  1585 ;;      Totals:        10       0       0       0
  1586 ;;Total ram usage:       10 bytes
  1587 ;; Hardware stack levels used: 1
  1588 ;; This function calls:
  1589 ;;		Nothing
  1590 ;; This function is called by:
  1591 ;;		_ISR
  1592 ;;		_motorOutMSB
  1593 ;;		_motorOutLSB
  1594 ;; This function uses a non-reentrant model
  1595 ;;
  1596                           
  1597                           	psect	text9
  1598  000E4C                     __ptext9:
  1599                           	callstack 0
  1600  000E4C                     ___fltol:
  1601                           	callstack 27
  1602  000E4C  341C               	rlcf	(___fltol@f1+2)^0,w,c
  1603  000E4E  341D               	rlcf	(___fltol@f1+3)^0,w,c
  1604  000E50  6E23               	movwf	___fltol@exp1^0,c
  1605  000E52  5023               	movf	___fltol@exp1^0,w,c
  1606  000E54  A4D8               	btfss	status,2,c
  1607  000E56  EF2F  F007         	goto	i2u164_41
  1608  000E5A  EF31  F007         	goto	i2u164_40
  1609  000E5E                     i2u164_41:
  1610  000E5E  EF3B  F007         	goto	i2l2083
  1611  000E62                     i2u164_40:
  1612  000E62                     i2l2079:
  1613  000E62  0E00               	movlw	0
  1614  000E64  6E1A               	movwf	?___fltol^0,c
  1615  000E66  0E00               	movlw	0
  1616  000E68  6E1B               	movwf	(?___fltol+1)^0,c
  1617  000E6A  0E00               	movlw	0
  1618  000E6C  6E1C               	movwf	(?___fltol+2)^0,c
  1619  000E6E  0E00               	movlw	0
  1620  000E70  6E1D               	movwf	(?___fltol+3)^0,c
  1621  000E72  EFA8  F007         	goto	i2l525
  1622  000E76                     i2l2083:
  1623  000E76  C01A  F01E         	movff	___fltol@f1,??___fltol
  1624  000E7A  C01B  F01F         	movff	___fltol@f1+1,??___fltol+1
  1625  000E7E  C01C  F020         	movff	___fltol@f1+2,??___fltol+2
  1626  000E82  C01D  F021         	movff	___fltol@f1+3,??___fltol+3
  1627  000E86  0E20               	movlw	32
  1628  000E88  EF4B  F007         	goto	i2u165_40
  1629  000E8C                     i2u165_45:
  1630  000E8C  90D8               	bcf	status,0,c
  1631  000E8E  3221               	rrcf	(??___fltol+3)^0,f,c
  1632  000E90  3220               	rrcf	(??___fltol+2)^0,f,c
  1633  000E92  321F               	rrcf	(??___fltol+1)^0,f,c
  1634  000E94  321E               	rrcf	??___fltol^0,f,c
  1635  000E96                     i2u165_40:
  1636  000E96  2EE8               	decfsz	wreg,f,c
  1637  000E98  EF46  F007         	goto	i2u165_45
  1638  000E9C  501E               	movf	??___fltol^0,w,c
  1639  000E9E  6E22               	movwf	___fltol@sign1^0,c
  1640  000EA0  8E1C               	bsf	(___fltol@f1+2)^0,7,c
  1641  000EA2  0EFF               	movlw	255
  1642  000EA4  161A               	andwf	___fltol@f1^0,f,c
  1643  000EA6  0EFF               	movlw	255
  1644  000EA8  161B               	andwf	(___fltol@f1+1)^0,f,c
  1645  000EAA  0EFF               	movlw	255
  1646  000EAC  161C               	andwf	(___fltol@f1+2)^0,f,c
  1647  000EAE  0E00               	movlw	0
  1648  000EB0  161D               	andwf	(___fltol@f1+3)^0,f,c
  1649  000EB2  0E96               	movlw	150
  1650  000EB4  5E23               	subwf	___fltol@exp1^0,f,c
  1651  000EB6  BE23               	btfsc	___fltol@exp1^0,7,c
  1652  000EB8  EF62  F007         	goto	i2u166_40
  1653  000EBC  EF60  F007         	goto	i2u166_41
  1654  000EC0                     i2u166_41:
  1655  000EC0  EF78  F007         	goto	i2l2103
  1656  000EC4                     i2u166_40:
  1657  000EC4  5023               	movf	___fltol@exp1^0,w,c
  1658  000EC6  0A80               	xorlw	128
  1659  000EC8  0F97               	addlw	151
  1660  000ECA  B0D8               	btfsc	status,0,c
  1661  000ECC  EF6A  F007         	goto	i2u167_41
  1662  000ED0  EF6C  F007         	goto	i2u167_40
  1663  000ED4                     i2u167_41:
  1664  000ED4  EF6E  F007         	goto	i2l2099
  1665  000ED8                     i2u167_40:
  1666  000ED8  EF31  F007         	goto	i2l2079
  1667  000EDC                     i2l2099:
  1668  000EDC  90D8               	bcf	status,0,c
  1669  000EDE  321D               	rrcf	(___fltol@f1+3)^0,f,c
  1670  000EE0  321C               	rrcf	(___fltol@f1+2)^0,f,c
  1671  000EE2  321B               	rrcf	(___fltol@f1+1)^0,f,c
  1672  000EE4  321A               	rrcf	___fltol@f1^0,f,c
  1673  000EE6  3E23               	incfsz	___fltol@exp1^0,f,c
  1674  000EE8  EF6E  F007         	goto	i2l2099
  1675  000EEC  EF90  F007         	goto	i2l2113
  1676  000EF0                     i2l2103:
  1677  000EF0  0E1F               	movlw	31
  1678  000EF2  6423               	cpfsgt	___fltol@exp1^0,c
  1679  000EF4  EF7E  F007         	goto	i2u168_41
  1680  000EF8  EF80  F007         	goto	i2u168_40
  1681  000EFC                     i2u168_41:
  1682  000EFC  EF88  F007         	goto	i2l2111
  1683  000F00                     i2u168_40:
  1684  000F00  EF31  F007         	goto	i2l2079
  1685  000F04                     i2l2109:
  1686  000F04  90D8               	bcf	status,0,c
  1687  000F06  361A               	rlcf	___fltol@f1^0,f,c
  1688  000F08  361B               	rlcf	(___fltol@f1+1)^0,f,c
  1689  000F0A  361C               	rlcf	(___fltol@f1+2)^0,f,c
  1690  000F0C  361D               	rlcf	(___fltol@f1+3)^0,f,c
  1691  000F0E  0623               	decf	___fltol@exp1^0,f,c
  1692  000F10                     i2l2111:
  1693  000F10  5023               	movf	___fltol@exp1^0,w,c
  1694  000F12  A4D8               	btfss	status,2,c
  1695  000F14  EF8E  F007         	goto	i2u169_41
  1696  000F18  EF90  F007         	goto	i2u169_40
  1697  000F1C                     i2u169_41:
  1698  000F1C  EF82  F007         	goto	i2l2109
  1699  000F20                     i2u169_40:
  1700  000F20                     i2l2113:
  1701  000F20  5022               	movf	___fltol@sign1^0,w,c
  1702  000F22  B4D8               	btfsc	status,2,c
  1703  000F24  EF96  F007         	goto	i2u170_41
  1704  000F28  EF98  F007         	goto	i2u170_40
  1705  000F2C                     i2u170_41:
  1706  000F2C  EFA0  F007         	goto	i2l2117
  1707  000F30                     i2u170_40:
  1708  000F30  1E1D               	comf	(___fltol@f1+3)^0,f,c
  1709  000F32  1E1C               	comf	(___fltol@f1+2)^0,f,c
  1710  000F34  1E1B               	comf	(___fltol@f1+1)^0,f,c
  1711  000F36  6C1A               	negf	___fltol@f1^0,c
  1712  000F38  0E00               	movlw	0
  1713  000F3A  221B               	addwfc	(___fltol@f1+1)^0,f,c
  1714  000F3C  221C               	addwfc	(___fltol@f1+2)^0,f,c
  1715  000F3E  221D               	addwfc	(___fltol@f1+3)^0,f,c
  1716  000F40                     i2l2117:
  1717  000F40  C01A  F01A         	movff	___fltol@f1,?___fltol
  1718  000F44  C01B  F01B         	movff	___fltol@f1+1,?___fltol+1
  1719  000F48  C01C  F01C         	movff	___fltol@f1+2,?___fltol+2
  1720  000F4C  C01D  F01D         	movff	___fltol@f1+3,?___fltol+3
  1721  000F50                     i2l525:
  1722  000F50  0012               	return		;funcret
  1723  000F52                     __end_of___fltol:
  1724                           	callstack 0
  1725                           
  1726 ;; *************** function ___flsub *****************
  1727 ;; Defined at:
  1728 ;;		line 245 in file "C:\Program Files\Microchip\xc8\v2.32\pic\sources\c90\common\sprcadd.c"
  1729 ;; Parameters:    Size  Location     Type
  1730 ;;  b               4   41[COMRAM] long 
  1731 ;;  a               4   45[COMRAM] long 
  1732 ;; Auto vars:     Size  Location     Type
  1733 ;;		None
  1734 ;; Return value:  Size  Location     Type
  1735 ;;                  4   41[COMRAM] long 
  1736 ;; Registers used:
  1737 ;;		wreg, status,2, status,0, cstack
  1738 ;; Tracked objects:
  1739 ;;		On entry : 0/0
  1740 ;;		On exit  : 0/0
  1741 ;;		Unchanged: 0/0
  1742 ;; Data sizes:     COMRAM   BANK0   BANK1   BANK2
  1743 ;;      Params:         8       0       0       0
  1744 ;;      Locals:         0       0       0       0
  1745 ;;      Temps:          0       0       0       0
  1746 ;;      Totals:         8       0       0       0
  1747 ;;Total ram usage:        8 bytes
  1748 ;; Hardware stack levels used: 1
  1749 ;; Hardware stack levels required when called: 1
  1750 ;; This function calls:
  1751 ;;		___fladd
  1752 ;; This function is called by:
  1753 ;;		_ISR
  1754 ;; This function uses a non-reentrant model
  1755 ;;
  1756                           
  1757                           	psect	text10
  1758  0010B8                     __ptext10:
  1759                           	callstack 0
  1760  0010B8                     ___flsub:
  1761                           	callstack 26
  1762  0010B8  0E00               	movlw	0
  1763  0010BA  1A2E               	xorwf	___flsub@a^0,f,c
  1764  0010BC  0E00               	movlw	0
  1765  0010BE  1A2F               	xorwf	(___flsub@a+1)^0,f,c
  1766  0010C0  0E00               	movlw	0
  1767  0010C2  1A30               	xorwf	(___flsub@a+2)^0,f,c
  1768  0010C4  0E80               	movlw	128
  1769  0010C6  1A31               	xorwf	(___flsub@a+3)^0,f,c
  1770  0010C8  C02A  F01A         	movff	___flsub@b,___fladd@b
  1771  0010CC  C02B  F01B         	movff	___flsub@b+1,___fladd@b+1
  1772  0010D0  C02C  F01C         	movff	___flsub@b+2,___fladd@b+2
  1773  0010D4  C02D  F01D         	movff	___flsub@b+3,___fladd@b+3
  1774  0010D8  C02E  F01E         	movff	___flsub@a,___fladd@a
  1775  0010DC  C02F  F01F         	movff	___flsub@a+1,___fladd@a+1
  1776  0010E0  C030  F020         	movff	___flsub@a+2,___fladd@a+2
  1777  0010E4  C031  F021         	movff	___flsub@a+3,___fladd@a+3
  1778  0010E8  ECD7  F001         	call	___fladd	;wreg free
  1779  0010EC  C01A  F02A         	movff	?___fladd,?___flsub
  1780  0010F0  C01B  F02B         	movff	?___fladd+1,?___flsub+1
  1781  0010F4  C01C  F02C         	movff	?___fladd+2,?___flsub+2
  1782  0010F8  C01D  F02D         	movff	?___fladd+3,?___flsub+3
  1783  0010FC  0012               	return		;funcret
  1784  0010FE                     __end_of___flsub:
  1785                           	callstack 0
  1786                           
  1787 ;; *************** function ___fladd *****************
  1788 ;; Defined at:
  1789 ;;		line 10 in file "C:\Program Files\Microchip\xc8\v2.32\pic\sources\c90\common\sprcadd.c"
  1790 ;; Parameters:    Size  Location     Type
  1791 ;;  b               4   25[COMRAM] long 
  1792 ;;  a               4   29[COMRAM] long 
  1793 ;; Auto vars:     Size  Location     Type
  1794 ;;  grs             1   40[COMRAM] unsigned char 
  1795 ;;  bexp            1   39[COMRAM] unsigned char 
  1796 ;;  aexp            1   38[COMRAM] unsigned char 
  1797 ;;  signs           1   37[COMRAM] unsigned char 
  1798 ;; Return value:  Size  Location     Type
  1799 ;;                  4   25[COMRAM] unsigned char 
  1800 ;; Registers used:
  1801 ;;		wreg, status,2, status,0
  1802 ;; Tracked objects:
  1803 ;;		On entry : 0/0
  1804 ;;		On exit  : 0/0
  1805 ;;		Unchanged: 0/0
  1806 ;; Data sizes:     COMRAM   BANK0   BANK1   BANK2
  1807 ;;      Params:         8       0       0       0
  1808 ;;      Locals:         4       0       0       0
  1809 ;;      Temps:          4       0       0       0
  1810 ;;      Totals:        16       0       0       0
  1811 ;;Total ram usage:       16 bytes
  1812 ;; Hardware stack levels used: 1
  1813 ;; This function calls:
  1814 ;;		Nothing
  1815 ;; This function is called by:
  1816 ;;		_ISR
  1817 ;;		___flsub
  1818 ;; This function uses a non-reentrant model
  1819 ;;
  1820                           
  1821                           	psect	text11
  1822  0003AE                     __ptext11:
  1823                           	callstack 0
  1824  0003AE                     ___fladd:
  1825                           	callstack 26
  1826  0003AE  501D               	movf	(___fladd@b+3)^0,w,c
  1827  0003B0  0B80               	andlw	128
  1828  0003B2  6E26               	movwf	___fladd@signs^0,c
  1829  0003B4  501D               	movf	(___fladd@b+3)^0,w,c
  1830  0003B6  241D               	addwf	(___fladd@b+3)^0,w,c
  1831  0003B8  6E28               	movwf	___fladd@bexp^0,c
  1832  0003BA  AE1C               	btfss	(___fladd@b+2)^0,7,c
  1833  0003BC  EFE2  F001         	goto	i2u100_41
  1834  0003C0  EFE4  F001         	goto	i2u100_40
  1835  0003C4                     i2u100_41:
  1836  0003C4  EFE5  F001         	goto	i2l1663
  1837  0003C8                     i2u100_40:
  1838  0003C8  8028               	bsf	___fladd@bexp^0,0,c
  1839  0003CA                     i2l1663:
  1840  0003CA  5028               	movf	___fladd@bexp^0,w,c
  1841  0003CC  B4D8               	btfsc	status,2,c
  1842  0003CE  EFEB  F001         	goto	i2u101_41
  1843  0003D2  EFED  F001         	goto	i2u101_40
  1844  0003D6                     i2u101_41:
  1845  0003D6  EF02  F002         	goto	i2l1673
  1846  0003DA                     i2u101_40:
  1847  0003DA  2828               	incf	___fladd@bexp^0,w,c
  1848  0003DC  A4D8               	btfss	status,2,c
  1849  0003DE  EFF3  F001         	goto	i2u102_41
  1850  0003E2  EFF5  F001         	goto	i2u102_40
  1851  0003E6                     i2u102_41:
  1852  0003E6  EFFD  F001         	goto	i2l1669
  1853  0003EA                     i2u102_40:
  1854  0003EA  0E00               	movlw	0
  1855  0003EC  6E1A               	movwf	___fladd@b^0,c
  1856  0003EE  0E00               	movlw	0
  1857  0003F0  6E1B               	movwf	(___fladd@b+1)^0,c
  1858  0003F2  0E00               	movlw	0
  1859  0003F4  6E1C               	movwf	(___fladd@b+2)^0,c
  1860  0003F6  0E00               	movlw	0
  1861  0003F8  6E1D               	movwf	(___fladd@b+3)^0,c
  1862  0003FA                     i2l1669:
  1863  0003FA  8E1C               	bsf	(___fladd@b+2)^0,7,c
  1864  0003FC  0E00               	movlw	0
  1865  0003FE  6E1D               	movwf	(___fladd@b+3)^0,c
  1866  000400  EF0A  F002         	goto	i2l1675
  1867  000404                     i2l1673:
  1868  000404  0E00               	movlw	0
  1869  000406  6E1A               	movwf	___fladd@b^0,c
  1870  000408  0E00               	movlw	0
  1871  00040A  6E1B               	movwf	(___fladd@b+1)^0,c
  1872  00040C  0E00               	movlw	0
  1873  00040E  6E1C               	movwf	(___fladd@b+2)^0,c
  1874  000410  0E00               	movlw	0
  1875  000412  6E1D               	movwf	(___fladd@b+3)^0,c
  1876  000414                     i2l1675:
  1877  000414  5021               	movf	(___fladd@a+3)^0,w,c
  1878  000416  0B80               	andlw	128
  1879  000418  6E27               	movwf	___fladd@aexp^0,c
  1880  00041A  5026               	movf	___fladd@signs^0,w,c
  1881  00041C  1827               	xorwf	___fladd@aexp^0,w,c
  1882  00041E  B4D8               	btfsc	status,2,c
  1883  000420  EF14  F002         	goto	i2u103_41
  1884  000424  EF16  F002         	goto	i2u103_40
  1885  000428                     i2u103_41:
  1886  000428  EF17  F002         	goto	i2l1681
  1887  00042C                     i2u103_40:
  1888  00042C  8C26               	bsf	___fladd@signs^0,6,c
  1889  00042E                     i2l1681:
  1890  00042E  5021               	movf	(___fladd@a+3)^0,w,c
  1891  000430  2421               	addwf	(___fladd@a+3)^0,w,c
  1892  000432  6E27               	movwf	___fladd@aexp^0,c
  1893  000434  AE20               	btfss	(___fladd@a+2)^0,7,c
  1894  000436  EF1F  F002         	goto	i2u104_41
  1895  00043A  EF21  F002         	goto	i2u104_40
  1896  00043E                     i2u104_41:
  1897  00043E  EF22  F002         	goto	i2l1687
  1898  000442                     i2u104_40:
  1899  000442  8027               	bsf	___fladd@aexp^0,0,c
  1900  000444                     i2l1687:
  1901  000444  5027               	movf	___fladd@aexp^0,w,c
  1902  000446  B4D8               	btfsc	status,2,c
  1903  000448  EF28  F002         	goto	i2u105_41
  1904  00044C  EF2A  F002         	goto	i2u105_40
  1905  000450                     i2u105_41:
  1906  000450  EF3F  F002         	goto	i2l1697
  1907  000454                     i2u105_40:
  1908  000454  2827               	incf	___fladd@aexp^0,w,c
  1909  000456  A4D8               	btfss	status,2,c
  1910  000458  EF30  F002         	goto	i2u106_41
  1911  00045C  EF32  F002         	goto	i2u106_40
  1912  000460                     i2u106_41:
  1913  000460  EF3A  F002         	goto	i2l1693
  1914  000464                     i2u106_40:
  1915  000464  0E00               	movlw	0
  1916  000466  6E1E               	movwf	___fladd@a^0,c
  1917  000468  0E00               	movlw	0
  1918  00046A  6E1F               	movwf	(___fladd@a+1)^0,c
  1919  00046C  0E00               	movlw	0
  1920  00046E  6E20               	movwf	(___fladd@a+2)^0,c
  1921  000470  0E00               	movlw	0
  1922  000472  6E21               	movwf	(___fladd@a+3)^0,c
  1923  000474                     i2l1693:
  1924  000474  8E20               	bsf	(___fladd@a+2)^0,7,c
  1925  000476  0E00               	movlw	0
  1926  000478  6E21               	movwf	(___fladd@a+3)^0,c
  1927  00047A  EF47  F002         	goto	i2l1699
  1928  00047E                     i2l1697:
  1929  00047E  0E00               	movlw	0
  1930  000480  6E1E               	movwf	___fladd@a^0,c
  1931  000482  0E00               	movlw	0
  1932  000484  6E1F               	movwf	(___fladd@a+1)^0,c
  1933  000486  0E00               	movlw	0
  1934  000488  6E20               	movwf	(___fladd@a+2)^0,c
  1935  00048A  0E00               	movlw	0
  1936  00048C  6E21               	movwf	(___fladd@a+3)^0,c
  1937  00048E                     i2l1699:
  1938  00048E  5028               	movf	___fladd@bexp^0,w,c
  1939  000490  5C27               	subwf	___fladd@aexp^0,w,c
  1940  000492  B0D8               	btfsc	status,0,c
  1941  000494  EF4E  F002         	goto	i2u107_41
  1942  000498  EF50  F002         	goto	i2u107_40
  1943  00049C                     i2u107_41:
  1944  00049C  EF77  F002         	goto	i2l1735
  1945  0004A0                     i2u107_40:
  1946  0004A0  AC26               	btfss	___fladd@signs^0,6,c
  1947  0004A2  EF55  F002         	goto	i2u108_41
  1948  0004A6  EF57  F002         	goto	i2u108_40
  1949  0004AA                     i2u108_41:
  1950  0004AA  EF59  F002         	goto	i2l1705
  1951  0004AE                     i2u108_40:
  1952  0004AE  0E80               	movlw	128
  1953  0004B0  1A26               	xorwf	___fladd@signs^0,f,c
  1954  0004B2                     i2l1705:
  1955  0004B2  C028  F029         	movff	___fladd@bexp,___fladd@grs
  1956  0004B6  C027  F028         	movff	___fladd@aexp,___fladd@bexp
  1957  0004BA  C029  F027         	movff	___fladd@grs,___fladd@aexp
  1958  0004BE  C01A  F029         	movff	___fladd@b,___fladd@grs
  1959  0004C2  C01E  F01A         	movff	___fladd@a,___fladd@b
  1960  0004C6  C029  F01E         	movff	___fladd@grs,___fladd@a
  1961  0004CA  C01B  F029         	movff	___fladd@b+1,___fladd@grs
  1962  0004CE  C01F  F01B         	movff	___fladd@a+1,___fladd@b+1
  1963  0004D2  C029  F01F         	movff	___fladd@grs,___fladd@a+1
  1964  0004D6  C01C  F029         	movff	___fladd@b+2,___fladd@grs
  1965  0004DA  C020  F01C         	movff	___fladd@a+2,___fladd@b+2
  1966  0004DE  C029  F020         	movff	___fladd@grs,___fladd@a+2
  1967  0004E2  C01D  F029         	movff	___fladd@b+3,___fladd@grs
  1968  0004E6  C021  F01D         	movff	___fladd@a+3,___fladd@b+3
  1969  0004EA  C029  F021         	movff	___fladd@grs,___fladd@a+3
  1970  0004EE                     i2l1735:
  1971  0004EE  0E00               	movlw	0
  1972  0004F0  6E29               	movwf	___fladd@grs^0,c
  1973  0004F2  5028               	movf	___fladd@bexp^0,w,c
  1974  0004F4  C027  F022         	movff	___fladd@aexp,??___fladd
  1975  0004F8  6A23               	clrf	(??___fladd+1)^0,c
  1976  0004FA  5E22               	subwf	??___fladd^0,f,c
  1977  0004FC  0E00               	movlw	0
  1978  0004FE  5A23               	subwfb	(??___fladd+1)^0,f,c
  1979  000500  BE23               	btfsc	(??___fladd+1)^0,7,c
  1980  000502  EF8C  F002         	goto	i2u109_41
  1981  000506  5023               	movf	(??___fladd+1)^0,w,c
  1982  000508  E109               	bnz	i2u109_40
  1983  00050A  0E1A               	movlw	26
  1984  00050C  5C22               	subwf	??___fladd^0,w,c
  1985  00050E  A0D8               	btfss	status,0,c
  1986  000510  EF8C  F002         	goto	i2u109_41
  1987  000514  EF8E  F002         	goto	i2u109_40
  1988  000518                     i2u109_41:
  1989  000518  EFC5  F002         	goto	i2l753
  1990  00051C                     i2u109_40:
  1991  00051C  501A               	movf	___fladd@b^0,w,c
  1992  00051E  101B               	iorwf	(___fladd@b+1)^0,w,c
  1993  000520  101C               	iorwf	(___fladd@b+2)^0,w,c
  1994  000522  101D               	iorwf	(___fladd@b+3)^0,w,c
  1995  000524  A4D8               	btfss	status,2,c
  1996  000526  EF97  F002         	goto	i2u110_41
  1997  00052A  EF9A  F002         	goto	i2u110_40
  1998  00052E                     i2u110_41:
  1999  00052E  0E01               	movlw	1
  2000  000530  EF9B  F002         	goto	i2u111_40
  2001  000534                     i2u110_40:
  2002  000534  0E00               	movlw	0
  2003  000536                     i2u111_40:
  2004  000536  6E29               	movwf	___fladd@grs^0,c
  2005  000538  0E00               	movlw	0
  2006  00053A  6E1A               	movwf	___fladd@b^0,c
  2007  00053C  0E00               	movlw	0
  2008  00053E  6E1B               	movwf	(___fladd@b+1)^0,c
  2009  000540  0E00               	movlw	0
  2010  000542  6E1C               	movwf	(___fladd@b+2)^0,c
  2011  000544  0E00               	movlw	0
  2012  000546  6E1D               	movwf	(___fladd@b+3)^0,c
  2013  000548  C027  F028         	movff	___fladd@aexp,___fladd@bexp
  2014  00054C  EFCE  F002         	goto	i2l752
  2015  000550                     i2l754:
  2016  000550  A029               	btfss	___fladd@grs^0,0,c
  2017  000552  EFAD  F002         	goto	i2u112_41
  2018  000556  EFAF  F002         	goto	i2u112_40
  2019  00055A                     i2u112_41:
  2020  00055A  EFB5  F002         	goto	i2l1747
  2021  00055E                     i2u112_40:
  2022  00055E  90D8               	bcf	status,0,c
  2023  000560  3029               	rrcf	___fladd@grs^0,w,c
  2024  000562  0901               	iorlw	1
  2025  000564  6E29               	movwf	___fladd@grs^0,c
  2026  000566  EFB7  F002         	goto	i2l1749
  2027  00056A                     i2l1747:
  2028  00056A  90D8               	bcf	status,0,c
  2029  00056C  3229               	rrcf	___fladd@grs^0,f,c
  2030  00056E                     i2l1749:
  2031  00056E  A01A               	btfss	___fladd@b^0,0,c
  2032  000570  EFBC  F002         	goto	i2u113_41
  2033  000574  EFBE  F002         	goto	i2u113_40
  2034  000578                     i2u113_41:
  2035  000578  EFBF  F002         	goto	i2l1753
  2036  00057C                     i2u113_40:
  2037  00057C  8E29               	bsf	___fladd@grs^0,7,c
  2038  00057E                     i2l1753:
  2039  00057E  341D               	rlcf	(___fladd@b+3)^0,w,c
  2040  000580  321D               	rrcf	(___fladd@b+3)^0,f,c
  2041  000582  321C               	rrcf	(___fladd@b+2)^0,f,c
  2042  000584  321B               	rrcf	(___fladd@b+1)^0,f,c
  2043  000586  321A               	rrcf	___fladd@b^0,f,c
  2044  000588  2A28               	incf	___fladd@bexp^0,f,c
  2045  00058A                     i2l753:
  2046  00058A  5027               	movf	___fladd@aexp^0,w,c
  2047  00058C  5C28               	subwf	___fladd@bexp^0,w,c
  2048  00058E  A0D8               	btfss	status,0,c
  2049  000590  EFCC  F002         	goto	i2u114_41
  2050  000594  EFCE  F002         	goto	i2u114_40
  2051  000598                     i2u114_41:
  2052  000598  EFA8  F002         	goto	i2l754
  2053  00059C                     i2u114_40:
  2054  00059C                     i2l752:
  2055  00059C  BC26               	btfsc	___fladd@signs^0,6,c
  2056  00059E  EFD3  F002         	goto	i2u115_41
  2057  0005A2  EFD5  F002         	goto	i2u115_40
  2058  0005A6                     i2u115_41:
  2059  0005A6  EF15  F003         	goto	i2l1781
  2060  0005AA                     i2u115_40:
  2061  0005AA  5028               	movf	___fladd@bexp^0,w,c
  2062  0005AC  A4D8               	btfss	status,2,c
  2063  0005AE  EFDB  F002         	goto	i2u116_41
  2064  0005B2  EFDD  F002         	goto	i2u116_40
  2065  0005B6                     i2u116_41:
  2066  0005B6  EFE7  F002         	goto	i2l1763
  2067  0005BA                     i2u116_40:
  2068  0005BA  0E00               	movlw	0
  2069  0005BC  6E1A               	movwf	?___fladd^0,c
  2070  0005BE  0E00               	movlw	0
  2071  0005C0  6E1B               	movwf	(?___fladd+1)^0,c
  2072  0005C2  0E00               	movlw	0
  2073  0005C4  6E1C               	movwf	(?___fladd+2)^0,c
  2074  0005C6  0E00               	movlw	0
  2075  0005C8  6E1D               	movwf	(?___fladd+3)^0,c
  2076  0005CA  EF36  F004         	goto	i2l761
  2077  0005CE                     i2l1763:
  2078  0005CE  501E               	movf	___fladd@a^0,w,c
  2079  0005D0  261A               	addwf	___fladd@b^0,f,c
  2080  0005D2  501F               	movf	(___fladd@a+1)^0,w,c
  2081  0005D4  221B               	addwfc	(___fladd@b+1)^0,f,c
  2082  0005D6  5020               	movf	(___fladd@a+2)^0,w,c
  2083  0005D8  221C               	addwfc	(___fladd@b+2)^0,f,c
  2084  0005DA  5021               	movf	(___fladd@a+3)^0,w,c
  2085  0005DC  221D               	addwfc	(___fladd@b+3)^0,f,c
  2086  0005DE  A01D               	btfss	(___fladd@b+3)^0,0,c
  2087  0005E0  EFF4  F002         	goto	i2u117_41
  2088  0005E4  EFF6  F002         	goto	i2u117_40
  2089  0005E8                     i2u117_41:
  2090  0005E8  EFA2  F003         	goto	i2l1817
  2091  0005EC                     i2u117_40:
  2092  0005EC  A029               	btfss	___fladd@grs^0,0,c
  2093  0005EE  EFFB  F002         	goto	i2u118_41
  2094  0005F2  EFFD  F002         	goto	i2u118_40
  2095  0005F6                     i2u118_41:
  2096  0005F6  EF03  F003         	goto	i2l1771
  2097  0005FA                     i2u118_40:
  2098  0005FA  90D8               	bcf	status,0,c
  2099  0005FC  3029               	rrcf	___fladd@grs^0,w,c
  2100  0005FE  0901               	iorlw	1
  2101  000600  6E29               	movwf	___fladd@grs^0,c
  2102  000602  EF05  F003         	goto	i2l1773
  2103  000606                     i2l1771:
  2104  000606  90D8               	bcf	status,0,c
  2105  000608  3229               	rrcf	___fladd@grs^0,f,c
  2106  00060A                     i2l1773:
  2107  00060A  A01A               	btfss	___fladd@b^0,0,c
  2108  00060C  EF0A  F003         	goto	i2u119_41
  2109  000610  EF0C  F003         	goto	i2u119_40
  2110  000614                     i2u119_41:
  2111  000614  EF0D  F003         	goto	i2l1777
  2112  000618                     i2u119_40:
  2113  000618  8E29               	bsf	___fladd@grs^0,7,c
  2114  00061A                     i2l1777:
  2115  00061A  341D               	rlcf	(___fladd@b+3)^0,w,c
  2116  00061C  321D               	rrcf	(___fladd@b+3)^0,f,c
  2117  00061E  321C               	rrcf	(___fladd@b+2)^0,f,c
  2118  000620  321B               	rrcf	(___fladd@b+1)^0,f,c
  2119  000622  321A               	rrcf	___fladd@b^0,f,c
  2120  000624  2A28               	incf	___fladd@bexp^0,f,c
  2121  000626  EFA2  F003         	goto	i2l1817
  2122  00062A                     i2l1781:
  2123  00062A  501E               	movf	___fladd@a^0,w,c
  2124  00062C  5C1A               	subwf	___fladd@b^0,w,c
  2125  00062E  501F               	movf	(___fladd@a+1)^0,w,c
  2126  000630  581B               	subwfb	(___fladd@b+1)^0,w,c
  2127  000632  5020               	movf	(___fladd@a+2)^0,w,c
  2128  000634  581C               	subwfb	(___fladd@b+2)^0,w,c
  2129  000636  501D               	movf	(___fladd@b+3)^0,w,c
  2130  000638  0A80               	xorlw	128
  2131  00063A  6E22               	movwf	??___fladd^0,c
  2132  00063C  5021               	movf	(___fladd@a+3)^0,w,c
  2133  00063E  0A80               	xorlw	128
  2134  000640  5822               	subwfb	??___fladd^0,w,c
  2135  000642  B0D8               	btfsc	status,0,c
  2136  000644  EF26  F003         	goto	i2u120_41
  2137  000648  EF28  F003         	goto	i2u120_40
  2138  00064C                     i2u120_41:
  2139  00064C  EF53  F003         	goto	i2l1791
  2140  000650                     i2u120_40:
  2141  000650  501A               	movf	___fladd@b^0,w,c
  2142  000652  5C1E               	subwf	___fladd@a^0,w,c
  2143  000654  6E22               	movwf	??___fladd^0,c
  2144  000656  501B               	movf	(___fladd@b+1)^0,w,c
  2145  000658  581F               	subwfb	(___fladd@a+1)^0,w,c
  2146  00065A  6E23               	movwf	(??___fladd+1)^0,c
  2147  00065C  501C               	movf	(___fladd@b+2)^0,w,c
  2148  00065E  5820               	subwfb	(___fladd@a+2)^0,w,c
  2149  000660  6E24               	movwf	(??___fladd+2)^0,c
  2150  000662  501D               	movf	(___fladd@b+3)^0,w,c
  2151  000664  5821               	subwfb	(___fladd@a+3)^0,w,c
  2152  000666  6E25               	movwf	(??___fladd+3)^0,c
  2153  000668  0EFF               	movlw	255
  2154  00066A  2422               	addwf	??___fladd^0,w,c
  2155  00066C  6E1A               	movwf	___fladd@b^0,c
  2156  00066E  0EFF               	movlw	255
  2157  000670  2023               	addwfc	(??___fladd+1)^0,w,c
  2158  000672  6E1B               	movwf	(___fladd@b+1)^0,c
  2159  000674  0EFF               	movlw	255
  2160  000676  2024               	addwfc	(??___fladd+2)^0,w,c
  2161  000678  6E1C               	movwf	(___fladd@b+2)^0,c
  2162  00067A  0EFF               	movlw	255
  2163  00067C  2025               	addwfc	(??___fladd+3)^0,w,c
  2164  00067E  6E1D               	movwf	(___fladd@b+3)^0,c
  2165  000680  0E80               	movlw	128
  2166  000682  1A26               	xorwf	___fladd@signs^0,f,c
  2167  000684  6C29               	negf	___fladd@grs^0,c
  2168  000686  5029               	movf	___fladd@grs^0,w,c
  2169  000688  A4D8               	btfss	status,2,c
  2170  00068A  EF49  F003         	goto	i2u121_41
  2171  00068E  EF4B  F003         	goto	i2u121_40
  2172  000692                     i2u121_41:
  2173  000692  EF5B  F003         	goto	i2l769
  2174  000696                     i2u121_40:
  2175  000696  0E01               	movlw	1
  2176  000698  261A               	addwf	___fladd@b^0,f,c
  2177  00069A  0E00               	movlw	0
  2178  00069C  221B               	addwfc	(___fladd@b+1)^0,f,c
  2179  00069E  221C               	addwfc	(___fladd@b+2)^0,f,c
  2180  0006A0  221D               	addwfc	(___fladd@b+3)^0,f,c
  2181  0006A2  EF5B  F003         	goto	i2l769
  2182  0006A6                     i2l1791:
  2183  0006A6  501E               	movf	___fladd@a^0,w,c
  2184  0006A8  5E1A               	subwf	___fladd@b^0,f,c
  2185  0006AA  501F               	movf	(___fladd@a+1)^0,w,c
  2186  0006AC  5A1B               	subwfb	(___fladd@b+1)^0,f,c
  2187  0006AE  5020               	movf	(___fladd@a+2)^0,w,c
  2188  0006B0  5A1C               	subwfb	(___fladd@b+2)^0,f,c
  2189  0006B2  5021               	movf	(___fladd@a+3)^0,w,c
  2190  0006B4  5A1D               	subwfb	(___fladd@b+3)^0,f,c
  2191  0006B6                     i2l769:
  2192  0006B6  501A               	movf	___fladd@b^0,w,c
  2193  0006B8  101B               	iorwf	(___fladd@b+1)^0,w,c
  2194  0006BA  101C               	iorwf	(___fladd@b+2)^0,w,c
  2195  0006BC  101D               	iorwf	(___fladd@b+3)^0,w,c
  2196  0006BE  A4D8               	btfss	status,2,c
  2197  0006C0  EF64  F003         	goto	i2u122_41
  2198  0006C4  EF66  F003         	goto	i2u122_40
  2199  0006C8                     i2u122_41:
  2200  0006C8  EF9B  F003         	goto	i2l1815
  2201  0006CC                     i2u122_40:
  2202  0006CC  5029               	movf	___fladd@grs^0,w,c
  2203  0006CE  A4D8               	btfss	status,2,c
  2204  0006D0  EF6C  F003         	goto	i2u123_41
  2205  0006D4  EF6E  F003         	goto	i2u123_40
  2206  0006D8                     i2u123_41:
  2207  0006D8  EF9B  F003         	goto	i2l1815
  2208  0006DC                     i2u123_40:
  2209  0006DC  0E00               	movlw	0
  2210  0006DE  6E1A               	movwf	?___fladd^0,c
  2211  0006E0  0E00               	movlw	0
  2212  0006E2  6E1B               	movwf	(?___fladd+1)^0,c
  2213  0006E4  0E00               	movlw	0
  2214  0006E6  6E1C               	movwf	(?___fladd+2)^0,c
  2215  0006E8  0E00               	movlw	0
  2216  0006EA  6E1D               	movwf	(?___fladd+3)^0,c
  2217  0006EC  EF36  F004         	goto	i2l761
  2218  0006F0                     i2l1799:
  2219  0006F0  90D8               	bcf	status,0,c
  2220  0006F2  361A               	rlcf	___fladd@b^0,f,c
  2221  0006F4  361B               	rlcf	(___fladd@b+1)^0,f,c
  2222  0006F6  361C               	rlcf	(___fladd@b+2)^0,f,c
  2223  0006F8  361D               	rlcf	(___fladd@b+3)^0,f,c
  2224  0006FA  AE29               	btfss	___fladd@grs^0,7,c
  2225  0006FC  EF82  F003         	goto	i2u124_41
  2226  000700  EF84  F003         	goto	i2u124_40
  2227  000704                     i2u124_41:
  2228  000704  EF85  F003         	goto	i2l1805
  2229  000708                     i2u124_40:
  2230  000708  801A               	bsf	___fladd@b^0,0,c
  2231  00070A                     i2l1805:
  2232  00070A  A029               	btfss	___fladd@grs^0,0,c
  2233  00070C  EF8A  F003         	goto	i2u125_41
  2234  000710  EF8C  F003         	goto	i2u125_40
  2235  000714                     i2u125_41:
  2236  000714  EF90  F003         	goto	i2l1809
  2237  000718                     i2u125_40:
  2238  000718  80D8               	bsf	status,0,c
  2239  00071A  3629               	rlcf	___fladd@grs^0,f,c
  2240  00071C  EF92  F003         	goto	i2l1811
  2241  000720                     i2l1809:
  2242  000720  90D8               	bcf	status,0,c
  2243  000722  3629               	rlcf	___fladd@grs^0,f,c
  2244  000724                     i2l1811:
  2245  000724  5028               	movf	___fladd@bexp^0,w,c
  2246  000726  B4D8               	btfsc	status,2,c
  2247  000728  EF98  F003         	goto	i2u126_41
  2248  00072C  EF9A  F003         	goto	i2u126_40
  2249  000730                     i2u126_41:
  2250  000730  EF9B  F003         	goto	i2l1815
  2251  000734                     i2u126_40:
  2252  000734  0628               	decf	___fladd@bexp^0,f,c
  2253  000736                     i2l1815:
  2254  000736  AE1C               	btfss	(___fladd@b+2)^0,7,c
  2255  000738  EFA0  F003         	goto	i2u127_41
  2256  00073C  EFA2  F003         	goto	i2u127_40
  2257  000740                     i2u127_41:
  2258  000740  EF78  F003         	goto	i2l1799
  2259  000744                     i2u127_40:
  2260  000744                     i2l1817:
  2261  000744  0E00               	movlw	0
  2262  000746  6E27               	movwf	___fladd@aexp^0,c
  2263  000748  AE29               	btfss	___fladd@grs^0,7,c
  2264  00074A  EFA9  F003         	goto	i2u128_41
  2265  00074E  EFAB  F003         	goto	i2u128_40
  2266  000752                     i2u128_41:
  2267  000752  EFC3  F003         	goto	i2l778
  2268  000756                     i2u128_40:
  2269  000756  C029  F022         	movff	___fladd@grs,??___fladd
  2270  00075A  0E7F               	movlw	127
  2271  00075C  1622               	andwf	??___fladd^0,f,c
  2272  00075E  B4D8               	btfsc	status,2,c
  2273  000760  EFB4  F003         	goto	i2u129_41
  2274  000764  EFB6  F003         	goto	i2u129_40
  2275  000768                     i2u129_41:
  2276  000768  EFBA  F003         	goto	i2l779
  2277  00076C                     i2u129_40:
  2278  00076C                     i2l1823:
  2279  00076C  0E01               	movlw	1
  2280  00076E  6E27               	movwf	___fladd@aexp^0,c
  2281  000770  EFC3  F003         	goto	i2l778
  2282  000774                     i2l779:
  2283  000774  A01A               	btfss	___fladd@b^0,0,c
  2284  000776  EFBF  F003         	goto	i2u130_41
  2285  00077A  EFC1  F003         	goto	i2u130_40
  2286  00077E                     i2u130_41:
  2287  00077E  EFC3  F003         	goto	i2l778
  2288  000782                     i2u130_40:
  2289  000782  EFB6  F003         	goto	i2l1823
  2290  000786                     i2l778:
  2291  000786  5027               	movf	___fladd@aexp^0,w,c
  2292  000788  B4D8               	btfsc	status,2,c
  2293  00078A  EFC9  F003         	goto	i2u131_41
  2294  00078E  EFCB  F003         	goto	i2u131_40
  2295  000792                     i2u131_41:
  2296  000792  EFF6  F003         	goto	i2l1835
  2297  000796                     i2u131_40:
  2298  000796  0E01               	movlw	1
  2299  000798  261A               	addwf	___fladd@b^0,f,c
  2300  00079A  0E00               	movlw	0
  2301  00079C  221B               	addwfc	(___fladd@b+1)^0,f,c
  2302  00079E  221C               	addwfc	(___fladd@b+2)^0,f,c
  2303  0007A0  221D               	addwfc	(___fladd@b+3)^0,f,c
  2304  0007A2  A01D               	btfss	(___fladd@b+3)^0,0,c
  2305  0007A4  EFD6  F003         	goto	i2u132_41
  2306  0007A8  EFD8  F003         	goto	i2u132_40
  2307  0007AC                     i2u132_41:
  2308  0007AC  EFF6  F003         	goto	i2l1835
  2309  0007B0                     i2u132_40:
  2310  0007B0  C01A  F022         	movff	___fladd@b,??___fladd
  2311  0007B4  C01B  F023         	movff	___fladd@b+1,??___fladd+1
  2312  0007B8  C01C  F024         	movff	___fladd@b+2,??___fladd+2
  2313  0007BC  C01D  F025         	movff	___fladd@b+3,??___fladd+3
  2314  0007C0  3425               	rlcf	(??___fladd+3)^0,w,c
  2315  0007C2  3225               	rrcf	(??___fladd+3)^0,f,c
  2316  0007C4  3224               	rrcf	(??___fladd+2)^0,f,c
  2317  0007C6  3223               	rrcf	(??___fladd+1)^0,f,c
  2318  0007C8  3222               	rrcf	??___fladd^0,f,c
  2319  0007CA  C022  F01A         	movff	??___fladd,___fladd@b
  2320  0007CE  C023  F01B         	movff	??___fladd+1,___fladd@b+1
  2321  0007D2  C024  F01C         	movff	??___fladd+2,___fladd@b+2
  2322  0007D6  C025  F01D         	movff	??___fladd+3,___fladd@b+3
  2323  0007DA  2828               	incf	___fladd@bexp^0,w,c
  2324  0007DC  B4D8               	btfsc	status,2,c
  2325  0007DE  EFF3  F003         	goto	i2u133_41
  2326  0007E2  EFF5  F003         	goto	i2u133_40
  2327  0007E6                     i2u133_41:
  2328  0007E6  EFF6  F003         	goto	i2l1835
  2329  0007EA                     i2u133_40:
  2330  0007EA  2A28               	incf	___fladd@bexp^0,f,c
  2331  0007EC                     i2l1835:
  2332  0007EC  2828               	incf	___fladd@bexp^0,w,c
  2333  0007EE  B4D8               	btfsc	status,2,c
  2334  0007F0  EFFC  F003         	goto	i2u134_41
  2335  0007F4  EFFE  F003         	goto	i2u134_40
  2336  0007F8                     i2u134_41:
  2337  0007F8  EF06  F004         	goto	i2l1839
  2338  0007FC                     i2u134_40:
  2339  0007FC  5028               	movf	___fladd@bexp^0,w,c
  2340  0007FE  A4D8               	btfss	status,2,c
  2341  000800  EF04  F004         	goto	i2u135_41
  2342  000804  EF06  F004         	goto	i2u135_40
  2343  000808                     i2u135_41:
  2344  000808  EF18  F004         	goto	i2l1843
  2345  00080C                     i2u135_40:
  2346  00080C                     i2l1839:
  2347  00080C  0E00               	movlw	0
  2348  00080E  6E1A               	movwf	___fladd@b^0,c
  2349  000810  0E00               	movlw	0
  2350  000812  6E1B               	movwf	(___fladd@b+1)^0,c
  2351  000814  0E00               	movlw	0
  2352  000816  6E1C               	movwf	(___fladd@b+2)^0,c
  2353  000818  0E00               	movlw	0
  2354  00081A  6E1D               	movwf	(___fladd@b+3)^0,c
  2355  00081C  5028               	movf	___fladd@bexp^0,w,c
  2356  00081E  A4D8               	btfss	status,2,c
  2357  000820  EF14  F004         	goto	i2u136_41
  2358  000824  EF16  F004         	goto	i2u136_40
  2359  000828                     i2u136_41:
  2360  000828  EF18  F004         	goto	i2l1843
  2361  00082C                     i2u136_40:
  2362  00082C  0E00               	movlw	0
  2363  00082E  6E26               	movwf	___fladd@signs^0,c
  2364  000830                     i2l1843:
  2365  000830  A028               	btfss	___fladd@bexp^0,0,c
  2366  000832  EF1D  F004         	goto	i2u137_41
  2367  000836  EF1F  F004         	goto	i2u137_40
  2368  00083A                     i2u137_41:
  2369  00083A  EF22  F004         	goto	i2l1847
  2370  00083E                     i2u137_40:
  2371  00083E  8E1C               	bsf	(___fladd@b+2)^0,7,c
  2372  000840  EF23  F004         	goto	i2l1849
  2373  000844                     i2l1847:
  2374  000844  9E1C               	bcf	(___fladd@b+2)^0,7,c
  2375  000846                     i2l1849:
  2376  000846  90D8               	bcf	status,0,c
  2377  000848  3028               	rrcf	___fladd@bexp^0,w,c
  2378  00084A  6E1D               	movwf	(___fladd@b+3)^0,c
  2379  00084C  AE26               	btfss	___fladd@signs^0,7,c
  2380  00084E  EF2B  F004         	goto	i2u138_41
  2381  000852  EF2D  F004         	goto	i2u138_40
  2382  000856                     i2u138_41:
  2383  000856  EF2E  F004         	goto	i2l1855
  2384  00085A                     i2u138_40:
  2385  00085A  8E1D               	bsf	(___fladd@b+3)^0,7,c
  2386  00085C                     i2l1855:
  2387  00085C  C01A  F01A         	movff	___fladd@b,?___fladd
  2388  000860  C01B  F01B         	movff	___fladd@b+1,?___fladd+1
  2389  000864  C01C  F01C         	movff	___fladd@b+2,?___fladd+2
  2390  000868  C01D  F01D         	movff	___fladd@b+3,?___fladd+3
  2391  00086C                     i2l761:
  2392  00086C  0012               	return		;funcret
  2393  00086E                     __end_of___fladd:
  2394                           	callstack 0
  2395                           
  2396 ;; *************** function ___flmul *****************
  2397 ;; Defined at:
  2398 ;;		line 8 in file "C:\Program Files\Microchip\xc8\v2.32\pic\sources\c90\common\sprcmul.c"
  2399 ;; Parameters:    Size  Location     Type
  2400 ;;  b               4    0[COMRAM] unsigned char 
  2401 ;;  a               4    4[COMRAM] unsigned char 
  2402 ;; Auto vars:     Size  Location     Type
  2403 ;;  prod            4   19[COMRAM] struct .
  2404 ;;  grs             4   13[COMRAM] unsigned long 
  2405 ;;  temp            2   23[COMRAM] struct .
  2406 ;;  bexp            1   18[COMRAM] unsigned char 
  2407 ;;  aexp            1   17[COMRAM] unsigned char 
  2408 ;;  sign            1   12[COMRAM] unsigned char 
  2409 ;; Return value:  Size  Location     Type
  2410 ;;                  4    0[COMRAM] unsigned char 
  2411 ;; Registers used:
  2412 ;;		wreg, status,2, status,0, prodl, prodh
  2413 ;; Tracked objects:
  2414 ;;		On entry : 0/0
  2415 ;;		On exit  : 0/0
  2416 ;;		Unchanged: 0/0
  2417 ;; Data sizes:     COMRAM   BANK0   BANK1   BANK2
  2418 ;;      Params:         8       0       0       0
  2419 ;;      Locals:        13       0       0       0
  2420 ;;      Temps:          4       0       0       0
  2421 ;;      Totals:        25       0       0       0
  2422 ;;Total ram usage:       25 bytes
  2423 ;; Hardware stack levels used: 1
  2424 ;; This function calls:
  2425 ;;		Nothing
  2426 ;; This function is called by:
  2427 ;;		_ISR
  2428 ;;		_motorOutMSB
  2429 ;;		_motorOutLSB
  2430 ;; This function uses a non-reentrant model
  2431 ;;
  2432                           
  2433                           	psect	text12
  2434  00086E                     __ptext12:
  2435                           	callstack 0
  2436  00086E                     ___flmul:
  2437                           	callstack 27
  2438  00086E  5004               	movf	(___flmul@b+3)^0,w,c
  2439  000870  0B80               	andlw	128
  2440  000872  6E0D               	movwf	___flmul@sign^0,c
  2441  000874  5004               	movf	(___flmul@b+3)^0,w,c
  2442  000876  2404               	addwf	(___flmul@b+3)^0,w,c
  2443  000878  6E13               	movwf	___flmul@bexp^0,c
  2444  00087A  AE03               	btfss	(___flmul@b+2)^0,7,c
  2445  00087C  EF42  F004         	goto	i2u140_41
  2446  000880  EF44  F004         	goto	i2u140_40
  2447  000884                     i2u140_41:
  2448  000884  EF45  F004         	goto	i2l1925
  2449  000888                     i2u140_40:
  2450  000888  8013               	bsf	___flmul@bexp^0,0,c
  2451  00088A                     i2l1925:
  2452  00088A  5013               	movf	___flmul@bexp^0,w,c
  2453  00088C  B4D8               	btfsc	status,2,c
  2454  00088E  EF4B  F004         	goto	i2u141_41
  2455  000892  EF4D  F004         	goto	i2u141_40
  2456  000896                     i2u141_41:
  2457  000896  EF60  F004         	goto	i2l1933
  2458  00089A                     i2u141_40:
  2459  00089A  2813               	incf	___flmul@bexp^0,w,c
  2460  00089C  A4D8               	btfss	status,2,c
  2461  00089E  EF53  F004         	goto	i2u142_41
  2462  0008A2  EF55  F004         	goto	i2u142_40
  2463  0008A6                     i2u142_41:
  2464  0008A6  EF5D  F004         	goto	i2l1931
  2465  0008AA                     i2u142_40:
  2466  0008AA  0E00               	movlw	0
  2467  0008AC  6E01               	movwf	___flmul@b^0,c
  2468  0008AE  0E00               	movlw	0
  2469  0008B0  6E02               	movwf	(___flmul@b+1)^0,c
  2470  0008B2  0E00               	movlw	0
  2471  0008B4  6E03               	movwf	(___flmul@b+2)^0,c
  2472  0008B6  0E00               	movlw	0
  2473  0008B8  6E04               	movwf	(___flmul@b+3)^0,c
  2474  0008BA                     i2l1931:
  2475  0008BA  8E03               	bsf	(___flmul@b+2)^0,7,c
  2476  0008BC  EF68  F004         	goto	i2l1935
  2477  0008C0                     i2l1933:
  2478  0008C0  0E00               	movlw	0
  2479  0008C2  6E01               	movwf	___flmul@b^0,c
  2480  0008C4  0E00               	movlw	0
  2481  0008C6  6E02               	movwf	(___flmul@b+1)^0,c
  2482  0008C8  0E00               	movlw	0
  2483  0008CA  6E03               	movwf	(___flmul@b+2)^0,c
  2484  0008CC  0E00               	movlw	0
  2485  0008CE  6E04               	movwf	(___flmul@b+3)^0,c
  2486  0008D0                     i2l1935:
  2487  0008D0  5008               	movf	(___flmul@a+3)^0,w,c
  2488  0008D2  0B80               	andlw	128
  2489  0008D4  1A0D               	xorwf	___flmul@sign^0,f,c
  2490  0008D6  5008               	movf	(___flmul@a+3)^0,w,c
  2491  0008D8  2408               	addwf	(___flmul@a+3)^0,w,c
  2492  0008DA  6E12               	movwf	___flmul@aexp^0,c
  2493  0008DC  AE07               	btfss	(___flmul@a+2)^0,7,c
  2494  0008DE  EF73  F004         	goto	i2u143_41
  2495  0008E2  EF75  F004         	goto	i2u143_40
  2496  0008E6                     i2u143_41:
  2497  0008E6  EF76  F004         	goto	i2l1943
  2498  0008EA                     i2u143_40:
  2499  0008EA  8012               	bsf	___flmul@aexp^0,0,c
  2500  0008EC                     i2l1943:
  2501  0008EC  5012               	movf	___flmul@aexp^0,w,c
  2502  0008EE  B4D8               	btfsc	status,2,c
  2503  0008F0  EF7C  F004         	goto	i2u144_41
  2504  0008F4  EF7E  F004         	goto	i2u144_40
  2505  0008F8                     i2u144_41:
  2506  0008F8  EF91  F004         	goto	i2l1951
  2507  0008FC                     i2u144_40:
  2508  0008FC  2812               	incf	___flmul@aexp^0,w,c
  2509  0008FE  A4D8               	btfss	status,2,c
  2510  000900  EF84  F004         	goto	i2u145_41
  2511  000904  EF86  F004         	goto	i2u145_40
  2512  000908                     i2u145_41:
  2513  000908  EF8E  F004         	goto	i2l1949
  2514  00090C                     i2u145_40:
  2515  00090C  0E00               	movlw	0
  2516  00090E  6E05               	movwf	___flmul@a^0,c
  2517  000910  0E00               	movlw	0
  2518  000912  6E06               	movwf	(___flmul@a+1)^0,c
  2519  000914  0E00               	movlw	0
  2520  000916  6E07               	movwf	(___flmul@a+2)^0,c
  2521  000918  0E00               	movlw	0
  2522  00091A  6E08               	movwf	(___flmul@a+3)^0,c
  2523  00091C                     i2l1949:
  2524  00091C  8E07               	bsf	(___flmul@a+2)^0,7,c
  2525  00091E  EF99  F004         	goto	i2l838
  2526  000922                     i2l1951:
  2527  000922  0E00               	movlw	0
  2528  000924  6E05               	movwf	___flmul@a^0,c
  2529  000926  0E00               	movlw	0
  2530  000928  6E06               	movwf	(___flmul@a+1)^0,c
  2531  00092A  0E00               	movlw	0
  2532  00092C  6E07               	movwf	(___flmul@a+2)^0,c
  2533  00092E  0E00               	movlw	0
  2534  000930  6E08               	movwf	(___flmul@a+3)^0,c
  2535  000932                     i2l838:
  2536  000932  5012               	movf	___flmul@aexp^0,w,c
  2537  000934  B4D8               	btfsc	status,2,c
  2538  000936  EF9F  F004         	goto	i2u146_41
  2539  00093A  EFA1  F004         	goto	i2u146_40
  2540  00093E                     i2u146_41:
  2541  00093E  EFA9  F004         	goto	i2l1955
  2542  000942                     i2u146_40:
  2543  000942  5013               	movf	___flmul@bexp^0,w,c
  2544  000944  A4D8               	btfss	status,2,c
  2545  000946  EFA7  F004         	goto	i2u147_41
  2546  00094A  EFA9  F004         	goto	i2u147_40
  2547  00094E                     i2u147_41:
  2548  00094E  EFB3  F004         	goto	i2l1959
  2549  000952                     i2u147_40:
  2550  000952                     i2l1955:
  2551  000952  0E00               	movlw	0
  2552  000954  6E01               	movwf	?___flmul^0,c
  2553  000956  0E00               	movlw	0
  2554  000958  6E02               	movwf	(?___flmul+1)^0,c
  2555  00095A  0E00               	movlw	0
  2556  00095C  6E03               	movwf	(?___flmul+2)^0,c
  2557  00095E  0E00               	movlw	0
  2558  000960  6E04               	movwf	(?___flmul+3)^0,c
  2559  000962  EF4B  F006         	goto	i2l842
  2560  000966                     i2l1959:
  2561  000966  5007               	movf	(___flmul@a+2)^0,w,c
  2562  000968  0201               	mulwf	___flmul@b^0,c
  2563  00096A  CFF3 F018          	movff	prodl,___flmul@temp
  2564  00096E  CFF4 F019          	movff	prodh,___flmul@temp+1
  2565  000972  5018               	movf	___flmul@temp^0,w,c
  2566  000974  6E0E               	movwf	___flmul@grs^0,c
  2567  000976  6A0F               	clrf	(___flmul@grs+1)^0,c
  2568  000978  6A10               	clrf	(___flmul@grs+2)^0,c
  2569  00097A  6A11               	clrf	(___flmul@grs+3)^0,c
  2570  00097C  5019               	movf	(___flmul@temp+1)^0,w,c
  2571  00097E  6E14               	movwf	___flmul@prod^0,c
  2572  000980  6A15               	clrf	(___flmul@prod+1)^0,c
  2573  000982  6A16               	clrf	(___flmul@prod+2)^0,c
  2574  000984  6A17               	clrf	(___flmul@prod+3)^0,c
  2575  000986  5006               	movf	(___flmul@a+1)^0,w,c
  2576  000988  0202               	mulwf	(___flmul@b+1)^0,c
  2577  00098A  CFF3 F018          	movff	prodl,___flmul@temp
  2578  00098E  CFF4 F019          	movff	prodh,___flmul@temp+1
  2579  000992  5018               	movf	___flmul@temp^0,w,c
  2580  000994  260E               	addwf	___flmul@grs^0,f,c
  2581  000996  0E00               	movlw	0
  2582  000998  220F               	addwfc	(___flmul@grs+1)^0,f,c
  2583  00099A  2210               	addwfc	(___flmul@grs+2)^0,f,c
  2584  00099C  2211               	addwfc	(___flmul@grs+3)^0,f,c
  2585  00099E  5019               	movf	(___flmul@temp+1)^0,w,c
  2586  0009A0  2614               	addwf	___flmul@prod^0,f,c
  2587  0009A2  0E00               	movlw	0
  2588  0009A4  2215               	addwfc	(___flmul@prod+1)^0,f,c
  2589  0009A6  2216               	addwfc	(___flmul@prod+2)^0,f,c
  2590  0009A8  2217               	addwfc	(___flmul@prod+3)^0,f,c
  2591  0009AA  5005               	movf	___flmul@a^0,w,c
  2592  0009AC  0203               	mulwf	(___flmul@b+2)^0,c
  2593  0009AE  CFF3 F018          	movff	prodl,___flmul@temp
  2594  0009B2  CFF4 F019          	movff	prodh,___flmul@temp+1
  2595  0009B6  5018               	movf	___flmul@temp^0,w,c
  2596  0009B8  260E               	addwf	___flmul@grs^0,f,c
  2597  0009BA  0E00               	movlw	0
  2598  0009BC  220F               	addwfc	(___flmul@grs+1)^0,f,c
  2599  0009BE  2210               	addwfc	(___flmul@grs+2)^0,f,c
  2600  0009C0  2211               	addwfc	(___flmul@grs+3)^0,f,c
  2601  0009C2  5019               	movf	(___flmul@temp+1)^0,w,c
  2602  0009C4  2614               	addwf	___flmul@prod^0,f,c
  2603  0009C6  0E00               	movlw	0
  2604  0009C8  2215               	addwfc	(___flmul@prod+1)^0,f,c
  2605  0009CA  2216               	addwfc	(___flmul@prod+2)^0,f,c
  2606  0009CC  2217               	addwfc	(___flmul@prod+3)^0,f,c
  2607  0009CE  C010  F011         	movff	___flmul@grs+2,___flmul@grs+3
  2608  0009D2  C00F  F010         	movff	___flmul@grs+1,___flmul@grs+2
  2609  0009D6  C00E  F00F         	movff	___flmul@grs,___flmul@grs+1
  2610  0009DA  6A0E               	clrf	___flmul@grs^0,c
  2611  0009DC  5005               	movf	___flmul@a^0,w,c
  2612  0009DE  0202               	mulwf	(___flmul@b+1)^0,c
  2613  0009E0  CFF3 F018          	movff	prodl,___flmul@temp
  2614  0009E4  CFF4 F019          	movff	prodh,___flmul@temp+1
  2615  0009E8  5018               	movf	___flmul@temp^0,w,c
  2616  0009EA  260E               	addwf	___flmul@grs^0,f,c
  2617  0009EC  5019               	movf	(___flmul@temp+1)^0,w,c
  2618  0009EE  220F               	addwfc	(___flmul@grs+1)^0,f,c
  2619  0009F0  0E00               	movlw	0
  2620  0009F2  2210               	addwfc	(___flmul@grs+2)^0,f,c
  2621  0009F4  0E00               	movlw	0
  2622  0009F6  2211               	addwfc	(___flmul@grs+3)^0,f,c
  2623  0009F8  5006               	movf	(___flmul@a+1)^0,w,c
  2624  0009FA  0201               	mulwf	___flmul@b^0,c
  2625  0009FC  CFF3 F018          	movff	prodl,___flmul@temp
  2626  000A00  CFF4 F019          	movff	prodh,___flmul@temp+1
  2627  000A04  5018               	movf	___flmul@temp^0,w,c
  2628  000A06  260E               	addwf	___flmul@grs^0,f,c
  2629  000A08  5019               	movf	(___flmul@temp+1)^0,w,c
  2630  000A0A  220F               	addwfc	(___flmul@grs+1)^0,f,c
  2631  000A0C  0E00               	movlw	0
  2632  000A0E  2210               	addwfc	(___flmul@grs+2)^0,f,c
  2633  000A10  0E00               	movlw	0
  2634  000A12  2211               	addwfc	(___flmul@grs+3)^0,f,c
  2635  000A14  C010  F011         	movff	___flmul@grs+2,___flmul@grs+3
  2636  000A18  C00F  F010         	movff	___flmul@grs+1,___flmul@grs+2
  2637  000A1C  C00E  F00F         	movff	___flmul@grs,___flmul@grs+1
  2638  000A20  6A0E               	clrf	___flmul@grs^0,c
  2639  000A22  5005               	movf	___flmul@a^0,w,c
  2640  000A24  0201               	mulwf	___flmul@b^0,c
  2641  000A26  CFF3 F018          	movff	prodl,___flmul@temp
  2642  000A2A  CFF4 F019          	movff	prodh,___flmul@temp+1
  2643  000A2E  5018               	movf	___flmul@temp^0,w,c
  2644  000A30  260E               	addwf	___flmul@grs^0,f,c
  2645  000A32  5019               	movf	(___flmul@temp+1)^0,w,c
  2646  000A34  220F               	addwfc	(___flmul@grs+1)^0,f,c
  2647  000A36  0E00               	movlw	0
  2648  000A38  2210               	addwfc	(___flmul@grs+2)^0,f,c
  2649  000A3A  0E00               	movlw	0
  2650  000A3C  2211               	addwfc	(___flmul@grs+3)^0,f,c
  2651  000A3E  5007               	movf	(___flmul@a+2)^0,w,c
  2652  000A40  0202               	mulwf	(___flmul@b+1)^0,c
  2653  000A42  CFF3 F018          	movff	prodl,___flmul@temp
  2654  000A46  CFF4 F019          	movff	prodh,___flmul@temp+1
  2655  000A4A  5018               	movf	___flmul@temp^0,w,c
  2656  000A4C  2614               	addwf	___flmul@prod^0,f,c
  2657  000A4E  5019               	movf	(___flmul@temp+1)^0,w,c
  2658  000A50  2215               	addwfc	(___flmul@prod+1)^0,f,c
  2659  000A52  0E00               	movlw	0
  2660  000A54  2216               	addwfc	(___flmul@prod+2)^0,f,c
  2661  000A56  0E00               	movlw	0
  2662  000A58  2217               	addwfc	(___flmul@prod+3)^0,f,c
  2663  000A5A  5006               	movf	(___flmul@a+1)^0,w,c
  2664  000A5C  0203               	mulwf	(___flmul@b+2)^0,c
  2665  000A5E  CFF3 F018          	movff	prodl,___flmul@temp
  2666  000A62  CFF4 F019          	movff	prodh,___flmul@temp+1
  2667  000A66  5018               	movf	___flmul@temp^0,w,c
  2668  000A68  2614               	addwf	___flmul@prod^0,f,c
  2669  000A6A  5019               	movf	(___flmul@temp+1)^0,w,c
  2670  000A6C  2215               	addwfc	(___flmul@prod+1)^0,f,c
  2671  000A6E  0E00               	movlw	0
  2672  000A70  2216               	addwfc	(___flmul@prod+2)^0,f,c
  2673  000A72  0E00               	movlw	0
  2674  000A74  2217               	addwfc	(___flmul@prod+3)^0,f,c
  2675  000A76  5007               	movf	(___flmul@a+2)^0,w,c
  2676  000A78  0203               	mulwf	(___flmul@b+2)^0,c
  2677  000A7A  CFF3 F018          	movff	prodl,___flmul@temp
  2678  000A7E  CFF4 F019          	movff	prodh,___flmul@temp+1
  2679  000A82  5018               	movf	___flmul@temp^0,w,c
  2680  000A84  6E09               	movwf	??___flmul^0,c
  2681  000A86  5019               	movf	(___flmul@temp+1)^0,w,c
  2682  000A88  6E0A               	movwf	(??___flmul+1)^0,c
  2683  000A8A  6A0B               	clrf	(??___flmul+2)^0,c
  2684  000A8C  6A0C               	clrf	(??___flmul+3)^0,c
  2685  000A8E  C00B  F00C         	movff	??___flmul+2,??___flmul+3
  2686  000A92  C00A  F00B         	movff	??___flmul+1,??___flmul+2
  2687  000A96  C009  F00A         	movff	??___flmul,??___flmul+1
  2688  000A9A  6A09               	clrf	??___flmul^0,c
  2689  000A9C  5009               	movf	??___flmul^0,w,c
  2690  000A9E  2614               	addwf	___flmul@prod^0,f,c
  2691  000AA0  500A               	movf	(??___flmul+1)^0,w,c
  2692  000AA2  2215               	addwfc	(___flmul@prod+1)^0,f,c
  2693  000AA4  500B               	movf	(??___flmul+2)^0,w,c
  2694  000AA6  2216               	addwfc	(___flmul@prod+2)^0,f,c
  2695  000AA8  500C               	movf	(??___flmul+3)^0,w,c
  2696  000AAA  2217               	addwfc	(___flmul@prod+3)^0,f,c
  2697  000AAC  C00E  F009         	movff	___flmul@grs,??___flmul
  2698  000AB0  C00F  F00A         	movff	___flmul@grs+1,??___flmul+1
  2699  000AB4  C010  F00B         	movff	___flmul@grs+2,??___flmul+2
  2700  000AB8  C011  F00C         	movff	___flmul@grs+3,??___flmul+3
  2701  000ABC  0E19               	movlw	25
  2702  000ABE  EF66  F005         	goto	i2u148_40
  2703  000AC2                     i2u148_45:
  2704  000AC2  90D8               	bcf	status,0,c
  2705  000AC4  320C               	rrcf	(??___flmul+3)^0,f,c
  2706  000AC6  320B               	rrcf	(??___flmul+2)^0,f,c
  2707  000AC8  320A               	rrcf	(??___flmul+1)^0,f,c
  2708  000ACA  3209               	rrcf	??___flmul^0,f,c
  2709  000ACC                     i2u148_40:
  2710  000ACC  2EE8               	decfsz	wreg,f,c
  2711  000ACE  EF61  F005         	goto	i2u148_45
  2712  000AD2  5009               	movf	??___flmul^0,w,c
  2713  000AD4  2614               	addwf	___flmul@prod^0,f,c
  2714  000AD6  500A               	movf	(??___flmul+1)^0,w,c
  2715  000AD8  2215               	addwfc	(___flmul@prod+1)^0,f,c
  2716  000ADA  500B               	movf	(??___flmul+2)^0,w,c
  2717  000ADC  2216               	addwfc	(___flmul@prod+2)^0,f,c
  2718  000ADE  500C               	movf	(??___flmul+3)^0,w,c
  2719  000AE0  2217               	addwfc	(___flmul@prod+3)^0,f,c
  2720  000AE2  C010  F011         	movff	___flmul@grs+2,___flmul@grs+3
  2721  000AE6  C00F  F010         	movff	___flmul@grs+1,___flmul@grs+2
  2722  000AEA  C00E  F00F         	movff	___flmul@grs,___flmul@grs+1
  2723  000AEE  6A0E               	clrf	___flmul@grs^0,c
  2724  000AF0  5012               	movf	___flmul@aexp^0,w,c
  2725  000AF2  C013  F009         	movff	___flmul@bexp,??___flmul
  2726  000AF6  6A0A               	clrf	(??___flmul+1)^0,c
  2727  000AF8  2609               	addwf	??___flmul^0,f,c
  2728  000AFA  0E00               	movlw	0
  2729  000AFC  220A               	addwfc	(??___flmul+1)^0,f,c
  2730  000AFE  0E82               	movlw	130
  2731  000B00  2409               	addwf	??___flmul^0,w,c
  2732  000B02  6E18               	movwf	___flmul@temp^0,c
  2733  000B04  0EFF               	movlw	255
  2734  000B06  200A               	addwfc	(??___flmul+1)^0,w,c
  2735  000B08  6E19               	movwf	(___flmul@temp+1)^0,c
  2736  000B0A  EF9C  F005         	goto	i2l2007
  2737  000B0E                     i2l2001:
  2738  000B0E  90D8               	bcf	status,0,c
  2739  000B10  3614               	rlcf	___flmul@prod^0,f,c
  2740  000B12  3615               	rlcf	(___flmul@prod+1)^0,f,c
  2741  000B14  3616               	rlcf	(___flmul@prod+2)^0,f,c
  2742  000B16  3617               	rlcf	(___flmul@prod+3)^0,f,c
  2743  000B18  AE11               	btfss	(___flmul@grs+3)^0,7,c
  2744  000B1A  EF91  F005         	goto	i2u149_41
  2745  000B1E  EF93  F005         	goto	i2u149_40
  2746  000B22                     i2u149_41:
  2747  000B22  EF94  F005         	goto	i2l845
  2748  000B26                     i2u149_40:
  2749  000B26  8014               	bsf	___flmul@prod^0,0,c
  2750  000B28                     i2l845:
  2751  000B28  90D8               	bcf	status,0,c
  2752  000B2A  360E               	rlcf	___flmul@grs^0,f,c
  2753  000B2C  360F               	rlcf	(___flmul@grs+1)^0,f,c
  2754  000B2E  3610               	rlcf	(___flmul@grs+2)^0,f,c
  2755  000B30  3611               	rlcf	(___flmul@grs+3)^0,f,c
  2756  000B32  0618               	decf	___flmul@temp^0,f,c
  2757  000B34  A0D8               	btfss	status,0,c
  2758  000B36  0619               	decf	(___flmul@temp+1)^0,f,c
  2759  000B38                     i2l2007:
  2760  000B38  AE16               	btfss	(___flmul@prod+2)^0,7,c
  2761  000B3A  EFA1  F005         	goto	i2u150_41
  2762  000B3E  EFA3  F005         	goto	i2u150_40
  2763  000B42                     i2u150_41:
  2764  000B42  EF87  F005         	goto	i2l2001
  2765  000B46                     i2u150_40:
  2766  000B46  0E00               	movlw	0
  2767  000B48  6E12               	movwf	___flmul@aexp^0,c
  2768  000B4A  AE11               	btfss	(___flmul@grs+3)^0,7,c
  2769  000B4C  EFAA  F005         	goto	i2u151_41
  2770  000B50  EFAC  F005         	goto	i2u151_40
  2771  000B54                     i2u151_41:
  2772  000B54  EFD0  F005         	goto	i2l847
  2773  000B58                     i2u151_40:
  2774  000B58  0EFF               	movlw	255
  2775  000B5A  140E               	andwf	___flmul@grs^0,w,c
  2776  000B5C  6E09               	movwf	??___flmul^0,c
  2777  000B5E  0EFF               	movlw	255
  2778  000B60  140F               	andwf	(___flmul@grs+1)^0,w,c
  2779  000B62  6E0A               	movwf	(??___flmul+1)^0,c
  2780  000B64  0EFF               	movlw	255
  2781  000B66  1410               	andwf	(___flmul@grs+2)^0,w,c
  2782  000B68  6E0B               	movwf	(??___flmul+2)^0,c
  2783  000B6A  0E7F               	movlw	127
  2784  000B6C  1411               	andwf	(___flmul@grs+3)^0,w,c
  2785  000B6E  6E0C               	movwf	(??___flmul+3)^0,c
  2786  000B70  5009               	movf	??___flmul^0,w,c
  2787  000B72  100A               	iorwf	(??___flmul+1)^0,w,c
  2788  000B74  100B               	iorwf	(??___flmul+2)^0,w,c
  2789  000B76  100C               	iorwf	(??___flmul+3)^0,w,c
  2790  000B78  B4D8               	btfsc	status,2,c
  2791  000B7A  EFC1  F005         	goto	i2u152_41
  2792  000B7E  EFC3  F005         	goto	i2u152_40
  2793  000B82                     i2u152_41:
  2794  000B82  EFC7  F005         	goto	i2l848
  2795  000B86                     i2u152_40:
  2796  000B86                     i2l2015:
  2797  000B86  0E01               	movlw	1
  2798  000B88  6E12               	movwf	___flmul@aexp^0,c
  2799  000B8A  EFD0  F005         	goto	i2l847
  2800  000B8E                     i2l848:
  2801  000B8E  A014               	btfss	___flmul@prod^0,0,c
  2802  000B90  EFCC  F005         	goto	i2u153_41
  2803  000B94  EFCE  F005         	goto	i2u153_40
  2804  000B98                     i2u153_41:
  2805  000B98  EFD0  F005         	goto	i2l847
  2806  000B9C                     i2u153_40:
  2807  000B9C  EFC3  F005         	goto	i2l2015
  2808  000BA0                     i2l847:
  2809  000BA0  5012               	movf	___flmul@aexp^0,w,c
  2810  000BA2  B4D8               	btfsc	status,2,c
  2811  000BA4  EFD6  F005         	goto	i2u154_41
  2812  000BA8  EFD8  F005         	goto	i2u154_40
  2813  000BAC                     i2u154_41:
  2814  000BAC  EFFC  F005         	goto	i2l2027
  2815  000BB0                     i2u154_40:
  2816  000BB0  0E01               	movlw	1
  2817  000BB2  2614               	addwf	___flmul@prod^0,f,c
  2818  000BB4  0E00               	movlw	0
  2819  000BB6  2215               	addwfc	(___flmul@prod+1)^0,f,c
  2820  000BB8  2216               	addwfc	(___flmul@prod+2)^0,f,c
  2821  000BBA  2217               	addwfc	(___flmul@prod+3)^0,f,c
  2822  000BBC  A017               	btfss	(___flmul@prod+3)^0,0,c
  2823  000BBE  EFE3  F005         	goto	i2u155_41
  2824  000BC2  EFE5  F005         	goto	i2u155_40
  2825  000BC6                     i2u155_41:
  2826  000BC6  EFFC  F005         	goto	i2l2027
  2827  000BCA                     i2u155_40:
  2828  000BCA  C014  F009         	movff	___flmul@prod,??___flmul
  2829  000BCE  C015  F00A         	movff	___flmul@prod+1,??___flmul+1
  2830  000BD2  C016  F00B         	movff	___flmul@prod+2,??___flmul+2
  2831  000BD6  C017  F00C         	movff	___flmul@prod+3,??___flmul+3
  2832  000BDA  340C               	rlcf	(??___flmul+3)^0,w,c
  2833  000BDC  320C               	rrcf	(??___flmul+3)^0,f,c
  2834  000BDE  320B               	rrcf	(??___flmul+2)^0,f,c
  2835  000BE0  320A               	rrcf	(??___flmul+1)^0,f,c
  2836  000BE2  3209               	rrcf	??___flmul^0,f,c
  2837  000BE4  C009  F014         	movff	??___flmul,___flmul@prod
  2838  000BE8  C00A  F015         	movff	??___flmul+1,___flmul@prod+1
  2839  000BEC  C00B  F016         	movff	??___flmul+2,___flmul@prod+2
  2840  000BF0  C00C  F017         	movff	??___flmul+3,___flmul@prod+3
  2841  000BF4  4A18               	infsnz	___flmul@temp^0,f,c
  2842  000BF6  2A19               	incf	(___flmul@temp+1)^0,f,c
  2843  000BF8                     i2l2027:
  2844  000BF8  BE19               	btfsc	(___flmul@temp+1)^0,7,c
  2845  000BFA  EF07  F006         	goto	i2u156_41
  2846  000BFE  5019               	movf	(___flmul@temp+1)^0,w,c
  2847  000C00  E108               	bnz	i2u156_40
  2848  000C02  2818               	incf	___flmul@temp^0,w,c
  2849  000C04  A0D8               	btfss	status,0,c
  2850  000C06  EF07  F006         	goto	i2u156_41
  2851  000C0A  EF09  F006         	goto	i2u156_40
  2852  000C0E                     i2u156_41:
  2853  000C0E  EF13  F006         	goto	i2l2031
  2854  000C12                     i2u156_40:
  2855  000C12  0E00               	movlw	0
  2856  000C14  6E14               	movwf	___flmul@prod^0,c
  2857  000C16  0E00               	movlw	0
  2858  000C18  6E15               	movwf	(___flmul@prod+1)^0,c
  2859  000C1A  0E80               	movlw	128
  2860  000C1C  6E16               	movwf	(___flmul@prod+2)^0,c
  2861  000C1E  0E7F               	movlw	127
  2862  000C20  6E17               	movwf	(___flmul@prod+3)^0,c
  2863  000C22  EF41  F006         	goto	i2l2043
  2864  000C26                     i2l2031:
  2865  000C26  BE19               	btfsc	(___flmul@temp+1)^0,7,c
  2866  000C28  EF20  F006         	goto	i2u157_40
  2867  000C2C  5019               	movf	(___flmul@temp+1)^0,w,c
  2868  000C2E  E106               	bnz	i2u157_41
  2869  000C30  0418               	decf	___flmul@temp^0,w,c
  2870  000C32  B0D8               	btfsc	status,0,c
  2871  000C34  EF1E  F006         	goto	i2u157_41
  2872  000C38  EF20  F006         	goto	i2u157_40
  2873  000C3C                     i2u157_41:
  2874  000C3C  EF2C  F006         	goto	i2l855
  2875  000C40                     i2u157_40:
  2876  000C40  0E00               	movlw	0
  2877  000C42  6E14               	movwf	___flmul@prod^0,c
  2878  000C44  0E00               	movlw	0
  2879  000C46  6E15               	movwf	(___flmul@prod+1)^0,c
  2880  000C48  0E00               	movlw	0
  2881  000C4A  6E16               	movwf	(___flmul@prod+2)^0,c
  2882  000C4C  0E00               	movlw	0
  2883  000C4E  6E17               	movwf	(___flmul@prod+3)^0,c
  2884  000C50  0E00               	movlw	0
  2885  000C52  6E0D               	movwf	___flmul@sign^0,c
  2886  000C54  EF41  F006         	goto	i2l2043
  2887  000C58                     i2l855:
  2888  000C58  C018  F013         	movff	___flmul@temp,___flmul@bexp
  2889  000C5C  0EFF               	movlw	255
  2890  000C5E  1614               	andwf	___flmul@prod^0,f,c
  2891  000C60  0EFF               	movlw	255
  2892  000C62  1615               	andwf	(___flmul@prod+1)^0,f,c
  2893  000C64  0E7F               	movlw	127
  2894  000C66  1616               	andwf	(___flmul@prod+2)^0,f,c
  2895  000C68  0E00               	movlw	0
  2896  000C6A  1617               	andwf	(___flmul@prod+3)^0,f,c
  2897  000C6C  A013               	btfss	___flmul@bexp^0,0,c
  2898  000C6E  EF3B  F006         	goto	i2u158_41
  2899  000C72  EF3D  F006         	goto	i2u158_40
  2900  000C76                     i2u158_41:
  2901  000C76  EF3E  F006         	goto	i2l2041
  2902  000C7A                     i2u158_40:
  2903  000C7A  8E16               	bsf	(___flmul@prod+2)^0,7,c
  2904  000C7C                     i2l2041:
  2905  000C7C  90D8               	bcf	status,0,c
  2906  000C7E  3013               	rrcf	___flmul@bexp^0,w,c
  2907  000C80  6E17               	movwf	(___flmul@prod+3)^0,c
  2908  000C82                     i2l2043:
  2909  000C82  500D               	movf	___flmul@sign^0,w,c
  2910  000C84  1217               	iorwf	(___flmul@prod+3)^0,f,c
  2911  000C86  C014  F001         	movff	___flmul@prod,?___flmul
  2912  000C8A  C015  F002         	movff	___flmul@prod+1,?___flmul+1
  2913  000C8E  C016  F003         	movff	___flmul@prod+2,?___flmul+2
  2914  000C92  C017  F004         	movff	___flmul@prod+3,?___flmul+3
  2915  000C96                     i2l842:
  2916  000C96  0012               	return		;funcret
  2917  000C98                     __end_of___flmul:
  2918                           	callstack 0
  2919                           
  2920 ;; *************** function ___flge *****************
  2921 ;; Defined at:
  2922 ;;		line 4 in file "C:\Program Files\Microchip\xc8\v2.32\pic\sources\c90\common\flge.c"
  2923 ;; Parameters:    Size  Location     Type
  2924 ;;  ff1             4    0[COMRAM] unsigned char 
  2925 ;;  ff2             4    4[COMRAM] unsigned char 
  2926 ;; Auto vars:     Size  Location     Type
  2927 ;;		None
  2928 ;; Return value:  Size  Location     Type
  2929 ;;		None               void
  2930 ;; Registers used:
  2931 ;;		wreg, status,2, status,0
  2932 ;; Tracked objects:
  2933 ;;		On entry : 0/0
  2934 ;;		On exit  : 0/0
  2935 ;;		Unchanged: 0/0
  2936 ;; Data sizes:     COMRAM   BANK0   BANK1   BANK2
  2937 ;;      Params:         8       0       0       0
  2938 ;;      Locals:         0       0       0       0
  2939 ;;      Temps:          4       0       0       0
  2940 ;;      Totals:        12       0       0       0
  2941 ;;Total ram usage:       12 bytes
  2942 ;; Hardware stack levels used: 1
  2943 ;; This function calls:
  2944 ;;		Nothing
  2945 ;; This function is called by:
  2946 ;;		_ISR
  2947 ;;		_medianF
  2948 ;; This function uses a non-reentrant model
  2949 ;;
  2950                           
  2951                           	psect	text13
  2952  000F52                     __ptext13:
  2953                           	callstack 0
  2954  000F52                     ___flge:
  2955                           	callstack 27
  2956  000F52  0E00               	movlw	0
  2957  000F54  1401               	andwf	___flge@ff1^0,w,c
  2958  000F56  6E09               	movwf	??___flge^0,c
  2959  000F58  0E00               	movlw	0
  2960  000F5A  1402               	andwf	(___flge@ff1+1)^0,w,c
  2961  000F5C  6E0A               	movwf	(??___flge+1)^0,c
  2962  000F5E  0E80               	movlw	128
  2963  000F60  1403               	andwf	(___flge@ff1+2)^0,w,c
  2964  000F62  6E0B               	movwf	(??___flge+2)^0,c
  2965  000F64  0E7F               	movlw	127
  2966  000F66  1404               	andwf	(___flge@ff1+3)^0,w,c
  2967  000F68  6E0C               	movwf	(??___flge+3)^0,c
  2968  000F6A  5009               	movf	??___flge^0,w,c
  2969  000F6C  100A               	iorwf	(??___flge+1)^0,w,c
  2970  000F6E  100B               	iorwf	(??___flge+2)^0,w,c
  2971  000F70  100C               	iorwf	(??___flge+3)^0,w,c
  2972  000F72  A4D8               	btfss	status,2,c
  2973  000F74  EFBE  F007         	goto	i2u159_41
  2974  000F78  EFC0  F007         	goto	i2u159_40
  2975  000F7C                     i2u159_41:
  2976  000F7C  EFC8  F007         	goto	i2l2059
  2977  000F80                     i2u159_40:
  2978  000F80  0E00               	movlw	0
  2979  000F82  6E01               	movwf	___flge@ff1^0,c
  2980  000F84  0E00               	movlw	0
  2981  000F86  6E02               	movwf	(___flge@ff1+1)^0,c
  2982  000F88  0E00               	movlw	0
  2983  000F8A  6E03               	movwf	(___flge@ff1+2)^0,c
  2984  000F8C  0E00               	movlw	0
  2985  000F8E  6E04               	movwf	(___flge@ff1+3)^0,c
  2986  000F90                     i2l2059:
  2987  000F90  0E00               	movlw	0
  2988  000F92  1405               	andwf	___flge@ff2^0,w,c
  2989  000F94  6E09               	movwf	??___flge^0,c
  2990  000F96  0E00               	movlw	0
  2991  000F98  1406               	andwf	(___flge@ff2+1)^0,w,c
  2992  000F9A  6E0A               	movwf	(??___flge+1)^0,c
  2993  000F9C  0E80               	movlw	128
  2994  000F9E  1407               	andwf	(___flge@ff2+2)^0,w,c
  2995  000FA0  6E0B               	movwf	(??___flge+2)^0,c
  2996  000FA2  0E7F               	movlw	127
  2997  000FA4  1408               	andwf	(___flge@ff2+3)^0,w,c
  2998  000FA6  6E0C               	movwf	(??___flge+3)^0,c
  2999  000FA8  5009               	movf	??___flge^0,w,c
  3000  000FAA  100A               	iorwf	(??___flge+1)^0,w,c
  3001  000FAC  100B               	iorwf	(??___flge+2)^0,w,c
  3002  000FAE  100C               	iorwf	(??___flge+3)^0,w,c
  3003  000FB0  A4D8               	btfss	status,2,c
  3004  000FB2  EFDD  F007         	goto	i2u160_41
  3005  000FB6  EFDF  F007         	goto	i2u160_40
  3006  000FBA                     i2u160_41:
  3007  000FBA  EFE7  F007         	goto	i2l2063
  3008  000FBE                     i2u160_40:
  3009  000FBE  0E00               	movlw	0
  3010  000FC0  6E05               	movwf	___flge@ff2^0,c
  3011  000FC2  0E00               	movlw	0
  3012  000FC4  6E06               	movwf	(___flge@ff2+1)^0,c
  3013  000FC6  0E00               	movlw	0
  3014  000FC8  6E07               	movwf	(___flge@ff2+2)^0,c
  3015  000FCA  0E00               	movlw	0
  3016  000FCC  6E08               	movwf	(___flge@ff2+3)^0,c
  3017  000FCE                     i2l2063:
  3018  000FCE  AE04               	btfss	(___flge@ff1+3)^0,7,c
  3019  000FD0  EFEC  F007         	goto	i2u161_41
  3020  000FD4  EFEE  F007         	goto	i2u161_40
  3021  000FD8                     i2u161_41:
  3022  000FD8  EFF7  F007         	goto	i2l2067
  3023  000FDC                     i2u161_40:
  3024  000FDC  6C01               	negf	___flge@ff1^0,c
  3025  000FDE  1E02               	comf	(___flge@ff1+1)^0,f,c
  3026  000FE0  B0D8               	btfsc	status,0,c
  3027  000FE2  2A02               	incf	(___flge@ff1+1)^0,f,c
  3028  000FE4  1E03               	comf	(___flge@ff1+2)^0,f,c
  3029  000FE6  B0D8               	btfsc	status,0,c
  3030  000FE8  2A03               	incf	(___flge@ff1+2)^0,f,c
  3031  000FEA  0E80               	movlw	128
  3032  000FEC  5604               	subfwb	(___flge@ff1+3)^0,f,c
  3033  000FEE                     i2l2067:
  3034  000FEE  AE08               	btfss	(___flge@ff2+3)^0,7,c
  3035  000FF0  EFFC  F007         	goto	i2u162_41
  3036  000FF4  EFFE  F007         	goto	i2u162_40
  3037  000FF8                     i2u162_41:
  3038  000FF8  EF07  F008         	goto	i2l497
  3039  000FFC                     i2u162_40:
  3040  000FFC  6C05               	negf	___flge@ff2^0,c
  3041  000FFE  1E06               	comf	(___flge@ff2+1)^0,f,c
  3042  001000  B0D8               	btfsc	status,0,c
  3043  001002  2A06               	incf	(___flge@ff2+1)^0,f,c
  3044  001004  1E07               	comf	(___flge@ff2+2)^0,f,c
  3045  001006  B0D8               	btfsc	status,0,c
  3046  001008  2A07               	incf	(___flge@ff2+2)^0,f,c
  3047  00100A  0E80               	movlw	128
  3048  00100C  5608               	subfwb	(___flge@ff2+3)^0,f,c
  3049  00100E                     i2l497:
  3050  00100E  0E00               	movlw	0
  3051  001010  1A01               	xorwf	___flge@ff1^0,f,c
  3052  001012  0E00               	movlw	0
  3053  001014  1A02               	xorwf	(___flge@ff1+1)^0,f,c
  3054  001016  0E00               	movlw	0
  3055  001018  1A03               	xorwf	(___flge@ff1+2)^0,f,c
  3056  00101A  0E80               	movlw	128
  3057  00101C  1A04               	xorwf	(___flge@ff1+3)^0,f,c
  3058  00101E  0E00               	movlw	0
  3059  001020  1A05               	xorwf	___flge@ff2^0,f,c
  3060  001022  0E00               	movlw	0
  3061  001024  1A06               	xorwf	(___flge@ff2+1)^0,f,c
  3062  001026  0E00               	movlw	0
  3063  001028  1A07               	xorwf	(___flge@ff2+2)^0,f,c
  3064  00102A  0E80               	movlw	128
  3065  00102C  1A08               	xorwf	(___flge@ff2+3)^0,f,c
  3066  00102E  5005               	movf	___flge@ff2^0,w,c
  3067  001030  5C01               	subwf	___flge@ff1^0,w,c
  3068  001032  5006               	movf	(___flge@ff2+1)^0,w,c
  3069  001034  5802               	subwfb	(___flge@ff1+1)^0,w,c
  3070  001036  5007               	movf	(___flge@ff2+2)^0,w,c
  3071  001038  5803               	subwfb	(___flge@ff1+2)^0,w,c
  3072  00103A  5008               	movf	(___flge@ff2+3)^0,w,c
  3073  00103C  5804               	subwfb	(___flge@ff1+3)^0,w,c
  3074  00103E  B0D8               	btfsc	status,0,c
  3075  001040  EF24  F008         	goto	i2u163_41
  3076  001044  EF26  F008         	goto	i2u163_40
  3077  001048                     i2u163_41:
  3078  001048  EF29  F008         	goto	i2l2073
  3079  00104C                     i2u163_40:
  3080  00104C  90D8               	bcf	status,0,c
  3081  00104E  EF2A  F008         	goto	i2l498
  3082  001052                     i2l2073:
  3083  001052  80D8               	bsf	status,0,c
  3084  001054                     i2l498:
  3085  001054  0012               	return		;funcret
  3086  001056                     __end_of___flge:
  3087                           	callstack 0
  3088                           
  3089 ;; *************** function _ReadSPI *****************
  3090 ;; Defined at:
  3091 ;;		line 139 in file "motorMain.c"
  3092 ;; Parameters:    Size  Location     Type
  3093 ;;		None
  3094 ;; Auto vars:     Size  Location     Type
  3095 ;;  TempVar         1    0        unsigned char 
  3096 ;; Return value:  Size  Location     Type
  3097 ;;                  1    wreg      unsigned char 
  3098 ;; Registers used:
  3099 ;;		wreg, status,2
  3100 ;; Tracked objects:
  3101 ;;		On entry : 0/0
  3102 ;;		On exit  : 0/0
  3103 ;;		Unchanged: 0/0
  3104 ;; Data sizes:     COMRAM   BANK0   BANK1   BANK2
  3105 ;;      Params:         0       0       0       0
  3106 ;;      Locals:         0       0       0       0
  3107 ;;      Temps:          0       0       0       0
  3108 ;;      Totals:         0       0       0       0
  3109 ;;Total ram usage:        0 bytes
  3110 ;; Hardware stack levels used: 1
  3111 ;; This function calls:
  3112 ;;		Nothing
  3113 ;; This function is called by:
  3114 ;;		_ISR
  3115 ;; This function uses a non-reentrant model
  3116 ;;
  3117                           
  3118                           	psect	text14
  3119  00117C                     __ptext14:
  3120                           	callstack 0
  3121  00117C                     _ReadSPI:
  3122                           	callstack 27
  3123  00117C  50C9               	movf	201,w,c	;volatile
  3124                           
  3125                           ;motorMain.c: 142: PIR1bits.SSPIF = 0;
  3126  00117E  969E               	bcf	158,3,c	;volatile
  3127  001180                     
  3128                           ;motorMain.c: 143: SSPBUF = 0x00;
  3129  001180  0E00               	movlw	0
  3130  001182  6EC9               	movwf	201,c	;volatile
  3131  001184                     i2l149:
  3132  001184  A69E               	btfss	158,3,c	;volatile
  3133  001186  EFC7  F008         	goto	i2u139_41
  3134  00118A  EFC9  F008         	goto	i2u139_40
  3135  00118E                     i2u139_41:
  3136  00118E  EFC2  F008         	goto	i2l149
  3137  001192                     i2u139_40:
  3138  001192                     
  3139                           ;motorMain.c: 145: return (SSPBUF);
  3140  001192  50C9               	movf	201,w,c	;volatile
  3141  001194  0012               	return		;funcret
  3142  001196                     __end_of_ReadSPI:
  3143                           	callstack 0
  3144  0000                     
  3145                           	psect	rparam
  3146  0000                     
  3147                           	psect	temp
  3148  00005F                     btemp:
  3149                           	callstack 0
  3150  00005F                     	ds	1
  3151  0000                     int$flags	set	btemp
  3152  0000                     wtemp8	set	btemp+1
  3153  0000                     ttemp5	set	btemp+1
  3154  0000                     ttemp6	set	btemp+4
  3155  0000                     ttemp7	set	btemp+8
  3156                           
  3157                           	psect	idloc
  3158                           
  3159                           ;Config register IDLOC0 @ 0x200000
  3160                           ;	unspecified, using default values
  3161  200000                     	org	2097152
  3162  200000  FF                 	db	255
  3163                           
  3164                           ;Config register IDLOC1 @ 0x200001
  3165                           ;	unspecified, using default values
  3166  200001                     	org	2097153
  3167  200001  FF                 	db	255
  3168                           
  3169                           ;Config register IDLOC2 @ 0x200002
  3170                           ;	unspecified, using default values
  3171  200002                     	org	2097154
  3172  200002  FF                 	db	255
  3173                           
  3174                           ;Config register IDLOC3 @ 0x200003
  3175                           ;	unspecified, using default values
  3176  200003                     	org	2097155
  3177  200003  FF                 	db	255
  3178                           
  3179                           ;Config register IDLOC4 @ 0x200004
  3180                           ;	unspecified, using default values
  3181  200004                     	org	2097156
  3182  200004  FF                 	db	255
  3183                           
  3184                           ;Config register IDLOC5 @ 0x200005
  3185                           ;	unspecified, using default values
  3186  200005                     	org	2097157
  3187  200005  FF                 	db	255
  3188                           
  3189                           ;Config register IDLOC6 @ 0x200006
  3190                           ;	unspecified, using default values
  3191  200006                     	org	2097158
  3192  200006  FF                 	db	255
  3193                           
  3194                           ;Config register IDLOC7 @ 0x200007
  3195                           ;	unspecified, using default values
  3196  200007                     	org	2097159
  3197  200007  FF                 	db	255
  3198                           
  3199                           	psect	config
  3200                           
  3201                           ; Padding undefined space
  3202  300000                     	org	3145728
  3203  300000  FF                 	db	255
  3204                           
  3205                           ;Config register CONFIG1H @ 0x300001
  3206                           ;	Oscillator Selection bits
  3207                           ;	OSC = RC, 11XX External RC oscillator, CLKO function on RA6
  3208                           ;	Fail-Safe Clock Monitor Enable bit
  3209                           ;	FCMEN = ON, Fail-Safe Clock Monitor enabled
  3210                           ;	Internal External Oscillator Switchover bit
  3211                           ;	IESO = ON, Internal External Switchover mode enabled
  3212  300001                     	org	3145729
  3213  300001  CC                 	db	204
  3214                           
  3215                           ;Config register CONFIG2L @ 0x300002
  3216                           ;	Power-up Timer Enable bit
  3217                           ;	PWRTEN = OFF, PWRT disabled
  3218                           ;	Brown-out Reset Enable bits
  3219                           ;	BOREN = ON, Brown-out Reset enabled
  3220                           ;	Brown Out Reset Voltage bits
  3221                           ;	BORV = 0x3, unprogrammed default
  3222  300002                     	org	3145730
  3223  300002  0F                 	db	15
  3224                           
  3225                           ;Config register CONFIG2H @ 0x300003
  3226                           ;	Watchdog Timer Enable bit
  3227                           ;	WDTEN = OFF, WDT disabled (control is placed on the SWDTEN bit)
  3228                           ;	Watchdog Timer Postscale Select bits
  3229                           ;	WDPS = 32768, 1:32768
  3230                           ;	Watchdog Timer Window Enable bit
  3231                           ;	WINEN = OFF, WDT window disabled
  3232  300003                     	org	3145731
  3233  300003  3E                 	db	62
  3234                           
  3235                           ;Config register CONFIG3L @ 0x300004
  3236                           ;	PWM output pins Reset state control
  3237                           ;	PWMPIN = OFF, PWM outputs disabled upon Reset (default)
  3238                           ;	Low-Side Transistors Polarity
  3239                           ;	LPOL = HIGH, PWM0, 2, 4 and 6 are active-high
  3240                           ;	High-Side Transistors Polarity
  3241                           ;	HPOL = HIGH, PWM1, 3, 5 and 7 are active-high
  3242                           ;	Timer1 Oscillator MUX
  3243                           ;	T1OSCMX = ON, Low-power Timer1 operation when microcontroller is in Sleep mode
  3244  300004                     	org	3145732
  3245  300004  3C                 	db	60
  3246                           
  3247                           ;Config register CONFIG3H @ 0x300005
  3248                           ;	FLTA MUX bit
  3249                           ;	FLTAMX = RC1, FLTA input is multiplexed with RC1
  3250                           ;	SSP I/O MUX bit
  3251                           ;	SSPMX = RC7, SCK/SCL clocks and SDA/SDI data are multiplexed with RC5 and RC4, respect
      +                          ively. SDO output is multiplexed with RC7.
  3252                           ;	PWM4 MUX bit
  3253                           ;	PWM4MX = RB5, PWM4 output is multiplexed with RB5
  3254                           ;	TMR0/T5CKI External clock MUX bit
  3255                           ;	EXCLKMX = RC3, TMR0/T5CKI external clock input is multiplexed with RC3
  3256                           ;	MCLR Pin Enable bit
  3257                           ;	MCLRE = ON, Enabled
  3258  300005                     	org	3145733
  3259  300005  9D                 	db	157
  3260                           
  3261                           ;Config register CONFIG4L @ 0x300006
  3262                           ;	Stack Full/Underflow Reset Enable bit
  3263                           ;	STVREN = ON, Stack full/underflow will cause Reset
  3264                           ;	Low-Voltage ICSP Enable bit
  3265                           ;	LVP = ON, Low-voltage ICSP enabled
  3266                           ;	Background Debugger Enable bit
  3267                           ;	DEBUG = 0x1, unprogrammed default
  3268  300006                     	org	3145734
  3269  300006  85                 	db	133
  3270                           
  3271                           ; Padding undefined space
  3272  300007                     	org	3145735
  3273  300007  FF                 	db	255
  3274                           
  3275                           ;Config register CONFIG5L @ 0x300008
  3276                           ;	Code Protection bit
  3277                           ;	CP0 = OFF, Block 0 (000200-000FFFh) not code-protected
  3278                           ;	Code Protection bit
  3279                           ;	CP1 = OFF, Block 1 (001000-001FFF) not code-protected
  3280                           ;	Code Protection bit
  3281                           ;	CP2 = OFF, Block 2 (002000-002FFFh) not code-protected
  3282                           ;	Code Protection bit
  3283                           ;	CP3 = OFF, Block 3 (003000-003FFFh) not code-protected
  3284  300008                     	org	3145736
  3285  300008  0F                 	db	15
  3286                           
  3287                           ;Config register CONFIG5H @ 0x300009
  3288                           ;	Boot Block Code Protection bit
  3289                           ;	CPB = OFF, Boot Block (000000-0001FFh) not code-protected
  3290                           ;	Data EEPROM Code Protection bit
  3291                           ;	CPD = OFF, Data EEPROM not code-protected
  3292  300009                     	org	3145737
  3293  300009  C0                 	db	192
  3294                           
  3295                           ;Config register CONFIG6L @ 0x30000A
  3296                           ;	Write Protection bit
  3297                           ;	WRT0 = OFF, Block 0 (000200-000FFFh) not write-protected
  3298                           ;	Write Protection bit
  3299                           ;	WRT1 = OFF, Block 1 (001000-001FFF) not write-protected
  3300                           ;	Write Protection bit
  3301                           ;	WRT2 = OFF, Block 2 (002000-002FFFh) not write-protected
  3302                           ;	Write Protection bit
  3303                           ;	WRT3 = OFF, Block 3 (003000-003FFFh) not write-protected
  3304  30000A                     	org	3145738
  3305  30000A  0F                 	db	15
  3306                           
  3307                           ;Config register CONFIG6H @ 0x30000B
  3308                           ;	Configuration Register Write Protection bit
  3309                           ;	WRTC = OFF, Configuration registers (300000-3000FFh) not write-protected
  3310                           ;	Boot Block Write Protection bit
  3311                           ;	WRTB = OFF, Boot Block (000000-0001FFh) not write-protected
  3312                           ;	Data EEPROM Write Protection bit
  3313                           ;	WRTD = OFF, Data EEPROM not write-protected
  3314  30000B                     	org	3145739
  3315  30000B  E0                 	db	224
  3316                           
  3317                           ;Config register CONFIG7L @ 0x30000C
  3318                           ;	Table Read Protection bit
  3319                           ;	EBTR0 = OFF, Block 0 (000200-000FFFh) not protected from table reads executed in other
      +                           blocks
  3320                           ;	Table Read Protection bit
  3321                           ;	EBTR1 = OFF, Block 1 (001000-001FFF) not protected from table reads executed in other 
      +                          blocks
  3322                           ;	Table Read Protection bit
  3323                           ;	EBTR2 = OFF, Block 2 (002000-002FFFh) not protected from table reads executed in other
      +                           blocks
  3324                           ;	Table Read Protection bit
  3325                           ;	EBTR3 = OFF, Block 3 (003000-003FFFh) not protected from table reads executed in other
      +                           blocks
  3326  30000C                     	org	3145740
  3327  30000C  0F                 	db	15
  3328                           
  3329                           ;Config register CONFIG7H @ 0x30000D
  3330                           ;	Boot Block Table Read Protection bit
  3331                           ;	EBTRB = OFF, Boot Block (000000-0001FFh) not protected from table reads executed in ot
      +                          her blocks
  3332  30000D                     	org	3145741
  3333  30000D  40                 	db	64
  3334                           tosu	equ	0xFFF
  3335                           tosh	equ	0xFFE
  3336                           tosl	equ	0xFFD
  3337                           stkptr	equ	0xFFC
  3338                           pclatu	equ	0xFFB
  3339                           pclath	equ	0xFFA
  3340                           pcl	equ	0xFF9
  3341                           tblptru	equ	0xFF8
  3342                           tblptrh	equ	0xFF7
  3343                           tblptrl	equ	0xFF6
  3344                           tablat	equ	0xFF5
  3345                           prodh	equ	0xFF4
  3346                           prodl	equ	0xFF3
  3347                           indf0	equ	0xFEF
  3348                           postinc0	equ	0xFEE
  3349                           postdec0	equ	0xFED
  3350                           preinc0	equ	0xFEC
  3351                           plusw0	equ	0xFEB
  3352                           fsr0h	equ	0xFEA
  3353                           fsr0l	equ	0xFE9
  3354                           wreg	equ	0xFE8
  3355                           indf1	equ	0xFE7
  3356                           postinc1	equ	0xFE6
  3357                           postdec1	equ	0xFE5
  3358                           preinc1	equ	0xFE4
  3359                           plusw1	equ	0xFE3
  3360                           fsr1h	equ	0xFE2
  3361                           fsr1l	equ	0xFE1
  3362                           bsr	equ	0xFE0
  3363                           indf2	equ	0xFDF
  3364                           postinc2	equ	0xFDE
  3365                           postdec2	equ	0xFDD
  3366                           preinc2	equ	0xFDC
  3367                           plusw2	equ	0xFDB
  3368                           fsr2h	equ	0xFDA
  3369                           fsr2l	equ	0xFD9
  3370                           status	equ	0xFD8

Data Sizes:
    Strings     0
    Constant    0
    Data        16
    BSS         71
    Persistent  0
    Stack       0

Auto Spaces:
    Space          Size  Autos    Used
    COMRAM           94     61      94
    BANK0           160      0      54
    BANK1           256      0       0
    BANK2           256      0       0

Pointer List with Targets:

    str	PTR unsigned char  size(2) Largest target is 0
		 -> NULL(NULL[0]), 


Critical Paths under _main in COMRAM

    None.

Critical Paths under _ISR in COMRAM

    _ISR->___flsub
    ___fltol->___flmul
    ___flsub->___fladd
    ___fladd->___flmul

Critical Paths under _main in BANK0

    None.

Critical Paths under _ISR in BANK0

    None.

Critical Paths under _main in BANK1

    None.

Critical Paths under _ISR in BANK1

    None.

Critical Paths under _main in BANK2

    None.

Critical Paths under _ISR in BANK2

    None.

Call Graph Tables:

 ---------------------------------------------------------------------------------
 (Depth) Function   	        Calls       Base Space   Used Autos Params    Refs
 ---------------------------------------------------------------------------------
 (0) _main                                                 0     0      0       0
                     _SPI_Init_Slave
                           _setupPWM
                           _setupQEI
                        _setupTimer0
                        _setupTimer5
 ---------------------------------------------------------------------------------
 (1) _setupTimer5                                          0     0      0       0
 ---------------------------------------------------------------------------------
 (1) _setupTimer0                                          0     0      0       0
 ---------------------------------------------------------------------------------
 (1) _setupQEI                                             0     0      0       0
 ---------------------------------------------------------------------------------
 (1) _setupPWM                                             0     0      0       0
                        _setupTimer2
 ---------------------------------------------------------------------------------
 (2) _setupTimer2                                          0     0      0       0
 ---------------------------------------------------------------------------------
 (1) _SPI_Init_Slave                                       0     0      0       0
 ---------------------------------------------------------------------------------
 Estimated maximum stack depth 2
 ---------------------------------------------------------------------------------
 (Depth) Function   	        Calls       Base Space   Used Autos Params    Refs
 ---------------------------------------------------------------------------------
 (3) _ISR                                                 12    12      0   11627
                                             49 COMRAM    12    12      0
                            _ReadSPI
                            ___fladd
                             ___flge
                            ___flmul
                            ___flsub
                            ___fltol
                           ___xxtofl
 ---------------------------------------------------------------------------------
 (4) ___xxtofl                                            14    10      4     474
                                              0 COMRAM    14    10      4
 ---------------------------------------------------------------------------------
 (4) ___fltol                                             10     6      4     533
                                             25 COMRAM    10     6      4
                            ___flmul (ARG)
 ---------------------------------------------------------------------------------
 (4) ___flsub                                              8     0      8    3345
                                             41 COMRAM     8     0      8
                            ___fladd
                            ___flmul (ARG)
 ---------------------------------------------------------------------------------
 (5) ___fladd                                             16     8      8    3022
                                             25 COMRAM    16     8      8
                            ___flmul (ARG)
 ---------------------------------------------------------------------------------
 (4) ___flmul                                             25    17      8    2656
                                              0 COMRAM    25    17      8
 ---------------------------------------------------------------------------------
 (4) ___flge                                              12     4      8    1550
                                              0 COMRAM    12     4      8
 ---------------------------------------------------------------------------------
 (4) _ReadSPI                                              1     1      0       1
 ---------------------------------------------------------------------------------
 Estimated maximum stack depth 5
 ---------------------------------------------------------------------------------

 Call Graph Graphs:

 _main (ROOT)
   _SPI_Init_Slave
   _setupPWM
     _setupTimer2
   _setupQEI
   _setupTimer0
   _setupTimer5

 _ISR (ROOT)
   _ReadSPI
   ___fladd
     ___flmul (ARG)
   ___flge
   ___flmul
   ___flsub
     ___fladd
     ___flmul (ARG)
   ___fltol
     ___flmul (ARG)
   ___xxtofl

 Address spaces:
Name               Size   Autos  Total    Cost      Usage
BIGRAM             2FF      0       0      10        0.0%
EEDATA             100      0       0       0        0.0%
BITBANK2           100      0       0       8        0.0%
BANK2              100      0       0       9        0.0%
BITBANK1           100      0       0       6        0.0%
BANK1              100      0       0       7        0.0%
BITBANK0            A0      0       0       4        0.0%
BANK0               A0      0      36       5       33.8%
BITCOMRAM           5E      0       0       0        0.0%
COMRAM              5E     3D      5E       1      100.0%
BITSFR               0      0       0     200        0.0%
SFR                  0      0       0     200        0.0%
STACK                0      0       0       2        0.0%
NULL                 0      0       0       0        0.0%
ABS                  0      0      94       3        0.0%
DATA                 0      0      94      11        0.0%
CODE                 0      0       0       0        0.0%


Microchip Technology PIC18 Macro Assembler V2.32 build 20210201212658 
Symbol Table                                                                                   Wed Dec 15 12:54:12 2021

                      _a 0086                        _b 0082                        _u 004E  
                     _CS 007C22                       _Kd 007E                       _Ki 008E  
                     _Kp 0092                      l200 11C0                      l212 11AC  
                    l206 1160                      l215 11D8                      l194 1142  
                    l188 111C                      l197 117A                      l189 111C  
                    _PR2 000FCB                      _ISR 0008                      _ind 0059  
                    _err 0042                      _str 0052                      wreg 000FE8  
           ___flmul@aexp 0012             ___flmul@bexp 0013             ___flmul@sign 000D  
           ___flmul@temp 0018             ___flmul@prod 0014                     ?_ISR 0001  
           ___fltol@exp1 0023                     l2251 1108                     l2243 10FE  
                   l2253 110C                     l2245 1102                     l2255 1110  
                   l2247 1104                     l2257 1114                     l2249 1106  
                   l1651 11D2                     l2259 1118                     l1653 11D4  
                   l1901 11A0                     l1655 11D6                     l1911 11AA  
                   l1903 11A2                     l1913 1144                     l1649 11CE  
                   l1905 11A4                     l1915 114E                     l1907 11A6  
                   l1917 1156                     l1909 11A8                     l1871 112C  
                   l1881 113E                     l1873 112E                     l1883 1140  
                   l1875 1130                     l1867 1124                     l1891 1162  
                   l1877 1132                     l1869 1128                     l1893 1170  
                   l1885 11AE                     l1879 113C                     l1895 1178  
                   l1887 11B6                     l1897 1196                     l1889 11BE  
                   l1899 119C                     _RCIF 007CF5                     _TMR0 000FD6  
                   _TMR5 000F87                     _TRMT 007D61                     _main 10FE  
 __end_of_SPI_Init_Slave 1162                     _duty 0046                     fsr1l 000FE1  
                   btemp 005F                     prodh 000FF4                     prodl 000FF3  
                   start 03AA             ___param_bank 000000          __end_of_ReadSPI 1196  
                  ??_ISR 0032            ___fltol@sign1 0022          __end_of___fladd 086E  
                  ?_main 0001          __end_of___flmul 0C98          __end_of___flsub 10FE  
        __end_of___fltol 0F52                    _T2CON 000FCA                    i2l152 1194  
                  i2l149 1184                    i2l183 039E                    i2l178 008C  
                  i2l525 0F50                    i2l752 059C                    i2l497 100E  
                  i2l761 086C                    i2l753 058A                    i2l498 1054  
                  i2l842 0C96                    i2l754 0550                    i2l845 0B28  
                  i2l838 0932                    i2l855 0C58                    i2l847 0BA0  
                  i2l848 0B8E                    i2l769 06B6                    i2l778 0786  
                  i2l794 10FC                    i2l882 0E4A                    i2l779 0774  
                  i2l893 0DE2                    i2l886 0D86                    i2l879 0CEE  
                  _RCREG 000FAE                    _SPBRG 000FAF                    _PORTB 000F81  
                  _PORTD 000F83                    _TRISB 000F93                    _TRISD 000F95  
                  _TXREG 000FAD                    _digit 005A                    _count 0056  
                  _speed 004A                    tablat 000FF5                    ttemp5 0060  
                  ttemp6 0063                    ttemp7 0067                    status 000FD8  
                  wtemp8 0060          ?_SPI_Init_Slave 0001             _stringBuffer 0060  
        __initialization 1056             __end_of_main 1124                   ??_main 0000  
          __activetblptr 000000                   _ADCON0 000FC2                   _ADCON1 000FC1  
                 i2l2001 0B0E                   i2l2011 0B4A                   i2l2003 0B18  
                 i2l2021 0BBC                   i2l2013 0B58                   i2l2005 0B26  
                 i2l2101 0EE6                   i2l2031 0C26                   i2l2023 0BCA  
                 i2l2015 0B86                   i2l2007 0B38                   i2l2111 0F10  
                 i2l2103 0EF0                   i2l2041 0C7C                   i2l2033 0C40  
                 i2l2025 0BF4                   i2l2009 0B46                   i2l2113 0F20  
                 i2l2121 0C9A                   i2l2035 0C5C                   i2l2043 0C82  
                 i2l2019 0BB0                   i2l2027 0BF8                   i2l2051 10C8  
                 i2l2115 0F30                   i2l2123 0CAA                   i2l2211 0106  
                 i2l2203 0090                   i2l2061 0FBE                   i2l2045 0C86  
                 i2l2037 0C6C                   i2l2029 0C12                   i2l2117 0F40  
                 i2l2109 0F04                   i2l2141 0D70                   i2l2133 0D28  
                 i2l2125 0CB8                   i2l2221 0254                   i2l2213 0116  
                 i2l2205 0094                   i2l2071 104C                   i2l2063 0FCE  
                 i2l2055 0F52                   i2l2039 0C7A                   i2l2151 0DF0  
                 i2l2143 0D7C                   i2l2135 0D30                   i2l2127 0CFE  
                 i2l2231 030C                   i2l2223 0288                   i2l2215 014C  
                 i2l2207 00A6                   i2l2073 1052                   i2l2065 0FDC  
                 i2l2057 0F80                   i2l2049 10B8                   i2l2161 0E38  
                 i2l2153 0DF2                   i2l2145 0DB8                   i2l2137 0D3C  
                 i2l2129 0D14                   i2l2233 031C                   i2l2225 0298  
                 i2l2217 0180                   i2l2209 00C6                   i2l2241 039C  
                 i2l2067 0FEE                   i2l2059 0F90                   i2l2091 0EB6  
                 i2l2083 0E76                   i2l2163 0E3A                   i2l2155 0DF6  
                 i2l2147 0DC4                   i2l2139 0D6E                   i2l2235 0374  
                 i2l2227 02CA                   i2l2219 01FC                   i2l2069 0FFC  
                 i2l1701 04A0                   i2l2093 0EC4                   i2l2085 0EA0  
                 i2l2077 0E4C                   i2l2157 0E1A                   i2l2149 0DD2  
                 i2l2237 0390                   i2l2229 02DA                   i2l1711 04BE  
                 i2l1703 04AE                   i2l2087 0EA2                   i2l2079 0E62  
                 i2l2159 0E2A                   i2l2239 0394                   i2l2191 002E  
                 i2l1801 06FA                   i2l1721 04D2                   i2l1713 04C2  
                 i2l1705 04B2                   i2l2089 0EB2                   i2l2193 0062  
                 i2l1811 0724                   i2l1803 0708                   i2l1731 04E6  
                 i2l1723 04D6                   i2l1715 04C6                   i2l1707 04B6  
                 i2l2099 0EDC                   i2l2195 0064                   i2l2187 0012  
                 i2l1821 0756                   i2l1813 0734                   i2l1805 070A  
                 i2l1741 0538                   i2l1733 04EA                   i2l1725 04DA  
                 i2l1717 04CA                   i2l1709 04BA                   i2l1661 03C8  
                 i2l2197 0072                   i2l2189 0020                   i2l1831 07B0  
                 i2l1823 076C                   i2l1807 0718                   i2l1815 0736  
                 i2l1751 057C                   i2l1743 0548                   i2l1727 04DE  
                 i2l1719 04CE                   i2l1735 04EE                   i2l1671 03FC  
                 i2l1663 03CA                   i2l2199 0078                   i2l1921 087A  
                 i2l1841 082C                   i2l1833 07EA                   i2l1809 0720  
                 i2l1817 0744                   i2l1753 057E                   i2l1745 055E  
                 i2l1737 04F2                   i2l1729 04E2                   i2l1681 042E  
                 i2l1665 03DA                   i2l1673 0404                   i2l1657 03AE  
                 i2l1931 08BA                   i2l1923 0888                   i2l1851 084C  
                 i2l1843 0830                   i2l1827 0796                   i2l1835 07EC  
                 i2l1819 0748                   i2l1771 0606                   i2l1763 05CE  
                 i2l1755 0588                   i2l1747 056A                   i2l1739 051C  
                 i2l1691 0464                   i2l1683 0434                   i2l1675 0414  
                 i2l1667 03EA                   i2l1659 03BA                   i2l1861 1180  
                 i2l1941 08EA                   i2l1933 08C0                   i2l1925 088A  
                 i2l1853 085A                   i2l1845 083E                   i2l1837 07FC  
                 i2l1829 07A2                   i2l1773 060A                   i2l1765 05DE  
                 i2l1757 05AA                   i2l1781 062A                   i2l1749 056E  
                 i2l1693 0474                   i2l1685 0442                   i2l1677 041A  
                 i2l1669 03FA                   i2l1863 1192                   i2l1951 0922  
                 i2l1943 08EC                   i2l1935 08D0                   i2l1927 089A  
                 i2l1919 086E                   i2l1855 085C                   i2l1847 0844  
                 i2l1839 080C                   i2l1783 0650                   i2l1791 06A6  
                 i2l1775 0618                   i2l1767 05EC                   i2l1759 05BA  
                 i2l1695 0476                   i2l1687 0444                   i2l1679 042C  
                 i2l1961 0972                   i2l1953 0942                   i2l1945 08FC  
                 i2l1937 08D6                   i2l1929 08AA                   i2l1849 0846  
                 i2l1793 06CC                   i2l1785 0684                   i2l1777 061A  
                 i2l1769 05FA                   i2l1689 0454                   i2l1697 047E  
                 i2l1859 117C                   i2l1971 09C2                   i2l1963 097C  
                 i2l1955 0952                   i2l1947 090C                   i2l1939 08DC  
                 i2l1795 06DC                   i2l1787 0686                   i2l1779 0624  
                 i2l1699 048E                   i2l1981 0A04                   i2l1973 09CE  
                 i2l1965 0992                   i2l1949 091C                   i2l1789 0696  
                 i2l1991 0A66                   i2l1983 0A14                   i2l1975 09DC  
                 i2l1967 099E                   i2l1959 0966                   i2l1799 06F0  
                 i2l1993 0A82                   i2l1985 0A2E                   i2l1977 09E8  
                 i2l1969 09B6                   i2l1995 0AAC                   i2l1987 0A3E  
                 i2l1979 09F8                   i2l1997 0AE2                   i2l1989 0A5A  
                 i2l1999 0AF0                   _SSPBUF 000FC9         __end_of___xxtofl 0E4C  
              ??_ReadSPI 0001                   ___flge 0F52                ??___fladd 0022  
              ??___flmul 0009                ??___flsub 0032                ??___fltol 001E  
                 _count2 0054                   clear_0 109C                   clear_1 10A8  
                 isa$std 000001                   _number 005B             __pdataCOMRAM 005B  
       __end_of_setupQEI 1144         __end_of_setupPWM 11AE                   tblptrh 000FF7  
                 tblptrl 000FF6                   tblptru 000FF8             ?_setupTimer0 0001  
           ?_setupTimer2 0001             ?_setupTimer5 0001               ___flge@ff1 0001  
             ___flge@ff2 0005             ___xxtofl@arg 000B             ___xxtofl@exp 000A  
           ___xxtofl@val 0001               __accesstop 0060  __end_of__initialization 10AE  
          ___rparam_used 000001               ___fltol@f1 001A           __pcstackCOMRAM 0001  
           __pidataBANK0 11C2               __pbssBANK0 0060                  ?___flge 0001  
                _IC2QEIE 007D1A                  _IC2QEIF 007D22                ?___xxtofl 0001  
       ??_SPI_Init_Slave 0000                  _SSPCON1 000FC6                  _SSPSTAT 000FC7  
                _ReadSPI 117C                  __Hparam 0000                  __Lparam 0000  
              ?_setupQEI 0001                ?_setupPWM 0001          __size_of___flge 0104  
                ___fladd 03AE                  ___flmul 086E                  ___flsub 10B8  
                ___fltol 0E4C                  __pcinit 1056                  __ramtop 0300  
                __ptext0 10FE                  __ptext1 11AE                  __ptext2 1162  
                __ptext3 1124                  __ptext4 1196                  __ptext5 11CE  
                __ptext6 1144                  __ptext8 0C98                  __ptext9 0E4C  
              _T0CONbits 000FD5             __size_of_ISR 03A2                _T2CONbits 000FCA  
             ??___xxtofl 0005                _T5CONbits 000FB7                  _pre_err 007A  
                _sum_err 003E     end_of_initialization 10AE     __size_of_setupTimer0 001A  
   __size_of_setupTimer2 000C     __size_of_setupTimer5 0014               ??_setupQEI 0000  
              _RCSTAbits 000FAB               ??_setupPWM 0000                  postdec1 000FE5  
                postinc0 000FEE                _PORTCbits 000F82              ___fladd@grs 0029  
          ___xxtofl@sign 0009                _TRISCbits 000F94                _TRISDbits 000F95  
            ___flmul@grs 000E              _CCP1CONbits 000FBD                _TXSTAbits 000FAC  
         __end_of___flge 1056            __pidataCOMRAM 11DA      start_initialization 1056  
            __end_of_ISR 03AA                 ??___flge 0009              __pdataBANK0 008A  
            _DFLTCONbits 000F60                ___fladd@a 001E                ___fladd@b 001A  
              ___flmul@a 0005                ___flmul@b 0001              __pbssCOMRAM 003E  
              ___flsub@a 002E                ___flsub@b 002A            __pcstackBANK0 0000  
      __size_of___xxtofl 01B4                 ?_ReadSPI 0001                __pintcode 0008  
               ?___fladd 001A                 ?___flmul 0001                 ?___flsub 002A  
               ?___fltol 001A        __size_of_setupQEI 0020        __size_of_setupPWM 0018  
              _bufferRef 0058                 _CAP3BUFH 000F65                 _CAP3BUFL 000F64  
              _firstTime 005E                 _ISR$1676 0036                 _ISR$1677 003A  
               _PIE1bits 000F9D                 _PIE3bits 000FA3                 i2u100_40 03C8  
               i2u100_41 03C4                 i2u101_40 03DA                 i2u101_41 03D6  
               i2u110_40 0534                 i2u102_40 03EA                 i2u110_41 052E  
               i2u102_41 03E6                 i2u111_40 0536                 i2u103_40 042C  
               i2u103_41 0428                 i2u120_40 0650                 i2u112_40 055E  
               i2u104_40 0442                 i2u120_41 064C                 i2u112_41 055A  
               i2u104_41 043E                 i2u121_40 0696                 i2u113_40 057C  
               i2u105_40 0454                 i2u121_41 0692                 i2u113_41 0578  
               i2u105_41 0450                 i2u130_40 0782                 i2u122_40 06CC  
               i2u114_40 059C                 i2u106_40 0464                 i2u130_41 077E  
               i2u122_41 06C8                 i2u114_41 0598                 i2u106_41 0460  
               i2u131_40 0796                 i2u123_40 06DC                 i2u115_40 05AA  
               i2u107_40 04A0                 i2u131_41 0792                 i2u123_41 06D8  
               i2u115_41 05A6                 i2u107_41 049C                 i2u140_40 0888  
               i2u132_40 07B0                 i2u124_40 0708                 i2u116_40 05BA  
               i2u108_40 04AE                 i2u140_41 0884                 i2u132_41 07AC  
               i2u124_41 0704                 i2u116_41 05B6                 i2u108_41 04AA  
               i2u141_40 089A                 i2u133_40 07EA                 i2u125_40 0718  
               i2u117_40 05EC                 i2u109_40 051C                 i2u141_41 0896  
               i2u133_41 07E6                 i2u125_41 0714                 i2u117_41 05E8  
               i2u109_41 0518                 i2u150_40 0B46                 i2u142_40 08AA  
               i2u134_40 07FC                 i2u126_40 0734                 i2u118_40 05FA  
               i2u150_41 0B42                 i2u142_41 08A6                 i2u134_41 07F8  
               i2u126_41 0730                 i2u118_41 05F6                 i2u151_40 0B58  
               i2u143_40 08EA                 i2u135_40 080C                 i2u127_40 0744  
               i2u119_40 0618                 i2u151_41 0B54                 i2u143_41 08E6  
               i2u135_41 0808                 i2u127_41 0740                 i2u119_41 0614  
               i2u160_40 0FBE                 i2u152_40 0B86                 i2u144_40 08FC  
               i2u136_40 082C                 i2u128_40 0756                 i2u160_41 0FBA  
               i2u152_41 0B82                 i2u144_41 08F8                 i2u136_41 0828  
               i2u128_41 0752                 i2u161_40 0FDC                 i2u153_40 0B9C  
               i2u145_40 090C                 i2u137_40 083E                 i2u129_40 076C  
               i2u161_41 0FD8                 i2u153_41 0B98                 i2u145_41 0908  
               i2u137_41 083A                 i2u129_41 0768                 i2u162_40 0FFC  
               i2u154_40 0BB0                 i2u146_40 0942                 i2u138_40 085A  
               i2u170_40 0F30                 i2u162_41 0FF8                 i2u154_41 0BAC  
               i2u146_41 093E                 i2u138_41 0856                 i2u170_41 0F2C  
               i2u139_40 1192                 i2u163_40 104C                 i2u155_40 0BCA  
               i2u147_40 0952                 i2u171_40 0CAA                 i2u139_41 118E  
               i2u163_41 1048                 i2u155_41 0BC6                 i2u147_41 094E  
               i2u171_41 0CA6                 i2u156_40 0C12                 i2u148_40 0ACC  
               i2u164_40 0E62                 i2u180_40 0E38                 i2u172_40 0CB8  
               i2u156_41 0C0E                 i2u164_41 0E5E                 i2u180_41 0E34  
               i2u172_41 0CB4                 i2u148_45 0AC2                 i2u157_40 0C40  
               i2u149_40 0B26                 i2u165_40 0E96                 i2u173_40 0D14  
               i2u157_41 0C3C                 i2u149_41 0B22                 i2u173_41 0D10  
               i2u165_45 0E8C                 i2u158_40 0C7A                 i2u166_40 0EC4  
               i2u174_40 0D6A                 i2u190_40 0072                 i2u158_41 0C76  
               i2u166_41 0EC0                 i2u174_41 0D66                 i2u190_41 006E  
               i2u159_40 0F80                 i2u167_40 0ED8                 i2u175_40 0DB4  
               i2u191_40 0088                 i2u159_41 0F7C                 i2u167_41 0ED4  
               i2u175_41 0DB0                 i2u191_41 0084                 i2u168_40 0F00  
               i2u176_40 0DD2                 i2u192_40 00A6                 i2u168_41 0EFC  
               i2u176_41 0DCE                 i2u192_41 00A2                 i2u169_40 0F20  
               i2u177_40 0DE2                 i2u193_40 02CA                 i2u169_41 0F1C  
               i2u177_41 0DDE                 i2u193_41 02C6                 _PIR1bits 000F9E  
               i2u178_40 0DF0                 i2u194_40 030C                 i2u178_41 0DEC  
               i2u194_41 0308                 i2u179_40 0E2A                 i2u179_41 0E26  
               i2u188_40 0020                 i2u188_41 001C                 i2u189_40 002E  
               i2u189_41 002A            ??_setupTimer0 0000            ??_setupTimer2 0000  
          ??_setupTimer5 0000                copy_data0 106A                copy_data1 108A  
       __size_of_ReadSPI 001A                 __Hrparam 0000  __size_of_SPI_Init_Slave 001E  
               __Lrparam 0000         __size_of___fladd 04C0         __size_of___flmul 042A  
       __size_of___flsub 0046         __size_of___fltol 0106         _RPM_CONSTANT_QEI 008A  
               ___xxtofl 0C98                 __ptext10 10B8                 __ptext11 03AE  
               __ptext12 086E                 __ptext13 0F52                 __ptext14 117C  
          __size_of_main 0026      __end_of_setupTimer0 117C      __end_of_setupTimer2 11DA  
    __end_of_setupTimer5 11C2                 _speedPID 0050                 _speedRef 005D  
               _speedVal 0074                 isa$xinst 000000                 _setupQEI 1124  
               _setupPWM 1196                 int$flags 005F               _INTCONbits 000FF2  
             _QEICONbits 000FB6                 intlevel2 0000              _SSPCON1bits 000FC6  
            _setupTimer0 1162              _setupTimer2 11CE              _setupTimer5 11AE  
          ___fladd@signs 0026             ___fladd@aexp 0027             ___fladd@bexp 0028  
         _SPI_Init_Slave 1144  
