

Microchip MPLAB XC8 Assembler V2.32 build 20210201212658 
                                                                                               Wed Dec 01 23:22:59 2021

Microchip MPLAB XC8 C Compiler v2.32 (Free license) build 20210201212658 Og1 
     1                           	processor	18F4431
     2                           	fnconf	rparam,??,?,0
     3                           	pagewidth 120
     4                           	opt	flic
     5                           	psect	idataCOMRAM,global,class=CODE,delta=1,noexec
     6                           	psect	idataBANK0,global,class=CODE,delta=1,noexec
     7                           	psect	cinit,global,reloc=2,class=CODE,delta=1
     8                           	psect	dataCOMRAM,global,class=COMRAM,space=1,delta=1,lowdata,noexec
     9                           	psect	bssBANK0,global,class=BANK0,space=1,delta=1,lowdata,noexec
    10                           	psect	dataBANK0,global,class=BANK0,space=1,delta=1,lowdata,noexec
    11                           	psect	cstackBANK0,global,class=BANK0,space=1,delta=1,lowdata,noexec
    12                           	psect	cstackCOMRAM,global,class=COMRAM,space=1,delta=1,lowdata,noexec
    13                           	psect	text0,global,reloc=2,class=CODE,delta=1
    14                           	psect	text1,global,reloc=2,class=CODE,delta=1
    15                           	psect	text2,global,reloc=2,class=CODE,delta=1
    16                           	psect	text3,global,reloc=2,class=CODE,delta=1
    17                           	psect	intcode,global,reloc=2,class=CODE,delta=1
    18                           	psect	text5,global,reloc=2,class=CODE,delta=1
    19                           	psect	text6,global,reloc=2,class=CODE,delta=1,group=2
    20                           	psect	text7,global,reloc=2,class=CODE,delta=1,group=2
    21                           	psect	text8,global,reloc=2,class=CODE,delta=1,group=2
    22                           	psect	text9,global,reloc=2,class=CODE,delta=1,group=1
    23                           	psect	text10,global,reloc=2,class=CODE,delta=1,group=1
    24                           	psect	text11,global,reloc=2,class=CODE,delta=1,group=1
    25                           	psect	text12,global,reloc=2,class=CODE,delta=1,group=1
    26                           	psect	text13,global,reloc=2,class=CODE,delta=1,group=1
    27                           	psect	text14,global,reloc=2,class=CODE,delta=1,group=2
    28                           	psect	text15,global,reloc=2,class=CODE,delta=1,group=2
    29                           	psect	text16,global,reloc=2,class=CODE,delta=1,group=1
    30                           	psect	text17,global,reloc=2,class=CODE,delta=1,group=2
    31                           	psect	text18,global,reloc=2,class=CODE,delta=1,group=1
    32                           	psect	text19,global,reloc=2,class=CODE,delta=1,group=1
    33                           	psect	text20,global,reloc=2,class=CODE,delta=1
    34                           	psect	text21,global,reloc=2,class=CODE,delta=1
    35                           	psect	text22,global,reloc=2,class=CODE,delta=1
    36                           	psect	text23,global,reloc=2,class=CODE,delta=1
    37                           	psect	intsave_regs,global,class=BIGRAM,space=1,delta=1,noexec
    38                           	psect	rparam,global,class=COMRAM,space=1,delta=1,noexec
    39                           	psect	temp,global,ovrld,common,class=COMRAM,space=1,delta=1
    40                           	psect	idloc,global,abs,ovrld,class=IDLOC,space=5,delta=1,noexec
    41                           	psect	config,global,abs,ovrld,class=CONFIG,space=4,delta=1,noexec
    42  0000                     
    43                           ; Version 2.20
    44                           ; Generated 12/02/2020 GMT
    45                           ; 
    46                           ; Copyright © 2020, Microchip Technology Inc. and its subsidiaries ("Microchip")
    47                           ; All rights reserved.
    48                           ; 
    49                           ; This software is developed by Microchip Technology Inc. and its subsidiaries ("Microch
      +                          ip").
    50                           ; 
    51                           ; Redistribution and use in source and binary forms, with or without modification, are
    52                           ; permitted provided that the following conditions are met:
    53                           ; 
    54                           ;     1. Redistributions of source code must retain the above copyright notice, this lis
      +                          t of
    55                           ;        conditions and the following disclaimer.
    56                           ; 
    57                           ;     2. Redistributions in binary form must reproduce the above copyright notice, this 
      +                          list
    58                           ;        of conditions and the following disclaimer in the documentation and/or other
    59                           ;        materials provided with the distribution.
    60                           ; 
    61                           ;     3. Microchip's name may not be used to endorse or promote products derived from th
      +                          is
    62                           ;        software without specific prior written permission.
    63                           ; 
    64                           ; THIS SOFTWARE IS PROVIDED BY MICROCHIP "AS IS" AND ANY EXPRESS OR IMPLIED WARRANTIES,
    65                           ; INCLUDING, BUT NOT LIMITED TO, THE IMPLIED WARRANTIES OF MERCHANTABILITY AND FITNESS F
      +                          OR
    66                           ; PURPOSE ARE DISCLAIMED.  IN NO EVENT SHALL MICROCHIP BE LIABLE FOR ANY DIRECT, INDIREC
      +                          T,
    67                           ; INCIDENTAL, SPECIAL, EXEMPLARY, OR CONSEQUENTIAL DAMAGES (INCLUDING BUT NOT LIMITED TO
    68                           ; PROCUREMENT OF SUBSTITUTE GOODS OR SERVICES; LOSS OF USE, DATA OR PROFITS; OR BUSINESS
    69                           ; INTERRUPTION) HOWSOEVER CAUSED AND ON ANY THEORY OF LIABILITY, WHETHER IN CONTRACT, ST
      +                          RICT
    70                           ; LIABILITY, OR TORT (INCLUDING NEGLIGENCE OR OTHERWISE) ARISING IN ANY WAY OUT OF THE U
      +                          SE OF
    71                           ; THIS SOFTWARE, EVEN IF ADVISED OF THE POSSIBILITY OF SUCH DAMAGE.
    72                           ; 
    73                           ; 
    74                           ; Code-generator required, PIC18F4431 Definitions
    75                           ; 
    76                           ; SFR Addresses
    77  0000                     
    78                           	psect	idataCOMRAM
    79  001BCA                     __pidataCOMRAM:
    80                           	callstack 0
    81                           
    82                           ;initializer for _speedRef2
    83  001BCA  64                 	db	100
    84                           
    85                           ;initializer for _speedRef1
    86  001BCB  64                 	db	100
    87                           
    88                           	psect	idataBANK0
    89  001BBC                     __pidataBANK0:
    90                           	callstack 0
    91                           
    92                           ;initializer for _b
    93  001BBC  20C5               	dw	8389
    94  001BBE  3E30               	dw	15920
    95                           
    96                           ;initializer for _r
    97  001BC0  147B               	dw	5243
    98  001BC2  3D2E               	dw	15662
    99                           
   100                           ;initializer for _number
   101  001BC4  0064               	dw	100
   102                           
   103                           ;initializer for _str
   104  001BC6  31                 	db	49
   105  001BC7  38                 	db	56
   106  001BC8  30                 	db	48
   107  001BC9  00                 	db	0
   108  0000                     _TMR1	set	4046
   109  0000                     _TMR0	set	4054
   110  0000                     _ADCON1	set	4033
   111  0000                     _ADCON0	set	4034
   112  0000                     _SSPSTAT	set	4039
   113  0000                     _IPR1bits	set	3999
   114  0000                     _TXREG	set	4013
   115  0000                     _RCREG	set	4014
   116  0000                     _SPBRG	set	4015
   117  0000                     _RCSTAbits	set	4011
   118  0000                     _TXSTAbits	set	4012
   119  0000                     _T1CONbits	set	4045
   120  0000                     _PIE1bits	set	3997
   121  0000                     _T0CONbits	set	4053
   122  0000                     _TRISCbits	set	3988
   123  0000                     _TRISE	set	3990
   124  0000                     _TRISDbits	set	3989
   125  0000                     _TRISA	set	3986
   126  0000                     _TRISB	set	3987
   127  0000                     _PORTE	set	3972
   128  0000                     _PORTA	set	3968
   129  0000                     _PORTB	set	3969
   130  0000                     _INTCONbits	set	4082
   131  0000                     _PORTDbits	set	3971
   132  0000                     _SSPCON1	set	4038
   133  0000                     _SSPCON1bits	set	4038
   134  0000                     _PIR1bits	set	3998
   135  0000                     _SSPBUF	set	4041
   136  0000                     _PORTCbits	set	3970
   137  0000                     _CS	set	31778
   138  0000                     _TRMT	set	32097
   139  0000                     _ADON	set	32272
   140  0000                     _RCIF	set	31989
   141                           
   142                           ; #config settings
   143                           
   144                           	psect	cinit
   145  001984                     __pcinit:
   146                           	callstack 0
   147  001984                     start_initialization:
   148                           	callstack 0
   149  001984                     __initialization:
   150                           	callstack 0
   151                           
   152                           ; Initialize objects allocated to BANK0 (14 bytes)
   153                           ; load TBLPTR registers with __pidataBANK0
   154  001984  0EBC               	movlw	low __pidataBANK0
   155  001986  6EF6               	movwf	tblptrl,c
   156  001988  0E1B               	movlw	high __pidataBANK0
   157  00198A  6EF7               	movwf	tblptrh,c
   158  00198C  0E00               	movlw	low (__pidataBANK0 shr (0+16))
   159  00198E  6EF8               	movwf	tblptru,c
   160  001990  EE00  F0A8         	lfsr	0,__pdataBANK0
   161  001994  EE10 F00E          	lfsr	1,14
   162  001998                     copy_data0:
   163  001998  0009               	tblrd		*+
   164  00199A  CFF5 FFEE          	movff	tablat,postinc0
   165  00199E  50E5               	movf	postdec1,w,c
   166  0019A0  50E1               	movf	fsr1l,w,c
   167  0019A2  E1FA               	bnz	copy_data0
   168                           
   169                           ; Initialize objects allocated to COMRAM (2 bytes)
   170                           ; load TBLPTR registers with __pidataCOMRAM
   171  0019A4  0ECA               	movlw	low __pidataCOMRAM
   172  0019A6  6EF6               	movwf	tblptrl,c
   173  0019A8  0E1B               	movlw	high __pidataCOMRAM
   174  0019AA  6EF7               	movwf	tblptrh,c
   175  0019AC  0E00               	movlw	low (__pidataCOMRAM shr (0+16))
   176  0019AE  6EF8               	movwf	tblptru,c
   177  0019B0  0009               	tblrd		*+	;fetch initializer
   178  0019B2  CFF5 F05D          	movff	tablat,__pdataCOMRAM
   179  0019B6  0009               	tblrd		*+	;fetch initializer
   180  0019B8  CFF5 F05E          	movff	tablat,__pdataCOMRAM+1
   181                           
   182                           ; Clear objects allocated to BANK0 (37 bytes)
   183  0019BC  EE00  F060         	lfsr	0,__pbssBANK0
   184  0019C0  0E25               	movlw	37
   185  0019C2                     clear_0:
   186  0019C2  6AEE               	clrf	postinc0,c
   187  0019C4  06E8               	decf	wreg,f,c
   188  0019C6  E1FD               	bnz	clear_0
   189  0019C8                     end_of_initialization:
   190                           	callstack 0
   191  0019C8                     __end_of__initialization:
   192                           	callstack 0
   193  0019C8  905F               	bcf	int$flags,0,c	;clear compiler interrupt flag (level 1)
   194  0019CA  925F               	bcf	int$flags,1,c	;clear compiler interrupt flag (level 2)
   195  0019CC  0100               	movlb	0
   196  0019CE  EF4B  F00D         	goto	_main	;jump to C main() function
   197                           
   198                           	psect	dataCOMRAM
   199  00005D                     __pdataCOMRAM:
   200                           	callstack 0
   201  00005D                     _speedRef2:
   202                           	callstack 0
   203  00005D                     	ds	1
   204  00005E                     _speedRef1:
   205                           	callstack 0
   206  00005E                     	ds	1
   207                           
   208                           	psect	bssBANK0
   209  000060                     __pbssBANK0:
   210                           	callstack 0
   211  000060                     _stringBuffer:
   212                           	callstack 0
   213  000060                     	ds	20
   214  000074                     _errno:
   215                           	callstack 0
   216  000074                     	ds	2
   217  000076                     _speedM2:
   218                           	callstack 0
   219  000076                     	ds	2
   220  000078                     _speedM1:
   221                           	callstack 0
   222  000078                     	ds	2
   223  00007A                     _count:
   224                           	callstack 0
   225  00007A                     	ds	2
   226  00007C                     _omega:
   227                           	callstack 0
   228  00007C                     	ds	1
   229  00007D                     _vel:
   230                           	callstack 0
   231  00007D                     	ds	1
   232  00007E                     _incStr2:
   233                           	callstack 0
   234  00007E                     	ds	1
   235  00007F                     _incStr1:
   236                           	callstack 0
   237  00007F                     	ds	1
   238  000080                     _transRdy2:
   239                           	callstack 0
   240  000080                     	ds	1
   241  000081                     _transRdy1:
   242                           	callstack 0
   243  000081                     	ds	1
   244  000082                     _speed4M2:
   245                           	callstack 0
   246  000082                     	ds	1
   247  000083                     _speed4M1:
   248                           	callstack 0
   249  000083                     	ds	1
   250  000084                     _digit:
   251                           	callstack 0
   252  000084                     	ds	1
   253                           
   254                           	psect	dataBANK0
   255  0000A8                     __pdataBANK0:
   256                           	callstack 0
   257  0000A8                     _b:
   258                           	callstack 0
   259  0000A8                     	ds	4
   260  0000AC                     _r:
   261                           	callstack 0
   262  0000AC                     	ds	4
   263  0000B0                     _number:
   264                           	callstack 0
   265  0000B0                     	ds	2
   266  0000B2                     _str:
   267                           	callstack 0
   268  0000B2                     	ds	4
   269                           
   270                           	psect	cstackBANK0
   271  000085                     __pcstackBANK0:
   272                           	callstack 0
   273  000085                     ?___flsub:
   274                           	callstack 0
   275  000085                     ___flsub@b:
   276                           	callstack 0
   277                           
   278                           ; 4 bytes @ 0x0
   279  000085                     	ds	4
   280  000089                     ___flsub@a:
   281                           	callstack 0
   282                           
   283                           ; 4 bytes @ 0x4
   284  000089                     	ds	4
   285  00008D                     round@f:
   286                           	callstack 0
   287                           
   288                           ; 4 bytes @ 0x8
   289  00008D                     	ds	4
   290  000091                     ??_ISR:
   291                           
   292                           ; 1 bytes @ 0xC
   293  000091                     	ds	6
   294  000097                     _ISR$1559:
   295                           	callstack 0
   296                           
   297                           ; 4 bytes @ 0x12
   298  000097                     	ds	4
   299  00009B                     _ISR$1560:
   300                           	callstack 0
   301                           
   302                           ; 4 bytes @ 0x16
   303  00009B                     	ds	4
   304  00009F                     _ISR$1561:
   305                           	callstack 0
   306                           
   307                           ; 4 bytes @ 0x1A
   308  00009F                     	ds	4
   309  0000A3                     _ISR$1558:
   310                           	callstack 0
   311                           
   312                           ; 4 bytes @ 0x1E
   313  0000A3                     	ds	4
   314  0000A7                     ISR@c:
   315                           	callstack 0
   316                           
   317                           ; 1 bytes @ 0x22
   318  0000A7                     	ds	1
   319  0000A8                     
   320                           ; 1 bytes @ 0x23
   321                           
   322                           	psect	cstackCOMRAM
   323  000001                     __pcstackCOMRAM:
   324                           	callstack 0
   325  000001                     ??_isdigit:
   326  000001                     ?_abs:
   327                           	callstack 0
   328  000001                     ?___wmul:
   329                           	callstack 0
   330  000001                     ?___fladd:
   331                           	callstack 0
   332  000001                     WriteSPI@a:
   333                           	callstack 0
   334  000001                     ReadSPI@a:
   335                           	callstack 0
   336  000001                     ___wmul@multiplier:
   337                           	callstack 0
   338  000001                     abs@a:
   339                           	callstack 0
   340  000001                     ___fleq@ff1:
   341                           	callstack 0
   342  000001                     ___fladd@b:
   343                           	callstack 0
   344                           
   345                           ; 4 bytes @ 0x0
   346  000001                     	ds	1
   347  000002                     WriteSPI@data_out:
   348                           	callstack 0
   349  000002                     _isdigit$1317:
   350                           	callstack 0
   351                           
   352                           ; 1 bytes @ 0x1
   353  000002                     	ds	1
   354  000003                     ??_abs:
   355  000003                     UARTM1@tempM1:
   356                           	callstack 0
   357  000003                     UARTM2@tempM2:
   358                           	callstack 0
   359  000003                     isdigit@c:
   360                           	callstack 0
   361  000003                     ___wmul@multiplicand:
   362                           	callstack 0
   363                           
   364                           ; 2 bytes @ 0x2
   365  000003                     	ds	2
   366  000005                     ?___xxtofl:
   367                           	callstack 0
   368  000005                     ___wmul@product:
   369                           	callstack 0
   370  000005                     ___fleq@ff2:
   371                           	callstack 0
   372  000005                     ___fladd@a:
   373                           	callstack 0
   374  000005                     ___xxtofl@val:
   375                           	callstack 0
   376                           
   377                           ; 4 bytes @ 0x4
   378  000005                     	ds	2
   379  000007                     ?_atoi:
   380                           	callstack 0
   381  000007                     atoi@s:
   382                           	callstack 0
   383                           
   384                           ; 2 bytes @ 0x6
   385  000007                     	ds	2
   386  000009                     ??_atoi:
   387  000009                     ??___fladd:
   388  000009                     ??___fleq:
   389  000009                     ??___xxtofl:
   390                           
   391                           ; 1 bytes @ 0x8
   392  000009                     	ds	2
   393  00000B                     atoi@sign:
   394                           	callstack 0
   395                           
   396                           ; 1 bytes @ 0xA
   397  00000B                     	ds	1
   398  00000C                     atoi@a:
   399                           	callstack 0
   400                           
   401                           ; 2 bytes @ 0xB
   402  00000C                     	ds	1
   403  00000D                     ___fladd@signs:
   404                           	callstack 0
   405  00000D                     ___xxtofl@sign:
   406                           	callstack 0
   407  00000D                     frexp@value:
   408                           	callstack 0
   409                           
   410                           ; 4 bytes @ 0xC
   411  00000D                     	ds	1
   412  00000E                     ___fladd@aexp:
   413                           	callstack 0
   414  00000E                     ___xxtofl@exp:
   415                           	callstack 0
   416                           
   417                           ; 1 bytes @ 0xD
   418  00000E                     	ds	1
   419  00000F                     ___fladd@bexp:
   420                           	callstack 0
   421  00000F                     ___xxtofl@arg:
   422                           	callstack 0
   423                           
   424                           ; 4 bytes @ 0xE
   425  00000F                     	ds	1
   426  000010                     ___fladd@grs:
   427                           	callstack 0
   428                           
   429                           ; 1 bytes @ 0xF
   430  000010                     	ds	1
   431  000011                     frexp@eptr:
   432                           	callstack 0
   433                           
   434                           ; 2 bytes @ 0x10
   435  000011                     	ds	2
   436  000013                     ??_frexp:
   437  000013                     ?___flmul:
   438                           	callstack 0
   439  000013                     ___flmul@b:
   440                           	callstack 0
   441                           
   442                           ; 4 bytes @ 0x12
   443  000013                     	ds	4
   444  000017                     ___flmul@a:
   445                           	callstack 0
   446                           
   447                           ; 4 bytes @ 0x16
   448  000017                     	ds	4
   449  00001B                     ??___flmul:
   450                           
   451                           ; 1 bytes @ 0x1A
   452  00001B                     	ds	4
   453  00001F                     ___flmul@sign:
   454                           	callstack 0
   455                           
   456                           ; 1 bytes @ 0x1E
   457  00001F                     	ds	1
   458  000020                     ___flmul@grs:
   459                           	callstack 0
   460                           
   461                           ; 4 bytes @ 0x1F
   462  000020                     	ds	4
   463  000024                     ___flmul@aexp:
   464                           	callstack 0
   465                           
   466                           ; 1 bytes @ 0x23
   467  000024                     	ds	1
   468  000025                     ___flmul@bexp:
   469                           	callstack 0
   470                           
   471                           ; 1 bytes @ 0x24
   472  000025                     	ds	1
   473  000026                     ___flmul@prod:
   474                           	callstack 0
   475                           
   476                           ; 4 bytes @ 0x25
   477  000026                     	ds	4
   478  00002A                     ___flmul@temp:
   479                           	callstack 0
   480                           
   481                           ; 2 bytes @ 0x29
   482  00002A                     	ds	2
   483  00002C                     ?___fldiv:
   484                           	callstack 0
   485  00002C                     ___fldiv@b:
   486                           	callstack 0
   487                           
   488                           ; 4 bytes @ 0x2B
   489  00002C                     	ds	4
   490  000030                     ___fldiv@a:
   491                           	callstack 0
   492                           
   493                           ; 4 bytes @ 0x2F
   494  000030                     	ds	4
   495  000034                     ??___fldiv:
   496                           
   497                           ; 1 bytes @ 0x33
   498  000034                     	ds	4
   499  000038                     ___fldiv@rem:
   500                           	callstack 0
   501                           
   502                           ; 4 bytes @ 0x37
   503  000038                     	ds	4
   504  00003C                     ___fldiv@sign:
   505                           	callstack 0
   506                           
   507                           ; 1 bytes @ 0x3B
   508  00003C                     	ds	1
   509  00003D                     ___fldiv@new_exp:
   510                           	callstack 0
   511                           
   512                           ; 2 bytes @ 0x3C
   513  00003D                     	ds	2
   514  00003F                     ___fldiv@grs:
   515                           	callstack 0
   516                           
   517                           ; 4 bytes @ 0x3E
   518  00003F                     	ds	4
   519  000043                     ___fldiv@bexp:
   520                           	callstack 0
   521                           
   522                           ; 1 bytes @ 0x42
   523  000043                     	ds	1
   524  000044                     ___fldiv@aexp:
   525                           	callstack 0
   526                           
   527                           ; 1 bytes @ 0x43
   528  000044                     	ds	1
   529  000045                     ?___fltol:
   530                           	callstack 0
   531  000045                     ___fltol@f1:
   532                           	callstack 0
   533                           
   534                           ; 4 bytes @ 0x44
   535  000045                     	ds	4
   536  000049                     ??___fltol:
   537                           
   538                           ; 1 bytes @ 0x48
   539  000049                     	ds	4
   540  00004D                     ___fltol@sign1:
   541                           	callstack 0
   542                           
   543                           ; 1 bytes @ 0x4C
   544  00004D                     	ds	1
   545  00004E                     ___fltol@exp1:
   546                           	callstack 0
   547                           
   548                           ; 1 bytes @ 0x4D
   549  00004E                     	ds	1
   550  00004F                     ?_trunc:
   551                           	callstack 0
   552  00004F                     trunc@x:
   553                           	callstack 0
   554                           
   555                           ; 4 bytes @ 0x4E
   556  00004F                     	ds	4
   557  000053                     trunc@i:
   558                           	callstack 0
   559                           
   560                           ; 4 bytes @ 0x52
   561  000053                     	ds	4
   562  000057                     trunc@expon:
   563                           	callstack 0
   564                           
   565                           ; 2 bytes @ 0x56
   566  000057                     	ds	2
   567  000059                     ?_round:
   568                           	callstack 0
   569  000059                     round@x:
   570                           	callstack 0
   571                           
   572                           ; 4 bytes @ 0x58
   573  000059                     	ds	4
   574  00005D                     
   575                           ; 1 bytes @ 0x5C
   576 ;;
   577 ;;Main: autosize = 0, tempsize = 0, incstack = 0, save=0
   578 ;;
   579 ;; *************** function _main *****************
   580 ;; Defined at:
   581 ;;		line 279 in file "masterMain.c"
   582 ;; Parameters:    Size  Location     Type
   583 ;;		None
   584 ;; Auto vars:     Size  Location     Type
   585 ;;		None
   586 ;; Return value:  Size  Location     Type
   587 ;;                  1    wreg      void 
   588 ;; Registers used:
   589 ;;		wreg, status,2, cstack
   590 ;; Tracked objects:
   591 ;;		On entry : 0/0
   592 ;;		On exit  : 0/0
   593 ;;		Unchanged: 0/0
   594 ;; Data sizes:     COMRAM   BANK0   BANK1   BANK2
   595 ;;      Params:         0       0       0       0
   596 ;;      Locals:         0       0       0       0
   597 ;;      Temps:          0       0       0       0
   598 ;;      Totals:         0       0       0       0
   599 ;;Total ram usage:        0 bytes
   600 ;; Hardware stack levels required when called: 6
   601 ;; This function calls:
   602 ;;		_SPI_Init_Master
   603 ;;		_setupTimer0
   604 ;;		_setupUART
   605 ;; This function is called by:
   606 ;;		Startup code after reset
   607 ;; This function uses a non-reentrant model
   608 ;;
   609                           
   610                           	psect	text0
   611  001A96                     __ptext0:
   612                           	callstack 0
   613  001A96                     _main:
   614                           	callstack 25
   615  001A96                     
   616                           ;masterMain.c: 280: TRISB = 0;
   617  001A96  0E00               	movlw	0
   618  001A98  6E93               	movwf	147,c	;volatile
   619                           
   620                           ;masterMain.c: 281: TRISA = 0xC0;
   621  001A9A  0EC0               	movlw	192
   622  001A9C  6E92               	movwf	146,c	;volatile
   623  001A9E                     
   624                           ;masterMain.c: 282: TRISDbits.RD7 = 0;
   625  001A9E  9E95               	bcf	149,7,c	;volatile
   626  001AA0                     
   627                           ;masterMain.c: 283: TRISDbits.RD4 = 0;
   628  001AA0  9895               	bcf	149,4,c	;volatile
   629  001AA2                     
   630                           ;masterMain.c: 284: TRISDbits.RD5 = 0;
   631  001AA2  9A95               	bcf	149,5,c	;volatile
   632  001AA4                     
   633                           ;masterMain.c: 285: TRISDbits.RD6 = 0;
   634  001AA4  9C95               	bcf	149,6,c	;volatile
   635                           
   636                           ;masterMain.c: 286: TRISE = 0;
   637  001AA6  0E00               	movlw	0
   638  001AA8  6E96               	movwf	150,c	;volatile
   639  001AAA                     
   640                           ;masterMain.c: 287: ADON = 0;
   641  001AAA  90C2               	bcf	4034,0,c	;volatile
   642  001AAC                     
   643                           ;masterMain.c: 288: INTCONbits.GIE = 1; INTCONbits.PEIE = 1;
   644  001AAC  8EF2               	bsf	242,7,c	;volatile
   645  001AAE  8CF2               	bsf	242,6,c	;volatile
   646  001AB0                     
   647                           ;masterMain.c: 289: setupUART();
   648  001AB0  ECC9  F00D         	call	_setupUART	;wreg free
   649  001AB4                     
   650                           ;masterMain.c: 290: setupTimer0();
   651  001AB4  ECBC  F00D         	call	_setupTimer0	;wreg free
   652  001AB8                     
   653                           ;masterMain.c: 291: TRISCbits.RC2 = 0;
   654  001AB8  9494               	bcf	148,2,c	;volatile
   655  001ABA                     
   656                           ;masterMain.c: 292: PORTCbits.RC2 = 1;
   657  001ABA  8482               	bsf	130,2,c	;volatile
   658  001ABC                     
   659                           ;masterMain.c: 293: TRISCbits.RC1 = 0;
   660  001ABC  9294               	bcf	148,1,c	;volatile
   661  001ABE                     
   662                           ;masterMain.c: 294: PORTCbits.RC1 = 1;
   663  001ABE  8282               	bsf	130,1,c	;volatile
   664  001AC0                     
   665                           ;masterMain.c: 295: SPI_Init_Master();
   666  001AC0  ECAC  F00D         	call	_SPI_Init_Master	;wreg free
   667  001AC4                     l192:
   668  001AC4  EF62  F00D         	goto	l192
   669  001AC8  EFCF  F002         	goto	start
   670  001ACC                     __end_of_main:
   671                           	callstack 0
   672                           
   673 ;; *************** function _setupUART *****************
   674 ;; Defined at:
   675 ;;		line 328 in file "masterMain.c"
   676 ;; Parameters:    Size  Location     Type
   677 ;;		None
   678 ;; Auto vars:     Size  Location     Type
   679 ;;		None
   680 ;; Return value:  Size  Location     Type
   681 ;;                  1    wreg      void 
   682 ;; Registers used:
   683 ;;		wreg, status,2
   684 ;; Tracked objects:
   685 ;;		On entry : 0/0
   686 ;;		On exit  : 0/0
   687 ;;		Unchanged: 0/0
   688 ;; Data sizes:     COMRAM   BANK0   BANK1   BANK2
   689 ;;      Params:         0       0       0       0
   690 ;;      Locals:         0       0       0       0
   691 ;;      Temps:          0       0       0       0
   692 ;;      Totals:         0       0       0       0
   693 ;;Total ram usage:        0 bytes
   694 ;; Hardware stack levels used: 1
   695 ;; Hardware stack levels required when called: 5
   696 ;; This function calls:
   697 ;;		Nothing
   698 ;; This function is called by:
   699 ;;		_main
   700 ;; This function uses a non-reentrant model
   701 ;;
   702                           
   703                           	psect	text1
   704  001B92                     __ptext1:
   705                           	callstack 0
   706  001B92                     _setupUART:
   707                           	callstack 25
   708  001B92                     
   709                           ;masterMain.c: 329: TRISCbits.RC6 = 0;
   710  001B92  9C94               	bcf	148,6,c	;volatile
   711                           
   712                           ;masterMain.c: 330: TRISCbits.RC7 = 1;
   713  001B94  8E94               	bsf	148,7,c	;volatile
   714                           
   715                           ;masterMain.c: 331: TXSTAbits.BRGH = 0;
   716  001B96  94AC               	bcf	172,2,c	;volatile
   717                           
   718                           ;masterMain.c: 332: TXSTAbits.SYNC = 0;
   719  001B98  98AC               	bcf	172,4,c	;volatile
   720                           
   721                           ;masterMain.c: 333: TXSTAbits.TXEN = 1;
   722  001B9A  8AAC               	bsf	172,5,c	;volatile
   723                           
   724                           ;masterMain.c: 334: RCSTAbits.SPEN = 1;
   725  001B9C  8EAB               	bsf	171,7,c	;volatile
   726                           
   727                           ;masterMain.c: 335: RCSTAbits.CREN = 1;
   728  001B9E  88AB               	bsf	171,4,c	;volatile
   729                           
   730                           ;masterMain.c: 336: PIE1bits.RCIE = 1;
   731  001BA0  8A9D               	bsf	157,5,c	;volatile
   732                           
   733                           ;masterMain.c: 337: PIE1bits.TXIE = 0;
   734  001BA2  989D               	bcf	157,4,c	;volatile
   735  001BA4                     
   736                           ;masterMain.c: 338: SPBRG = 31;
   737  001BA4  0E1F               	movlw	31
   738  001BA6  6EAF               	movwf	175,c	;volatile
   739  001BA8  0012               	return		;funcret
   740  001BAA                     __end_of_setupUART:
   741                           	callstack 0
   742                           
   743 ;; *************** function _setupTimer0 *****************
   744 ;; Defined at:
   745 ;;		line 302 in file "masterMain.c"
   746 ;; Parameters:    Size  Location     Type
   747 ;;		None
   748 ;; Auto vars:     Size  Location     Type
   749 ;;		None
   750 ;; Return value:  Size  Location     Type
   751 ;;                  1    wreg      void 
   752 ;; Registers used:
   753 ;;		wreg, status,2
   754 ;; Tracked objects:
   755 ;;		On entry : 0/0
   756 ;;		On exit  : 0/0
   757 ;;		Unchanged: 0/0
   758 ;; Data sizes:     COMRAM   BANK0   BANK1   BANK2
   759 ;;      Params:         0       0       0       0
   760 ;;      Locals:         0       0       0       0
   761 ;;      Temps:          0       0       0       0
   762 ;;      Totals:         0       0       0       0
   763 ;;Total ram usage:        0 bytes
   764 ;; Hardware stack levels used: 1
   765 ;; Hardware stack levels required when called: 5
   766 ;; This function calls:
   767 ;;		Nothing
   768 ;; This function is called by:
   769 ;;		_main
   770 ;; This function uses a non-reentrant model
   771 ;;
   772                           
   773                           	psect	text2
   774  001B78                     __ptext2:
   775                           	callstack 0
   776  001B78                     _setupTimer0:
   777                           	callstack 25
   778  001B78                     
   779                           ;masterMain.c: 303: INTCONbits.TMR0IE = 1;
   780  001B78  8AF2               	bsf	242,5,c	;volatile
   781                           
   782                           ;masterMain.c: 304: T0CONbits.T016BIT = 1;
   783  001B7A  8CD5               	bsf	213,6,c	;volatile
   784                           
   785                           ;masterMain.c: 305: T0CONbits.T0CS = 0;
   786  001B7C  9AD5               	bcf	213,5,c	;volatile
   787                           
   788                           ;masterMain.c: 308: T0CONbits.PSA = 0;
   789  001B7E  96D5               	bcf	213,3,c	;volatile
   790                           
   791                           ;masterMain.c: 309: T0CONbits.T0PS2 = 0;
   792  001B80  94D5               	bcf	213,2,c	;volatile
   793                           
   794                           ;masterMain.c: 310: T0CONbits.T0PS1 = 0;
   795  001B82  92D5               	bcf	213,1,c	;volatile
   796                           
   797                           ;masterMain.c: 311: T0CONbits.T0PS0 = 0;
   798  001B84  90D5               	bcf	213,0,c	;volatile
   799  001B86                     
   800                           ;masterMain.c: 312: TMR0 = 0;
   801  001B86  0E00               	movlw	0
   802  001B88  6ED7               	movwf	215,c	;volatile
   803  001B8A  0E00               	movlw	0
   804  001B8C  6ED6               	movwf	214,c	;volatile
   805  001B8E                     
   806                           ;masterMain.c: 313: T0CONbits.TMR0ON = 1;
   807  001B8E  8ED5               	bsf	213,7,c	;volatile
   808  001B90  0012               	return		;funcret
   809  001B92                     __end_of_setupTimer0:
   810                           	callstack 0
   811                           
   812 ;; *************** function _SPI_Init_Master *****************
   813 ;; Defined at:
   814 ;;		line 351 in file "masterMain.c"
   815 ;; Parameters:    Size  Location     Type
   816 ;;		None
   817 ;; Auto vars:     Size  Location     Type
   818 ;;		None
   819 ;; Return value:  Size  Location     Type
   820 ;;                  1    wreg      void 
   821 ;; Registers used:
   822 ;;		wreg, status,2
   823 ;; Tracked objects:
   824 ;;		On entry : 0/0
   825 ;;		On exit  : 0/0
   826 ;;		Unchanged: 0/0
   827 ;; Data sizes:     COMRAM   BANK0   BANK1   BANK2
   828 ;;      Params:         0       0       0       0
   829 ;;      Locals:         0       0       0       0
   830 ;;      Temps:          0       0       0       0
   831 ;;      Totals:         0       0       0       0
   832 ;;Total ram usage:        0 bytes
   833 ;; Hardware stack levels used: 1
   834 ;; Hardware stack levels required when called: 5
   835 ;; This function calls:
   836 ;;		Nothing
   837 ;; This function is called by:
   838 ;;		_main
   839 ;; This function uses a non-reentrant model
   840 ;;
   841                           
   842                           	psect	text3
   843  001B58                     __ptext3:
   844                           	callstack 0
   845  001B58                     _SPI_Init_Master:
   846                           	callstack 25
   847  001B58                     
   848                           ;masterMain.c: 352: PIE1bits.SSPIE = 1;
   849  001B58  869D               	bsf	157,3,c	;volatile
   850                           
   851                           ;masterMain.c: 353: IPR1bits.SSPIP = 1;
   852  001B5A  869F               	bsf	159,3,c	;volatile
   853                           
   854                           ;masterMain.c: 356: TRISDbits.TRISD2 = 1;
   855  001B5C  8495               	bsf	149,2,c	;volatile
   856                           
   857                           ;masterMain.c: 357: TRISDbits.TRISD3 = 0;
   858  001B5E  9695               	bcf	149,3,c	;volatile
   859                           
   860                           ;masterMain.c: 358: TRISDbits.TRISD1 = 0;
   861  001B60  9295               	bcf	149,1,c	;volatile
   862                           
   863                           ;masterMain.c: 361: CS = 1;
   864  001B62  8484               	bsf	3972,2,c	;volatile
   865  001B64                     
   866                           ;masterMain.c: 362: SSPSTAT=0x40;
   867  001B64  0E40               	movlw	64
   868  001B66  6EC7               	movwf	199,c	;volatile
   869                           
   870                           ;masterMain.c: 363: SSPCON1=0x20;
   871  001B68  0E20               	movlw	32
   872  001B6A  6EC6               	movwf	198,c	;volatile
   873  001B6C                     
   874                           ;masterMain.c: 365: PIR1bits.SSPIF=0;
   875  001B6C  969E               	bcf	158,3,c	;volatile
   876                           
   877                           ;masterMain.c: 369: ADCON0=0;
   878  001B6E  0E00               	movlw	0
   879  001B70  6EC2               	movwf	194,c	;volatile
   880                           
   881                           ;masterMain.c: 371: ADCON1=0x0F;
   882  001B72  0E0F               	movlw	15
   883  001B74  6EC1               	movwf	193,c	;volatile
   884  001B76  0012               	return		;funcret
   885  001B78                     __end_of_SPI_Init_Master:
   886                           	callstack 0
   887                           
   888 ;; *************** function _ISR *****************
   889 ;; Defined at:
   890 ;;		line 197 in file "masterMain.c"
   891 ;; Parameters:    Size  Location     Type
   892 ;;		None
   893 ;; Auto vars:     Size  Location     Type
   894 ;;  c               1   34[BANK0 ] unsigned char 
   895 ;; Return value:  Size  Location     Type
   896 ;;                  1    wreg      void 
   897 ;; Registers used:
   898 ;;		wreg, fsr2l, fsr2h, status,2, status,0, prodl, prodh, cstack
   899 ;; Tracked objects:
   900 ;;		On entry : 0/0
   901 ;;		On exit  : 0/0
   902 ;;		Unchanged: 0/0
   903 ;; Data sizes:     COMRAM   BANK0   BANK1   BANK2
   904 ;;      Params:         0       0       0       0
   905 ;;      Locals:         0      17       0       0
   906 ;;      Temps:          0       6       0       0
   907 ;;      Totals:         0      23       0       0
   908 ;;Total ram usage:       23 bytes
   909 ;; Hardware stack levels used: 1
   910 ;; Hardware stack levels required when called: 4
   911 ;; This function calls:
   912 ;;		_UARTM1
   913 ;;		_UARTM2
   914 ;;		_WriteSPI
   915 ;;		___fldiv
   916 ;;		___flmul
   917 ;;		___fltol
   918 ;;		___xxtofl
   919 ;;		_abs
   920 ;;		_atoi
   921 ;;		_isdigit
   922 ;;		_round
   923 ;;		_rx_char
   924 ;; This function is called by:
   925 ;;		Interrupt level 2
   926 ;; This function uses a non-reentrant model
   927 ;;
   928                           
   929                           	psect	intcode
   930  000008                     __pintcode:
   931                           	callstack 0
   932  000008                     _ISR:
   933                           	callstack 25
   934                           
   935                           ;incstack = 0
   936  000008  825F               	bsf	int$flags,1,c	;set compiler interrupt flag (level 2)
   937  00000A  CFD9 F093          	movff	fsr2l,??_ISR+2
   938  00000E  CFDA F094          	movff	fsr2h,??_ISR+3
   939  000012  CFF3 F095          	movff	prodl,??_ISR+4
   940  000016  CFF4 F096          	movff	prodh,??_ISR+5
   941  00001A                     
   942                           ;masterMain.c: 199: if(RCIF == 1) {
   943  00001A  AA9E               	btfss	3998,5,c	;volatile
   944  00001C  EF12  F000         	goto	i2u294_41
   945  000020  EF14  F000         	goto	i2u294_40
   946  000024                     i2u294_41:
   947  000024  EFE8  F000         	goto	i2l2768
   948  000028                     i2u294_40:
   949  000028                     
   950                           ;masterMain.c: 201: char c = rx_char();
   951  000028  ECD5  F00D         	call	_rx_char	;wreg free
   952  00002C  0100               	movlb	0	; () banked
   953  00002E  6FA7               	movwf	ISR@c& (0+255),b
   954  000030                     
   955                           ; BSR set to: 0
   956                           ;masterMain.c: 204: if(speed4M1 && incStr1 < 3 && isdigit(c)) {
   957  000030  5183               	movf	_speed4M1& (0+255),w,b
   958  000032  B4D8               	btfsc	status,2,c
   959  000034  EF1E  F000         	goto	i2u295_41
   960  000038  EF20  F000         	goto	i2u295_40
   961  00003C                     i2u295_41:
   962  00003C  EF3C  F000         	goto	i2l2732
   963  000040                     i2u295_40:
   964  000040                     
   965                           ; BSR set to: 0
   966  000040  0E03               	movlw	3
   967  000042  617F               	cpfslt	_incStr1& (0+255),b
   968  000044  EF26  F000         	goto	i2u296_41
   969  000048  EF28  F000         	goto	i2u296_40
   970  00004C                     i2u296_41:
   971  00004C  EF3C  F000         	goto	i2l2732
   972  000050                     i2u296_40:
   973  000050                     
   974                           ; BSR set to: 0
   975  000050  51A7               	movf	ISR@c& (0+255),w,b
   976  000052  EC80  F00D         	call	_isdigit
   977  000056  A0D8               	btfss	status,0,c
   978  000058  EF30  F000         	goto	i2u297_41
   979  00005C  EF32  F000         	goto	i2u297_40
   980  000060                     i2u297_41:
   981  000060  EF3C  F000         	goto	i2l2732
   982  000064                     i2u297_40:
   983  000064                     
   984                           ;masterMain.c: 205: str[incStr1] = c;
   985  000064  0EB2               	movlw	low _str
   986  000066  0100               	movlb	0	; () banked
   987  000068  257F               	addwf	_incStr1& (0+255),w,b
   988  00006A  6ED9               	movwf	fsr2l,c
   989  00006C  6ADA               	clrf	fsr2h,c
   990  00006E  0E00               	movlw	high _str
   991  000070  22DA               	addwfc	fsr2h,f,c
   992  000072  C0A7  FFDF         	movff	ISR@c,indf2
   993  000076                     
   994                           ; BSR set to: 0
   995                           ;masterMain.c: 206: incStr1++;
   996  000076  2B7F               	incf	_incStr1& (0+255),f,b
   997  000078                     i2l2732:
   998                           
   999                           ;masterMain.c: 207: };masterMain.c: 209: if(speed4M1 && incStr1 >= 3 && isdigit(c)) {
  1000  000078  0100               	movlb	0	; () banked
  1001  00007A  5183               	movf	_speed4M1& (0+255),w,b
  1002  00007C  B4D8               	btfsc	status,2,c
  1003  00007E  EF43  F000         	goto	i2u298_41
  1004  000082  EF45  F000         	goto	i2u298_40
  1005  000086                     i2u298_41:
  1006  000086  EF5E  F000         	goto	i2l171
  1007  00008A                     i2u298_40:
  1008  00008A                     
  1009                           ; BSR set to: 0
  1010  00008A  0E02               	movlw	2
  1011  00008C  657F               	cpfsgt	_incStr1& (0+255),b
  1012  00008E  EF4B  F000         	goto	i2u299_41
  1013  000092  EF4D  F000         	goto	i2u299_40
  1014  000096                     i2u299_41:
  1015  000096  EF5E  F000         	goto	i2l171
  1016  00009A                     i2u299_40:
  1017  00009A                     
  1018                           ; BSR set to: 0
  1019  00009A  51A7               	movf	ISR@c& (0+255),w,b
  1020  00009C  EC80  F00D         	call	_isdigit
  1021  0000A0  A0D8               	btfss	status,0,c
  1022  0000A2  EF55  F000         	goto	i2u300_41
  1023  0000A6  EF57  F000         	goto	i2u300_40
  1024  0000AA                     i2u300_41:
  1025  0000AA  EF5E  F000         	goto	i2l171
  1026  0000AE                     i2u300_40:
  1027  0000AE                     
  1028                           ;masterMain.c: 210: incStr1 = 0;
  1029  0000AE  0E00               	movlw	0
  1030  0000B0  0100               	movlb	0	; () banked
  1031  0000B2  6F7F               	movwf	_incStr1& (0+255),b
  1032                           
  1033                           ;masterMain.c: 211: speed4M1 = 0;
  1034  0000B4  0E00               	movlw	0
  1035  0000B6  6F83               	movwf	_speed4M1& (0+255),b
  1036                           
  1037                           ;masterMain.c: 212: transRdy1 = 1;
  1038  0000B8  0E01               	movlw	1
  1039  0000BA  6F81               	movwf	_transRdy1& (0+255),b
  1040  0000BC                     i2l171:
  1041                           
  1042                           ;masterMain.c: 213: };masterMain.c: 215: if(speed4M2 && incStr2 < 3 && isdigit(c)) {
  1043  0000BC  0100               	movlb	0	; () banked
  1044  0000BE  5182               	movf	_speed4M2& (0+255),w,b
  1045  0000C0  B4D8               	btfsc	status,2,c
  1046  0000C2  EF65  F000         	goto	i2u301_41
  1047  0000C6  EF67  F000         	goto	i2u301_40
  1048  0000CA                     i2u301_41:
  1049  0000CA  EF83  F000         	goto	i2l2748
  1050  0000CE                     i2u301_40:
  1051  0000CE                     
  1052                           ; BSR set to: 0
  1053  0000CE  0E03               	movlw	3
  1054  0000D0  617E               	cpfslt	_incStr2& (0+255),b
  1055  0000D2  EF6D  F000         	goto	i2u302_41
  1056  0000D6  EF6F  F000         	goto	i2u302_40
  1057  0000DA                     i2u302_41:
  1058  0000DA  EF83  F000         	goto	i2l2748
  1059  0000DE                     i2u302_40:
  1060  0000DE                     
  1061                           ; BSR set to: 0
  1062  0000DE  51A7               	movf	ISR@c& (0+255),w,b
  1063  0000E0  EC80  F00D         	call	_isdigit
  1064  0000E4  A0D8               	btfss	status,0,c
  1065  0000E6  EF77  F000         	goto	i2u303_41
  1066  0000EA  EF79  F000         	goto	i2u303_40
  1067  0000EE                     i2u303_41:
  1068  0000EE  EF83  F000         	goto	i2l2748
  1069  0000F2                     i2u303_40:
  1070  0000F2                     
  1071                           ;masterMain.c: 216: str[incStr2] = c;
  1072  0000F2  0EB2               	movlw	low _str
  1073  0000F4  0100               	movlb	0	; () banked
  1074  0000F6  257E               	addwf	_incStr2& (0+255),w,b
  1075  0000F8  6ED9               	movwf	fsr2l,c
  1076  0000FA  6ADA               	clrf	fsr2h,c
  1077  0000FC  0E00               	movlw	high _str
  1078  0000FE  22DA               	addwfc	fsr2h,f,c
  1079  000100  C0A7  FFDF         	movff	ISR@c,indf2
  1080  000104                     
  1081                           ; BSR set to: 0
  1082                           ;masterMain.c: 217: incStr2++;
  1083  000104  2B7E               	incf	_incStr2& (0+255),f,b
  1084  000106                     i2l2748:
  1085                           
  1086                           ;masterMain.c: 218: };masterMain.c: 219: if(speed4M2 && incStr2 >= 3 && isdigit(c)) {
  1087  000106  0100               	movlb	0	; () banked
  1088  000108  5182               	movf	_speed4M2& (0+255),w,b
  1089  00010A  B4D8               	btfsc	status,2,c
  1090  00010C  EF8A  F000         	goto	i2u304_41
  1091  000110  EF8C  F000         	goto	i2u304_40
  1092  000114                     i2u304_41:
  1093  000114  EFA5  F000         	goto	i2l2756
  1094  000118                     i2u304_40:
  1095  000118                     
  1096                           ; BSR set to: 0
  1097  000118  0E02               	movlw	2
  1098  00011A  657E               	cpfsgt	_incStr2& (0+255),b
  1099  00011C  EF92  F000         	goto	i2u305_41
  1100  000120  EF94  F000         	goto	i2u305_40
  1101  000124                     i2u305_41:
  1102  000124  EFA5  F000         	goto	i2l2756
  1103  000128                     i2u305_40:
  1104  000128                     
  1105                           ; BSR set to: 0
  1106  000128  51A7               	movf	ISR@c& (0+255),w,b
  1107  00012A  EC80  F00D         	call	_isdigit
  1108  00012E  A0D8               	btfss	status,0,c
  1109  000130  EF9C  F000         	goto	i2u306_41
  1110  000134  EF9E  F000         	goto	i2u306_40
  1111  000138                     i2u306_41:
  1112  000138  EFA5  F000         	goto	i2l2756
  1113  00013C                     i2u306_40:
  1114  00013C                     
  1115                           ;masterMain.c: 220: incStr2 = 0;
  1116  00013C  0E00               	movlw	0
  1117  00013E  0100               	movlb	0	; () banked
  1118  000140  6F7E               	movwf	_incStr2& (0+255),b
  1119                           
  1120                           ;masterMain.c: 221: speed4M2 = 0;
  1121  000142  0E00               	movlw	0
  1122  000144  6F82               	movwf	_speed4M2& (0+255),b
  1123                           
  1124                           ;masterMain.c: 222: transRdy2 = 1;
  1125  000146  0E01               	movlw	1
  1126  000148  6F80               	movwf	_transRdy2& (0+255),b
  1127  00014A                     i2l2756:
  1128                           
  1129                           ;masterMain.c: 223: };masterMain.c: 224: if(c=='B') {
  1130  00014A  0E42               	movlw	66
  1131  00014C  0100               	movlb	0	; () banked
  1132  00014E  19A7               	xorwf	ISR@c& (0+255),w,b
  1133  000150  A4D8               	btfss	status,2,c
  1134  000152  EFAD  F000         	goto	i2u307_41
  1135  000156  EFAF  F000         	goto	i2u307_40
  1136  00015A                     i2u307_41:
  1137  00015A  EFC7  F000         	goto	i2l2762
  1138  00015E                     i2u307_40:
  1139  00015E                     
  1140                           ; BSR set to: 0
  1141                           ;masterMain.c: 225: speed4M2 = 1;
  1142  00015E  0E01               	movlw	1
  1143  000160  6F82               	movwf	_speed4M2& (0+255),b
  1144  000162                     
  1145                           ; BSR set to: 0
  1146                           ;masterMain.c: 226: PORTDbits.RD6 = 1-PORTDbits.RD6;
  1147  000162  BC83               	btfsc	131,6,c	;volatile
  1148  000164  EFB6  F000         	goto	i2u308_41
  1149  000168  EFBA  F000         	goto	i2u308_40
  1150  00016C                     i2u308_41:
  1151  00016C  6B91               	clrf	??_ISR& (0+255),b
  1152  00016E  2B91               	incf	??_ISR& (0+255),f,b
  1153  000170  EFBC  F000         	goto	i2u308_48
  1154  000174                     i2u308_40:
  1155  000174  0100               	movlb	0	; () banked
  1156  000176  6B91               	clrf	??_ISR& (0+255),b
  1157  000178                     i2u308_48:
  1158  000178  5191               	movf	??_ISR& (0+255),w,b
  1159  00017A  0801               	sublw	1
  1160  00017C  6F92               	movwf	(??_ISR+1)& (0+255),b
  1161  00017E  3B92               	swapf	(??_ISR+1)& (0+255),f,b
  1162  000180  4792               	rlncf	(??_ISR+1)& (0+255),f,b
  1163  000182  4792               	rlncf	(??_ISR+1)& (0+255),f,b
  1164  000184  5083               	movf	131,w,c	;volatile
  1165  000186  1992               	xorwf	(??_ISR+1)& (0+255),w,b
  1166  000188  0BBF               	andlw	-65
  1167  00018A  1992               	xorwf	(??_ISR+1)& (0+255),w,b
  1168  00018C  6E83               	movwf	131,c	;volatile
  1169  00018E                     i2l2762:
  1170                           
  1171                           ; BSR set to: 0
  1172                           ;masterMain.c: 227: };masterMain.c: 228: if(c=='A') {
  1173  00018E  0E41               	movlw	65
  1174  000190  19A7               	xorwf	ISR@c& (0+255),w,b
  1175  000192  A4D8               	btfss	status,2,c
  1176  000194  EFCE  F000         	goto	i2u309_41
  1177  000198  EFD0  F000         	goto	i2u309_40
  1178  00019C                     i2u309_41:
  1179  00019C  EFE8  F000         	goto	i2l2768
  1180  0001A0                     i2u309_40:
  1181  0001A0                     
  1182                           ; BSR set to: 0
  1183                           ;masterMain.c: 229: speed4M1 = 1;
  1184  0001A0  0E01               	movlw	1
  1185  0001A2  6F83               	movwf	_speed4M1& (0+255),b
  1186  0001A4                     
  1187                           ; BSR set to: 0
  1188                           ;masterMain.c: 230: PORTDbits.RD6 = 1-PORTDbits.RD6;
  1189  0001A4  BC83               	btfsc	131,6,c	;volatile
  1190  0001A6  EFD7  F000         	goto	i2u310_41
  1191  0001AA  EFDB  F000         	goto	i2u310_40
  1192  0001AE                     i2u310_41:
  1193  0001AE  6B91               	clrf	??_ISR& (0+255),b
  1194  0001B0  2B91               	incf	??_ISR& (0+255),f,b
  1195  0001B2  EFDD  F000         	goto	i2u310_48
  1196  0001B6                     i2u310_40:
  1197  0001B6  0100               	movlb	0	; () banked
  1198  0001B8  6B91               	clrf	??_ISR& (0+255),b
  1199  0001BA                     i2u310_48:
  1200  0001BA  5191               	movf	??_ISR& (0+255),w,b
  1201  0001BC  0801               	sublw	1
  1202  0001BE  6F92               	movwf	(??_ISR+1)& (0+255),b
  1203  0001C0  3B92               	swapf	(??_ISR+1)& (0+255),f,b
  1204  0001C2  4792               	rlncf	(??_ISR+1)& (0+255),f,b
  1205  0001C4  4792               	rlncf	(??_ISR+1)& (0+255),f,b
  1206  0001C6  5083               	movf	131,w,c	;volatile
  1207  0001C8  1992               	xorwf	(??_ISR+1)& (0+255),w,b
  1208  0001CA  0BBF               	andlw	-65
  1209  0001CC  1992               	xorwf	(??_ISR+1)& (0+255),w,b
  1210  0001CE  6E83               	movwf	131,c	;volatile
  1211  0001D0                     i2l2768:
  1212                           
  1213                           ;masterMain.c: 231: };masterMain.c: 232: };masterMain.c: 235: if(INTCONbits.TMR0IF == 1)
      +                           {
  1214  0001D0  A4F2               	btfss	242,2,c	;volatile
  1215  0001D2  EFED  F000         	goto	i2u311_41
  1216  0001D6  EFEF  F000         	goto	i2u311_40
  1217  0001DA                     i2u311_41:
  1218  0001DA  EFC5  F002         	goto	i2l187
  1219  0001DE                     i2u311_40:
  1220  0001DE                     
  1221                           ;masterMain.c: 236: count++;
  1222  0001DE  0100               	movlb	0	; () banked
  1223  0001E0  4B7A               	infsnz	_count& (0+255),f,b
  1224  0001E2  2B7B               	incf	(_count+1)& (0+255),f,b
  1225  0001E4                     
  1226                           ; BSR set to: 0
  1227                           ;masterMain.c: 237: if(count==1) {
  1228  0001E4  057A               	decf	_count& (0+255),w,b
  1229  0001E6  117B               	iorwf	(_count+1)& (0+255),w,b
  1230  0001E8  A4D8               	btfss	status,2,c
  1231  0001EA  EFF9  F000         	goto	i2u312_41
  1232  0001EE  EFFB  F000         	goto	i2u312_40
  1233  0001F2                     i2u312_41:
  1234  0001F2  EFFD  F000         	goto	i2l2776
  1235  0001F6                     i2u312_40:
  1236  0001F6                     
  1237                           ; BSR set to: 0
  1238                           ;masterMain.c: 238: UARTM2();
  1239  0001F6  EC0D  F00D         	call	_UARTM2	;wreg free
  1240  0001FA                     i2l2776:
  1241                           
  1242                           ;masterMain.c: 239: };masterMain.c: 240: if(count==2) {
  1243  0001FA  0E02               	movlw	2
  1244  0001FC  0100               	movlb	0	; () banked
  1245  0001FE  197A               	xorwf	_count& (0+255),w,b
  1246  000200  117B               	iorwf	(_count+1)& (0+255),w,b
  1247  000202  A4D8               	btfss	status,2,c
  1248  000204  EF06  F001         	goto	i2u313_41
  1249  000208  EF08  F001         	goto	i2u313_40
  1250  00020C                     i2u313_41:
  1251  00020C  EF0A  F001         	goto	i2l2780
  1252  000210                     i2u313_40:
  1253  000210                     
  1254                           ; BSR set to: 0
  1255                           ;masterMain.c: 241: UARTM1();
  1256  000210  EC2C  F00D         	call	_UARTM1	;wreg free
  1257  000214                     i2l2780:
  1258                           
  1259                           ;masterMain.c: 242: };masterMain.c: 243: if(count==3) {
  1260  000214  0E03               	movlw	3
  1261  000216  0100               	movlb	0	; () banked
  1262  000218  197A               	xorwf	_count& (0+255),w,b
  1263  00021A  117B               	iorwf	(_count+1)& (0+255),w,b
  1264  00021C  A4D8               	btfss	status,2,c
  1265  00021E  EF13  F001         	goto	i2u314_41
  1266  000222  EF15  F001         	goto	i2u314_40
  1267  000226                     i2u314_41:
  1268  000226  EF3A  F002         	goto	i2l179
  1269  00022A                     i2u314_40:
  1270  00022A                     
  1271                           ; BSR set to: 0
  1272                           ;masterMain.c: 244: vel = (unsigned char)round( (((float)(speedM2+speedM1))*0.104719*r/2
      +                          ) * 256 );
  1273  00022A  0EEA               	movlw	234
  1274  00022C  6E17               	movwf	___flmul@a^0,c
  1275  00022E  0E76               	movlw	118
  1276  000230  6E18               	movwf	(___flmul@a+1)^0,c
  1277  000232  0ED6               	movlw	214
  1278  000234  6E19               	movwf	(___flmul@a+2)^0,c
  1279  000236  0E3D               	movlw	61
  1280  000238  6E1A               	movwf	(___flmul@a+3)^0,c
  1281  00023A  5178               	movf	_speedM1& (0+255),w,b
  1282  00023C  2576               	addwf	_speedM2& (0+255),w,b
  1283  00023E  6F91               	movwf	??_ISR& (0+255),b
  1284  000240  5179               	movf	(_speedM1+1)& (0+255),w,b
  1285  000242  2177               	addwfc	(_speedM2+1)& (0+255),w,b
  1286  000244  6F92               	movwf	(??_ISR+1)& (0+255),b
  1287  000246  C091  F005         	movff	??_ISR,___xxtofl@val
  1288  00024A  C092  F006         	movff	??_ISR+1,___xxtofl@val+1
  1289  00024E  0E00               	movlw	0
  1290  000250  BE06               	btfsc	(___xxtofl@val+1)^0,7,c
  1291  000252  0EFF               	movlw	-1
  1292  000254  6E07               	movwf	(___xxtofl@val+2)^0,c
  1293  000256  6E08               	movwf	(___xxtofl@val+3)^0,c
  1294  000258  0E01               	movlw	1
  1295  00025A  EC13  F009         	call	___xxtofl
  1296  00025E  C005  F013         	movff	?___xxtofl,___flmul@b
  1297  000262  C006  F014         	movff	?___xxtofl+1,___flmul@b+1
  1298  000266  C007  F015         	movff	?___xxtofl+2,___flmul@b+2
  1299  00026A  C008  F016         	movff	?___xxtofl+3,___flmul@b+3
  1300  00026E  EC31  F005         	call	___flmul	;wreg free
  1301  000272  C013  F0A3         	movff	?___flmul,_ISR$1558
  1302  000276  C014  F0A4         	movff	?___flmul+1,_ISR$1558+1
  1303  00027A  C015  F0A5         	movff	?___flmul+2,_ISR$1558+2
  1304  00027E  C016  F0A6         	movff	?___flmul+3,_ISR$1558+3
  1305                           
  1306                           ;masterMain.c: 244: vel = (unsigned char)round( (((float)(speedM2+speedM1))*0.104719*r/2
      +                          ) * 256 );
  1307  000282  0E00               	movlw	0
  1308  000284  6E30               	movwf	___fldiv@a^0,c
  1309  000286  0E00               	movlw	0
  1310  000288  6E31               	movwf	(___fldiv@a+1)^0,c
  1311  00028A  0E00               	movlw	0
  1312  00028C  6E32               	movwf	(___fldiv@a+2)^0,c
  1313  00028E  0E40               	movlw	64
  1314  000290  6E33               	movwf	(___fldiv@a+3)^0,c
  1315  000292  C0AC  F017         	movff	_r,___flmul@a
  1316  000296  C0AD  F018         	movff	_r+1,___flmul@a+1
  1317  00029A  C0AE  F019         	movff	_r+2,___flmul@a+2
  1318  00029E  C0AF  F01A         	movff	_r+3,___flmul@a+3
  1319  0002A2  C0A3  F013         	movff	_ISR$1558,___flmul@b
  1320  0002A6  C0A4  F014         	movff	_ISR$1558+1,___flmul@b+1
  1321  0002AA  C0A5  F015         	movff	_ISR$1558+2,___flmul@b+2
  1322  0002AE  C0A6  F016         	movff	_ISR$1558+3,___flmul@b+3
  1323  0002B2  EC31  F005         	call	___flmul	;wreg free
  1324  0002B6  C013  F02C         	movff	?___flmul,___fldiv@b
  1325  0002BA  C014  F02D         	movff	?___flmul+1,___fldiv@b+1
  1326  0002BE  C015  F02E         	movff	?___flmul+2,___fldiv@b+2
  1327  0002C2  C016  F02F         	movff	?___flmul+3,___fldiv@b+3
  1328  0002C6  EC46  F007         	call	___fldiv	;wreg free
  1329  0002CA  C02C  F097         	movff	?___fldiv,_ISR$1559
  1330  0002CE  C02D  F098         	movff	?___fldiv+1,_ISR$1559+1
  1331  0002D2  C02E  F099         	movff	?___fldiv+2,_ISR$1559+2
  1332  0002D6  C02F  F09A         	movff	?___fldiv+3,_ISR$1559+3
  1333  0002DA                     
  1334                           ;masterMain.c: 244: vel = (unsigned char)round( (((float)(speedM2+speedM1))*0.104719*r/2
      +                          ) * 256 );
  1335  0002DA  0E00               	movlw	0
  1336  0002DC  6E17               	movwf	___flmul@a^0,c
  1337  0002DE  0E00               	movlw	0
  1338  0002E0  6E18               	movwf	(___flmul@a+1)^0,c
  1339  0002E2  0E80               	movlw	128
  1340  0002E4  6E19               	movwf	(___flmul@a+2)^0,c
  1341  0002E6  0E43               	movlw	67
  1342  0002E8  6E1A               	movwf	(___flmul@a+3)^0,c
  1343  0002EA  C097  F013         	movff	_ISR$1559,___flmul@b
  1344  0002EE  C098  F014         	movff	_ISR$1559+1,___flmul@b+1
  1345  0002F2  C099  F015         	movff	_ISR$1559+2,___flmul@b+2
  1346  0002F6  C09A  F016         	movff	_ISR$1559+3,___flmul@b+3
  1347  0002FA  EC31  F005         	call	___flmul	;wreg free
  1348  0002FE  C013  F059         	movff	?___flmul,round@x
  1349  000302  C014  F05A         	movff	?___flmul+1,round@x+1
  1350  000306  C015  F05B         	movff	?___flmul+2,round@x+2
  1351  00030A  C016  F05C         	movff	?___flmul+3,round@x+3
  1352  00030E  ECFD  F00B         	call	_round	;wreg free
  1353  000312  C059  F09B         	movff	?_round,_ISR$1560
  1354  000316  C05A  F09C         	movff	?_round+1,_ISR$1560+1
  1355  00031A  C05B  F09D         	movff	?_round+2,_ISR$1560+2
  1356  00031E  C05C  F09E         	movff	?_round+3,_ISR$1560+3
  1357  000322                     
  1358                           ;masterMain.c: 244: vel = (unsigned char)round( (((float)(speedM2+speedM1))*0.104719*r/2
      +                          ) * 256 );
  1359  000322  C09B  F045         	movff	_ISR$1560,___fltol@f1
  1360  000326  C09C  F046         	movff	_ISR$1560+1,___fltol@f1+1
  1361  00032A  C09D  F047         	movff	_ISR$1560+2,___fltol@f1+2
  1362  00032E  C09E  F048         	movff	_ISR$1560+3,___fltol@f1+3
  1363  000332  EC79  F00A         	call	___fltol	;wreg free
  1364  000336  5045               	movf	?___fltol^0,w,c
  1365  000338  0100               	movlb	0	; () banked
  1366  00033A  6F7D               	movwf	_vel& (0+255),b
  1367  00033C                     
  1368                           ; BSR set to: 0
  1369                           ;masterMain.c: 245: omega = (unsigned char)round( (((float)(abs((speedM2-speedM1))))*0.1
      +                          04719/(2*b)) * 5.12 );
  1370  00033C  0E00               	movlw	0
  1371  00033E  6E17               	movwf	___flmul@a^0,c
  1372  000340  0E00               	movlw	0
  1373  000342  6E18               	movwf	(___flmul@a+1)^0,c
  1374  000344  0E00               	movlw	0
  1375  000346  6E19               	movwf	(___flmul@a+2)^0,c
  1376  000348  0E40               	movlw	64
  1377  00034A  6E1A               	movwf	(___flmul@a+3)^0,c
  1378  00034C  C0A8  F013         	movff	_b,___flmul@b
  1379  000350  C0A9  F014         	movff	_b+1,___flmul@b+1
  1380  000354  C0AA  F015         	movff	_b+2,___flmul@b+2
  1381  000358  C0AB  F016         	movff	_b+3,___flmul@b+3
  1382  00035C  EC31  F005         	call	___flmul	;wreg free
  1383  000360  C013  F030         	movff	?___flmul,___fldiv@a
  1384  000364  C014  F031         	movff	?___flmul+1,___fldiv@a+1
  1385  000368  C015  F032         	movff	?___flmul+2,___fldiv@a+2
  1386  00036C  C016  F033         	movff	?___flmul+3,___fldiv@a+3
  1387  000370  0EEA               	movlw	234
  1388  000372  6E17               	movwf	___flmul@a^0,c
  1389  000374  0E76               	movlw	118
  1390  000376  6E18               	movwf	(___flmul@a+1)^0,c
  1391  000378  0ED6               	movlw	214
  1392  00037A  6E19               	movwf	(___flmul@a+2)^0,c
  1393  00037C  0E3D               	movlw	61
  1394  00037E  6E1A               	movwf	(___flmul@a+3)^0,c
  1395  000380  0100               	movlb	0	; () banked
  1396  000382  5178               	movf	_speedM1& (0+255),w,b
  1397  000384  5D76               	subwf	_speedM2& (0+255),w,b
  1398  000386  6E01               	movwf	abs@a^0,c
  1399  000388  5179               	movf	(_speedM1+1)& (0+255),w,b
  1400  00038A  5977               	subwfb	(_speedM2+1)& (0+255),w,b
  1401  00038C  6E02               	movwf	(abs@a+1)^0,c
  1402  00038E  EC66  F00D         	call	_abs	;wreg free
  1403  000392  C001  F005         	movff	?_abs,___xxtofl@val
  1404  000396  C002  F006         	movff	?_abs+1,___xxtofl@val+1
  1405  00039A  0E00               	movlw	0
  1406  00039C  BE06               	btfsc	(___xxtofl@val+1)^0,7,c
  1407  00039E  0EFF               	movlw	-1
  1408  0003A0  6E07               	movwf	(___xxtofl@val+2)^0,c
  1409  0003A2  6E08               	movwf	(___xxtofl@val+3)^0,c
  1410  0003A4  0E01               	movlw	1
  1411  0003A6  EC13  F009         	call	___xxtofl
  1412  0003AA  C005  F013         	movff	?___xxtofl,___flmul@b
  1413  0003AE  C006  F014         	movff	?___xxtofl+1,___flmul@b+1
  1414  0003B2  C007  F015         	movff	?___xxtofl+2,___flmul@b+2
  1415  0003B6  C008  F016         	movff	?___xxtofl+3,___flmul@b+3
  1416  0003BA  EC31  F005         	call	___flmul	;wreg free
  1417  0003BE  C013  F02C         	movff	?___flmul,___fldiv@b
  1418  0003C2  C014  F02D         	movff	?___flmul+1,___fldiv@b+1
  1419  0003C6  C015  F02E         	movff	?___flmul+2,___fldiv@b+2
  1420  0003CA  C016  F02F         	movff	?___flmul+3,___fldiv@b+3
  1421  0003CE  EC46  F007         	call	___fldiv	;wreg free
  1422  0003D2  C02C  F0A3         	movff	?___fldiv,_ISR$1558
  1423  0003D6  C02D  F0A4         	movff	?___fldiv+1,_ISR$1558+1
  1424  0003DA  C02E  F0A5         	movff	?___fldiv+2,_ISR$1558+2
  1425  0003DE  C02F  F0A6         	movff	?___fldiv+3,_ISR$1558+3
  1426  0003E2                     
  1427                           ;masterMain.c: 245: omega = (unsigned char)round( (((float)(abs((speedM2-speedM1))))*0.1
      +                          04719/(2*b)) * 5.12 );
  1428  0003E2  0E0A               	movlw	10
  1429  0003E4  6E17               	movwf	___flmul@a^0,c
  1430  0003E6  0ED7               	movlw	215
  1431  0003E8  6E18               	movwf	(___flmul@a+1)^0,c
  1432  0003EA  0EA3               	movlw	163
  1433  0003EC  6E19               	movwf	(___flmul@a+2)^0,c
  1434  0003EE  0E40               	movlw	64
  1435  0003F0  6E1A               	movwf	(___flmul@a+3)^0,c
  1436  0003F2  C0A3  F013         	movff	_ISR$1558,___flmul@b
  1437  0003F6  C0A4  F014         	movff	_ISR$1558+1,___flmul@b+1
  1438  0003FA  C0A5  F015         	movff	_ISR$1558+2,___flmul@b+2
  1439  0003FE  C0A6  F016         	movff	_ISR$1558+3,___flmul@b+3
  1440  000402  EC31  F005         	call	___flmul	;wreg free
  1441  000406  C013  F059         	movff	?___flmul,round@x
  1442  00040A  C014  F05A         	movff	?___flmul+1,round@x+1
  1443  00040E  C015  F05B         	movff	?___flmul+2,round@x+2
  1444  000412  C016  F05C         	movff	?___flmul+3,round@x+3
  1445  000416  ECFD  F00B         	call	_round	;wreg free
  1446  00041A  C059  F09F         	movff	?_round,_ISR$1561
  1447  00041E  C05A  F0A0         	movff	?_round+1,_ISR$1561+1
  1448  000422  C05B  F0A1         	movff	?_round+2,_ISR$1561+2
  1449  000426  C05C  F0A2         	movff	?_round+3,_ISR$1561+3
  1450                           
  1451                           ;masterMain.c: 245: omega = (unsigned char)round( (((float)(abs((speedM2-speedM1))))*0.1
      +                          04719/(2*b)) * 5.12 );
  1452  00042A  C09F  F045         	movff	_ISR$1561,___fltol@f1
  1453  00042E  C0A0  F046         	movff	_ISR$1561+1,___fltol@f1+1
  1454  000432  C0A1  F047         	movff	_ISR$1561+2,___fltol@f1+2
  1455  000436  C0A2  F048         	movff	_ISR$1561+3,___fltol@f1+3
  1456  00043A  EC79  F00A         	call	___fltol	;wreg free
  1457  00043E  5045               	movf	?___fltol^0,w,c
  1458  000440  0100               	movlb	0	; () banked
  1459  000442  6F7C               	movwf	_omega& (0+255),b
  1460  000444                     
  1461                           ; BSR set to: 0
  1462                           ;masterMain.c: 246: PORTB = vel;
  1463  000444  C07D  FF81         	movff	_vel,3969	;volatile
  1464  000448                     
  1465                           ; BSR set to: 0
  1466                           ;masterMain.c: 248: if (speedM2-speedM1 < 0)
  1467  000448  5178               	movf	_speedM1& (0+255),w,b
  1468  00044A  5D76               	subwf	_speedM2& (0+255),w,b
  1469  00044C  5179               	movf	(_speedM1+1)& (0+255),w,b
  1470  00044E  5977               	subwfb	(_speedM2+1)& (0+255),w,b
  1471  000450  0B80               	andlw	128
  1472  000452  B4D8               	btfsc	status,2,c
  1473  000454  EF2E  F002         	goto	i2u315_41
  1474  000458  EF30  F002         	goto	i2u315_40
  1475  00045C                     i2u315_41:
  1476  00045C  EF33  F002         	goto	i2l180
  1477  000460                     i2u315_40:
  1478  000460                     
  1479                           ; BSR set to: 0
  1480                           ;masterMain.c: 249: PORTDbits.RD7 = 1;
  1481  000460  8E83               	bsf	131,7,c	;volatile
  1482  000462  EF34  F002         	goto	i2l181
  1483  000466                     i2l180:
  1484                           
  1485                           ; BSR set to: 0
  1486                           ;masterMain.c: 250: else;masterMain.c: 251: PORTDbits.RD7 = 0;
  1487  000466  9E83               	bcf	131,7,c	;volatile
  1488  000468                     i2l181:
  1489                           
  1490                           ; BSR set to: 0
  1491                           ;masterMain.c: 253: PORTA = omega;
  1492  000468  C07C  FF80         	movff	_omega,3968	;volatile
  1493  00046C                     
  1494                           ; BSR set to: 0
  1495                           ;masterMain.c: 254: PORTE = omega >> 6;
  1496  00046C  457C               	rlncf	_omega& (0+255),w,b
  1497  00046E  46E8               	rlncf	wreg,f,c
  1498  000470  0B03               	andlw	3
  1499  000472  6E84               	movwf	132,c	;volatile
  1500  000474                     i2l179:
  1501                           
  1502                           ; BSR set to: 0
  1503                           ;masterMain.c: 255: };masterMain.c: 256: if(count==4) {
  1504  000474  0E04               	movlw	4
  1505  000476  197A               	xorwf	_count& (0+255),w,b
  1506  000478  117B               	iorwf	(_count+1)& (0+255),w,b
  1507  00047A  A4D8               	btfss	status,2,c
  1508  00047C  EF42  F002         	goto	i2u316_41
  1509  000480  EF44  F002         	goto	i2u316_40
  1510  000484                     i2u316_41:
  1511  000484  EF4E  F002         	goto	i2l2804
  1512  000488                     i2u316_40:
  1513  000488                     
  1514                           ; BSR set to: 0
  1515                           ;masterMain.c: 257: WriteSPI(speedRef1,1);
  1516  000488  0E01               	movlw	1
  1517  00048A  6E01               	movwf	WriteSPI@a^0,c
  1518  00048C  505E               	movf	_speedRef1^0,w,c
  1519  00048E  EC4E  F00C         	call	_WriteSPI
  1520                           
  1521                           ;masterMain.c: 258: WriteSPI(speedRef2,2);
  1522  000492  0E02               	movlw	2
  1523  000494  6E01               	movwf	WriteSPI@a^0,c
  1524  000496  505D               	movf	_speedRef2^0,w,c
  1525  000498  EC4E  F00C         	call	_WriteSPI
  1526  00049C                     i2l2804:
  1527                           
  1528                           ;masterMain.c: 261: };masterMain.c: 262: if(count==6) {
  1529  00049C  0E06               	movlw	6
  1530  00049E  0100               	movlb	0	; () banked
  1531  0004A0  197A               	xorwf	_count& (0+255),w,b
  1532  0004A2  117B               	iorwf	(_count+1)& (0+255),w,b
  1533  0004A4  A4D8               	btfss	status,2,c
  1534  0004A6  EF57  F002         	goto	i2u317_41
  1535  0004AA  EF59  F002         	goto	i2u317_40
  1536  0004AE                     i2u317_41:
  1537  0004AE  EFBC  F002         	goto	i2l2828
  1538  0004B2                     i2u317_40:
  1539  0004B2                     
  1540                           ; BSR set to: 0
  1541                           ;masterMain.c: 263: if(incStr1==0 && transRdy1 == 1) {
  1542  0004B2  517F               	movf	_incStr1& (0+255),w,b
  1543  0004B4  A4D8               	btfss	status,2,c
  1544  0004B6  EF5F  F002         	goto	i2u318_41
  1545  0004BA  EF61  F002         	goto	i2u318_40
  1546  0004BE                     i2u318_41:
  1547  0004BE  EF89  F002         	goto	i2l2816
  1548  0004C2                     i2u318_40:
  1549  0004C2                     
  1550                           ; BSR set to: 0
  1551  0004C2  0581               	decf	_transRdy1& (0+255),w,b
  1552  0004C4  A4D8               	btfss	status,2,c
  1553  0004C6  EF67  F002         	goto	i2u319_41
  1554  0004CA  EF69  F002         	goto	i2u319_40
  1555  0004CE                     i2u319_41:
  1556  0004CE  EF89  F002         	goto	i2l2816
  1557  0004D2                     i2u319_40:
  1558  0004D2                     
  1559                           ; BSR set to: 0
  1560                           ;masterMain.c: 264: transRdy1 = 0;
  1561  0004D2  0E00               	movlw	0
  1562  0004D4  6F81               	movwf	_transRdy1& (0+255),b
  1563  0004D6                     
  1564                           ; BSR set to: 0
  1565                           ;masterMain.c: 265: speedRef1 = (unsigned char)atoi(str);
  1566  0004D6  0EB2               	movlw	low _str
  1567  0004D8  6E07               	movwf	atoi@s^0,c
  1568  0004DA  0E00               	movlw	high _str
  1569  0004DC  6E08               	movwf	(atoi@s+1)^0,c
  1570  0004DE  ECED  F009         	call	_atoi	;wreg free
  1571  0004E2  5007               	movf	?_atoi^0,w,c
  1572  0004E4  6E5E               	movwf	_speedRef1^0,c
  1573  0004E6                     
  1574                           ;masterMain.c: 266: PORTDbits.RD5 = 1-PORTDbits.RD5;
  1575  0004E6  BA83               	btfsc	131,5,c	;volatile
  1576  0004E8  EF78  F002         	goto	i2u320_41
  1577  0004EC  EF7D  F002         	goto	i2u320_40
  1578  0004F0                     i2u320_41:
  1579  0004F0  0100               	movlb	0	; () banked
  1580  0004F2  6B91               	clrf	??_ISR& (0+255),b
  1581  0004F4  2B91               	incf	??_ISR& (0+255),f,b
  1582  0004F6  EF7F  F002         	goto	i2u320_48
  1583  0004FA                     i2u320_40:
  1584  0004FA  0100               	movlb	0	; () banked
  1585  0004FC  6B91               	clrf	??_ISR& (0+255),b
  1586  0004FE                     i2u320_48:
  1587  0004FE  5191               	movf	??_ISR& (0+255),w,b
  1588  000500  0801               	sublw	1
  1589  000502  6F92               	movwf	(??_ISR+1)& (0+255),b
  1590  000504  3B92               	swapf	(??_ISR+1)& (0+255),f,b
  1591  000506  4792               	rlncf	(??_ISR+1)& (0+255),f,b
  1592  000508  5083               	movf	131,w,c	;volatile
  1593  00050A  1992               	xorwf	(??_ISR+1)& (0+255),w,b
  1594  00050C  0BDF               	andlw	-33
  1595  00050E  1992               	xorwf	(??_ISR+1)& (0+255),w,b
  1596  000510  6E83               	movwf	131,c	;volatile
  1597  000512                     i2l2816:
  1598                           
  1599                           ; BSR set to: 0
  1600                           ;masterMain.c: 267: };masterMain.c: 268: if(incStr2==0 && transRdy2 == 1) {
  1601  000512  517E               	movf	_incStr2& (0+255),w,b
  1602  000514  A4D8               	btfss	status,2,c
  1603  000516  EF8F  F002         	goto	i2u321_41
  1604  00051A  EF91  F002         	goto	i2u321_40
  1605  00051E                     i2u321_41:
  1606  00051E  EFB8  F002         	goto	i2l2826
  1607  000522                     i2u321_40:
  1608  000522                     
  1609                           ; BSR set to: 0
  1610  000522  0580               	decf	_transRdy2& (0+255),w,b
  1611  000524  A4D8               	btfss	status,2,c
  1612  000526  EF97  F002         	goto	i2u322_41
  1613  00052A  EF99  F002         	goto	i2u322_40
  1614  00052E                     i2u322_41:
  1615  00052E  EFB8  F002         	goto	i2l2826
  1616  000532                     i2u322_40:
  1617  000532                     
  1618                           ; BSR set to: 0
  1619                           ;masterMain.c: 269: transRdy2 = 0;
  1620  000532  0E00               	movlw	0
  1621  000534  6F80               	movwf	_transRdy2& (0+255),b
  1622  000536                     
  1623                           ; BSR set to: 0
  1624                           ;masterMain.c: 270: speedRef2 = (unsigned char)atoi(str);
  1625  000536  0EB2               	movlw	low _str
  1626  000538  6E07               	movwf	atoi@s^0,c
  1627  00053A  0E00               	movlw	high _str
  1628  00053C  6E08               	movwf	(atoi@s+1)^0,c
  1629  00053E  ECED  F009         	call	_atoi	;wreg free
  1630  000542  5007               	movf	?_atoi^0,w,c
  1631  000544  6E5D               	movwf	_speedRef2^0,c
  1632  000546                     
  1633                           ;masterMain.c: 271: PORTDbits.RD4 = 1-PORTDbits.RD4;
  1634  000546  B883               	btfsc	131,4,c	;volatile
  1635  000548  EFA8  F002         	goto	i2u323_41
  1636  00054C  EFAD  F002         	goto	i2u323_40
  1637  000550                     i2u323_41:
  1638  000550  0100               	movlb	0	; () banked
  1639  000552  6B91               	clrf	??_ISR& (0+255),b
  1640  000554  2B91               	incf	??_ISR& (0+255),f,b
  1641  000556  EFAF  F002         	goto	i2u323_48
  1642  00055A                     i2u323_40:
  1643  00055A  0100               	movlb	0	; () banked
  1644  00055C  6B91               	clrf	??_ISR& (0+255),b
  1645  00055E                     i2u323_48:
  1646  00055E  5191               	movf	??_ISR& (0+255),w,b
  1647  000560  0801               	sublw	1
  1648  000562  6F92               	movwf	(??_ISR+1)& (0+255),b
  1649  000564  3B92               	swapf	(??_ISR+1)& (0+255),f,b
  1650  000566  5083               	movf	131,w,c	;volatile
  1651  000568  1992               	xorwf	(??_ISR+1)& (0+255),w,b
  1652  00056A  0BEF               	andlw	-17
  1653  00056C  1992               	xorwf	(??_ISR+1)& (0+255),w,b
  1654  00056E  6E83               	movwf	131,c	;volatile
  1655  000570                     i2l2826:
  1656                           
  1657                           ; BSR set to: 0
  1658                           ;masterMain.c: 272: };masterMain.c: 273: count=0;
  1659  000570  0E00               	movlw	0
  1660  000572  6F7B               	movwf	(_count+1)& (0+255),b
  1661  000574  0E00               	movlw	0
  1662  000576  6F7A               	movwf	_count& (0+255),b
  1663  000578                     i2l2828:
  1664                           
  1665                           ; BSR set to: 0
  1666                           ;masterMain.c: 274: };masterMain.c: 275: _delay((unsigned long)((2500)*(20000000/4000000
      +                          .0)));
  1667  000578  0E11               	movlw	17
  1668  00057A  0100               	movlb	0	; () banked
  1669  00057C  6F91               	movwf	??_ISR& (0+255),b
  1670  00057E  0E3A               	movlw	58
  1671  000580                     i2u324_47:
  1672  000580  2EE8               	decfsz	wreg,f,c
  1673  000582  D7FE               	bra	i2u324_47
  1674  000584  2F91               	decfsz	??_ISR& (0+255),f,b
  1675  000586  D7FC               	bra	i2u324_47
  1676  000588  F000               	nop	
  1677  00058A                     i2l187:
  1678  00058A  C096  FFF4         	movff	??_ISR+5,prodh
  1679  00058E  C095  FFF3         	movff	??_ISR+4,prodl
  1680  000592  C094  FFDA         	movff	??_ISR+3,fsr2h
  1681  000596  C093  FFD9         	movff	??_ISR+2,fsr2l
  1682  00059A  925F               	bcf	int$flags,1,c	;clear compiler interrupt flag (level 2)
  1683  00059C  0011               	retfie		f
  1684  00059E                     __end_of_ISR:
  1685                           	callstack 0
  1686                           
  1687 ;; *************** function _rx_char *****************
  1688 ;; Defined at:
  1689 ;;		line 341 in file "masterMain.c"
  1690 ;; Parameters:    Size  Location     Type
  1691 ;;		None
  1692 ;; Auto vars:     Size  Location     Type
  1693 ;;		None
  1694 ;; Return value:  Size  Location     Type
  1695 ;;                  1    wreg      unsigned char 
  1696 ;; Registers used:
  1697 ;;		wreg, status,2
  1698 ;; Tracked objects:
  1699 ;;		On entry : 0/0
  1700 ;;		On exit  : 0/0
  1701 ;;		Unchanged: 0/0
  1702 ;; Data sizes:     COMRAM   BANK0   BANK1   BANK2
  1703 ;;      Params:         0       0       0       0
  1704 ;;      Locals:         0       0       0       0
  1705 ;;      Temps:          0       0       0       0
  1706 ;;      Totals:         0       0       0       0
  1707 ;;Total ram usage:        0 bytes
  1708 ;; Hardware stack levels used: 1
  1709 ;; This function calls:
  1710 ;;		Nothing
  1711 ;; This function is called by:
  1712 ;;		_ISR
  1713 ;;		_gets_UART
  1714 ;; This function uses a non-reentrant model
  1715 ;;
  1716                           
  1717                           	psect	text5
  1718  001BAA                     __ptext5:
  1719                           	callstack 0
  1720  001BAA                     _rx_char:
  1721                           	callstack 28
  1722  001BAA                     i2l207:
  1723  001BAA  AA9E               	btfss	3998,5,c	;volatile
  1724  001BAC  EFDA  F00D         	goto	i2u243_41
  1725  001BB0  EFDC  F00D         	goto	i2u243_40
  1726  001BB4                     i2u243_41:
  1727  001BB4  EFD5  F00D         	goto	i2l207
  1728  001BB8                     i2u243_40:
  1729  001BB8                     
  1730                           ;masterMain.c: 343: return RCREG;
  1731  001BB8  50AE               	movf	174,w,c	;volatile
  1732  001BBA  0012               	return		;funcret
  1733  001BBC                     __end_of_rx_char:
  1734                           	callstack 0
  1735                           
  1736 ;; *************** function _round *****************
  1737 ;; Defined at:
  1738 ;;		line 6 in file "C:\Program Files\Microchip\xc8\v2.32\pic\sources\c90\common\round.c"
  1739 ;; Parameters:    Size  Location     Type
  1740 ;;  x               4   88[COMRAM] unsigned char 
  1741 ;; Auto vars:     Size  Location     Type
  1742 ;;  f               4    8[BANK0 ] unsigned char 
  1743 ;; Return value:  Size  Location     Type
  1744 ;;                  4   88[COMRAM] unsigned char 
  1745 ;; Registers used:
  1746 ;;		wreg, fsr2l, fsr2h, status,2, status,0, cstack
  1747 ;; Tracked objects:
  1748 ;;		On entry : 0/0
  1749 ;;		On exit  : 0/0
  1750 ;;		Unchanged: 0/0
  1751 ;; Data sizes:     COMRAM   BANK0   BANK1   BANK2
  1752 ;;      Params:         4       0       0       0
  1753 ;;      Locals:         0       4       0       0
  1754 ;;      Temps:          0       0       0       0
  1755 ;;      Totals:         4       4       0       0
  1756 ;;Total ram usage:        8 bytes
  1757 ;; Hardware stack levels used: 1
  1758 ;; Hardware stack levels required when called: 3
  1759 ;; This function calls:
  1760 ;;		___fladd
  1761 ;;		___flsub
  1762 ;;		_trunc
  1763 ;; This function is called by:
  1764 ;;		_ISR
  1765 ;; This function uses a non-reentrant model
  1766 ;;
  1767                           
  1768                           	psect	text6
  1769  0017FA                     __ptext6:
  1770                           	callstack 0
  1771  0017FA                     _round:
  1772                           	callstack 25
  1773  0017FA  C059  F085         	movff	round@x,___flsub@b
  1774  0017FE  C05A  F086         	movff	round@x+1,___flsub@b+1
  1775  001802  C05B  F087         	movff	round@x+2,___flsub@b+2
  1776  001806  C05C  F088         	movff	round@x+3,___flsub@b+3
  1777  00180A  C059  F04F         	movff	round@x,trunc@x
  1778  00180E  C05A  F050         	movff	round@x+1,trunc@x+1
  1779  001812  C05B  F051         	movff	round@x+2,trunc@x+2
  1780  001816  C05C  F052         	movff	round@x+3,trunc@x+3
  1781  00181A  ECFC  F00A         	call	_trunc	;wreg free
  1782  00181E  C04F  F089         	movff	?_trunc,___flsub@a
  1783  001822  C050  F08A         	movff	?_trunc+1,___flsub@a+1
  1784  001826  C051  F08B         	movff	?_trunc+2,___flsub@a+2
  1785  00182A  C052  F08C         	movff	?_trunc+3,___flsub@a+3
  1786  00182E  ECE9  F00C         	call	___flsub	;wreg free
  1787  001832  C085  F08D         	movff	?___flsub,round@f
  1788  001836  C086  F08E         	movff	?___flsub+1,round@f+1
  1789  00183A  C087  F08F         	movff	?___flsub+2,round@f+2
  1790  00183E  C088  F090         	movff	?___flsub+3,round@f+3
  1791  001842  C059  F001         	movff	round@x,___fladd@b
  1792  001846  C05A  F002         	movff	round@x+1,___fladd@b+1
  1793  00184A  C05B  F003         	movff	round@x+2,___fladd@b+2
  1794  00184E  C05C  F004         	movff	round@x+3,___fladd@b+3
  1795  001852  C08D  F005         	movff	round@f,___fladd@a
  1796  001856  C08E  F006         	movff	round@f+1,___fladd@a+1
  1797  00185A  C08F  F007         	movff	round@f+2,___fladd@a+2
  1798  00185E  C090  F008         	movff	round@f+3,___fladd@a+3
  1799  001862  ECD1  F002         	call	___fladd	;wreg free
  1800  001866  C001  F059         	movff	?___fladd,round@x
  1801  00186A  C002  F05A         	movff	?___fladd+1,round@x+1
  1802  00186E  C003  F05B         	movff	?___fladd+2,round@x+2
  1803  001872  C004  F05C         	movff	?___fladd+3,round@x+3
  1804  001876  C059  F04F         	movff	round@x,trunc@x
  1805  00187A  C05A  F050         	movff	round@x+1,trunc@x+1
  1806  00187E  C05B  F051         	movff	round@x+2,trunc@x+2
  1807  001882  C05C  F052         	movff	round@x+3,trunc@x+3
  1808  001886  ECFC  F00A         	call	_trunc	;wreg free
  1809  00188A  C04F  F059         	movff	?_trunc,?_round
  1810  00188E  C050  F05A         	movff	?_trunc+1,?_round+1
  1811  001892  C051  F05B         	movff	?_trunc+2,?_round+2
  1812  001896  C052  F05C         	movff	?_trunc+3,?_round+3
  1813  00189A  0012               	return		;funcret
  1814  00189C                     __end_of_round:
  1815                           	callstack 0
  1816                           
  1817 ;; *************** function _trunc *****************
  1818 ;; Defined at:
  1819 ;;		line 13 in file "C:\Program Files\Microchip\xc8\v2.32\pic\sources\c90\common\trunc.c"
  1820 ;; Parameters:    Size  Location     Type
  1821 ;;  x               4   78[COMRAM] unsigned char 
  1822 ;; Auto vars:     Size  Location     Type
  1823 ;;  i               4   82[COMRAM] unsigned char 
  1824 ;;  expon           2   86[COMRAM] int 
  1825 ;; Return value:  Size  Location     Type
  1826 ;;                  4   78[COMRAM] int 
  1827 ;; Registers used:
  1828 ;;		wreg, fsr2l, fsr2h, status,2, status,0, cstack
  1829 ;; Tracked objects:
  1830 ;;		On entry : 0/0
  1831 ;;		On exit  : 0/0
  1832 ;;		Unchanged: 0/0
  1833 ;; Data sizes:     COMRAM   BANK0   BANK1   BANK2
  1834 ;;      Params:         4       0       0       0
  1835 ;;      Locals:         6       0       0       0
  1836 ;;      Temps:          0       0       0       0
  1837 ;;      Totals:        10       0       0       0
  1838 ;;Total ram usage:       10 bytes
  1839 ;; Hardware stack levels used: 1
  1840 ;; Hardware stack levels required when called: 2
  1841 ;; This function calls:
  1842 ;;		___fltol
  1843 ;;		___xxtofl
  1844 ;;		_frexp
  1845 ;; This function is called by:
  1846 ;;		_round
  1847 ;; This function uses a non-reentrant model
  1848 ;;
  1849                           
  1850                           	psect	text7
  1851  0015F8                     __ptext7:
  1852                           	callstack 0
  1853  0015F8                     _trunc:
  1854                           	callstack 25
  1855  0015F8  C04F  F00D         	movff	trunc@x,frexp@value
  1856  0015FC  C050  F00E         	movff	trunc@x+1,frexp@value+1
  1857  001600  C051  F00F         	movff	trunc@x+2,frexp@value+2
  1858  001604  C052  F010         	movff	trunc@x+3,frexp@value+3
  1859  001608  0E57               	movlw	low trunc@expon
  1860  00160A  6E11               	movwf	frexp@eptr^0,c
  1861  00160C  0E00               	movlw	high trunc@expon
  1862  00160E  6E12               	movwf	(frexp@eptr+1)^0,c
  1863  001610  ECAB  F00B         	call	_frexp	;wreg free
  1864  001614  BE58               	btfsc	(trunc@expon+1)^0,7,c
  1865  001616  EF11  F00B         	goto	i2u231_40
  1866  00161A  EF0F  F00B         	goto	i2u231_41
  1867  00161E                     i2u231_41:
  1868  00161E  EF1B  F00B         	goto	i2l2340
  1869  001622                     i2u231_40:
  1870  001622  0E00               	movlw	0
  1871  001624  6E4F               	movwf	?_trunc^0,c
  1872  001626  0E00               	movlw	0
  1873  001628  6E50               	movwf	(?_trunc+1)^0,c
  1874  00162A  0E00               	movlw	0
  1875  00162C  6E51               	movwf	(?_trunc+2)^0,c
  1876  00162E  0E00               	movlw	0
  1877  001630  6E52               	movwf	(?_trunc+3)^0,c
  1878  001632  EF55  F00B         	goto	i2l919
  1879  001636                     i2l2340:
  1880  001636  5058               	movf	(trunc@expon+1)^0,w,c
  1881  001638  E109               	bnz	i2u232_40
  1882  00163A  0E1D               	movlw	29
  1883  00163C  5C57               	subwf	trunc@expon^0,w,c
  1884  00163E  A0D8               	btfss	status,0,c
  1885  001640  EF24  F00B         	goto	i2u232_41
  1886  001644  EF26  F00B         	goto	i2u232_40
  1887  001648                     i2u232_41:
  1888  001648  EF30  F00B         	goto	i2l2344
  1889  00164C                     i2u232_40:
  1890  00164C  C04F  F04F         	movff	trunc@x,?_trunc
  1891  001650  C050  F050         	movff	trunc@x+1,?_trunc+1
  1892  001654  C051  F051         	movff	trunc@x+2,?_trunc+2
  1893  001658  C052  F052         	movff	trunc@x+3,?_trunc+3
  1894  00165C  EF55  F00B         	goto	i2l919
  1895  001660                     i2l2344:
  1896  001660  C04F  F045         	movff	trunc@x,___fltol@f1
  1897  001664  C050  F046         	movff	trunc@x+1,___fltol@f1+1
  1898  001668  C051  F047         	movff	trunc@x+2,___fltol@f1+2
  1899  00166C  C052  F048         	movff	trunc@x+3,___fltol@f1+3
  1900  001670  EC79  F00A         	call	___fltol	;wreg free
  1901  001674  C045  F005         	movff	?___fltol,___xxtofl@val
  1902  001678  C046  F006         	movff	?___fltol+1,___xxtofl@val+1
  1903  00167C  C047  F007         	movff	?___fltol+2,___xxtofl@val+2
  1904  001680  C048  F008         	movff	?___fltol+3,___xxtofl@val+3
  1905  001684  0E01               	movlw	1
  1906  001686  EC13  F009         	call	___xxtofl
  1907  00168A  C005  F053         	movff	?___xxtofl,trunc@i
  1908  00168E  C006  F054         	movff	?___xxtofl+1,trunc@i+1
  1909  001692  C007  F055         	movff	?___xxtofl+2,trunc@i+2
  1910  001696  C008  F056         	movff	?___xxtofl+3,trunc@i+3
  1911  00169A  C053  F04F         	movff	trunc@i,?_trunc
  1912  00169E  C054  F050         	movff	trunc@i+1,?_trunc+1
  1913  0016A2  C055  F051         	movff	trunc@i+2,?_trunc+2
  1914  0016A6  C056  F052         	movff	trunc@i+3,?_trunc+3
  1915  0016AA                     i2l919:
  1916  0016AA  0012               	return		;funcret
  1917  0016AC                     __end_of_trunc:
  1918                           	callstack 0
  1919                           
  1920 ;; *************** function _frexp *****************
  1921 ;; Defined at:
  1922 ;;		line 254 in file "C:\Program Files\Microchip\xc8\v2.32\pic\sources\c90\common\frexp.c"
  1923 ;; Parameters:    Size  Location     Type
  1924 ;;  value           4   12[COMRAM] int 
  1925 ;;  eptr            2   16[COMRAM] PTR int 
  1926 ;;		 -> trunc@expon(2), 
  1927 ;; Auto vars:     Size  Location     Type
  1928 ;;		None
  1929 ;; Return value:  Size  Location     Type
  1930 ;;                  4   12[COMRAM] PTR int 
  1931 ;; Registers used:
  1932 ;;		wreg, fsr2l, fsr2h, status,2, status,0, cstack
  1933 ;; Tracked objects:
  1934 ;;		On entry : 0/0
  1935 ;;		On exit  : 0/0
  1936 ;;		Unchanged: 0/0
  1937 ;; Data sizes:     COMRAM   BANK0   BANK1   BANK2
  1938 ;;      Params:         6       0       0       0
  1939 ;;      Locals:         0       0       0       0
  1940 ;;      Temps:          2       0       0       0
  1941 ;;      Totals:         8       0       0       0
  1942 ;;Total ram usage:        8 bytes
  1943 ;; Hardware stack levels used: 1
  1944 ;; Hardware stack levels required when called: 1
  1945 ;; This function calls:
  1946 ;;		___fleq
  1947 ;; This function is called by:
  1948 ;;		_trunc
  1949 ;; This function uses a non-reentrant model
  1950 ;;
  1951                           
  1952                           	psect	text8
  1953  001756                     __ptext8:
  1954                           	callstack 0
  1955  001756                     _frexp:
  1956                           	callstack 25
  1957  001756  C00D  F001         	movff	frexp@value,___fleq@ff1
  1958  00175A  C00E  F002         	movff	frexp@value+1,___fleq@ff1+1
  1959  00175E  C00F  F003         	movff	frexp@value+2,___fleq@ff1+2
  1960  001762  C010  F004         	movff	frexp@value+3,___fleq@ff1+3
  1961  001766  0E00               	movlw	0
  1962  001768  6E05               	movwf	___fleq@ff2^0,c
  1963  00176A  0E00               	movlw	0
  1964  00176C  6E06               	movwf	(___fleq@ff2+1)^0,c
  1965  00176E  0E00               	movlw	0
  1966  001770  6E07               	movwf	(___fleq@ff2+2)^0,c
  1967  001772  0E00               	movlw	0
  1968  001774  6E08               	movwf	(___fleq@ff2+3)^0,c
  1969  001776  EC56  F00B         	call	___fleq	;wreg free
  1970  00177A  A0D8               	btfss	status,0,c
  1971  00177C  EFC2  F00B         	goto	i2u222_41
  1972  001780  EFC4  F00B         	goto	i2u222_40
  1973  001784                     i2u222_41:
  1974  001784  EFCE  F00B         	goto	i2l2276
  1975  001788                     i2u222_40:
  1976  001788  C011  FFD9         	movff	frexp@eptr,fsr2l
  1977  00178C  C012  FFDA         	movff	frexp@eptr+1,fsr2h
  1978  001790  0E00               	movlw	0
  1979  001792  6EDE               	movwf	postinc2,c
  1980  001794  0E00               	movlw	0
  1981  001796  6EDD               	movwf	postdec2,c
  1982  001798  EFFC  F00B         	goto	i2l926
  1983  00179C                     i2l2276:
  1984  00179C  5010               	movf	(frexp@value+3)^0,w,c
  1985  00179E  0B7F               	andlw	127
  1986  0017A0  6E13               	movwf	??_frexp^0,c
  1987  0017A2  6A14               	clrf	(??_frexp+1)^0,c
  1988  0017A4  90D8               	bcf	status,0,c
  1989  0017A6  3613               	rlcf	??_frexp^0,f,c
  1990  0017A8  3614               	rlcf	(??_frexp+1)^0,f,c
  1991  0017AA  C011  FFD9         	movff	frexp@eptr,fsr2l
  1992  0017AE  C012  FFDA         	movff	frexp@eptr+1,fsr2h
  1993  0017B2  C013  FFDE         	movff	??_frexp,postinc2
  1994  0017B6  C014  FFDD         	movff	??_frexp+1,postdec2
  1995  0017BA  BE0F               	btfsc	(frexp@value+2)^0,7,c
  1996  0017BC  EFE2  F00B         	goto	i2u223_41
  1997  0017C0  EFE6  F00B         	goto	i2u223_40
  1998  0017C4                     i2u223_41:
  1999  0017C4  6A13               	clrf	??_frexp^0,c
  2000  0017C6  2A13               	incf	??_frexp^0,f,c
  2001  0017C8  EFE7  F00B         	goto	i2u223_48
  2002  0017CC                     i2u223_40:
  2003  0017CC  6A13               	clrf	??_frexp^0,c
  2004  0017CE                     i2u223_48:
  2005  0017CE  5013               	movf	??_frexp^0,w,c
  2006  0017D0  C011  FFD9         	movff	frexp@eptr,fsr2l
  2007  0017D4  C012  FFDA         	movff	frexp@eptr+1,fsr2h
  2008  0017D8  12DE               	iorwf	postinc2,f,c
  2009  0017DA  0E00               	movlw	0
  2010  0017DC  12DD               	iorwf	postdec2,f,c
  2011  0017DE  C011  FFD9         	movff	frexp@eptr,fsr2l
  2012  0017E2  C012  FFDA         	movff	frexp@eptr+1,fsr2h
  2013  0017E6  0E82               	movlw	130
  2014  0017E8  26DE               	addwf	postinc2,f,c
  2015  0017EA  0EFF               	movlw	255
  2016  0017EC  22DD               	addwfc	postdec2,f,c
  2017  0017EE  5010               	movf	(frexp@value+3)^0,w,c
  2018  0017F0  0B80               	andlw	-128
  2019  0017F2  093F               	iorlw	63
  2020  0017F4  6E10               	movwf	(frexp@value+3)^0,c
  2021  0017F6  9E0F               	bcf	(frexp@value+2)^0,7,c
  2022  0017F8                     i2l926:
  2023  0017F8  0012               	return		;funcret
  2024  0017FA                     __end_of_frexp:
  2025                           	callstack 0
  2026                           
  2027 ;; *************** function ___fleq *****************
  2028 ;; Defined at:
  2029 ;;		line 4 in file "C:\Program Files\Microchip\xc8\v2.32\pic\sources\c90\common\fleq.c"
  2030 ;; Parameters:    Size  Location     Type
  2031 ;;  ff1             4    0[COMRAM] PTR int 
  2032 ;;  ff2             4    4[COMRAM] PTR int 
  2033 ;; Auto vars:     Size  Location     Type
  2034 ;;		None
  2035 ;; Return value:  Size  Location     Type
  2036 ;;		None               void
  2037 ;; Registers used:
  2038 ;;		wreg, status,2, status,0
  2039 ;; Tracked objects:
  2040 ;;		On entry : 0/0
  2041 ;;		On exit  : 0/0
  2042 ;;		Unchanged: 0/0
  2043 ;; Data sizes:     COMRAM   BANK0   BANK1   BANK2
  2044 ;;      Params:         8       0       0       0
  2045 ;;      Locals:         0       0       0       0
  2046 ;;      Temps:          4       0       0       0
  2047 ;;      Totals:        12       0       0       0
  2048 ;;Total ram usage:       12 bytes
  2049 ;; Hardware stack levels used: 1
  2050 ;; This function calls:
  2051 ;;		Nothing
  2052 ;; This function is called by:
  2053 ;;		_frexp
  2054 ;; This function uses a non-reentrant model
  2055 ;;
  2056                           
  2057                           	psect	text9
  2058  0016AC                     __ptext9:
  2059                           	callstack 0
  2060  0016AC                     ___fleq:
  2061                           	callstack 25
  2062  0016AC  0E00               	movlw	0
  2063  0016AE  1401               	andwf	___fleq@ff1^0,w,c
  2064  0016B0  6E09               	movwf	??___fleq^0,c
  2065  0016B2  0E00               	movlw	0
  2066  0016B4  1402               	andwf	(___fleq@ff1+1)^0,w,c
  2067  0016B6  6E0A               	movwf	(??___fleq+1)^0,c
  2068  0016B8  0E80               	movlw	128
  2069  0016BA  1403               	andwf	(___fleq@ff1+2)^0,w,c
  2070  0016BC  6E0B               	movwf	(??___fleq+2)^0,c
  2071  0016BE  0E7F               	movlw	127
  2072  0016C0  1404               	andwf	(___fleq@ff1+3)^0,w,c
  2073  0016C2  6E0C               	movwf	(??___fleq+3)^0,c
  2074  0016C4  5009               	movf	??___fleq^0,w,c
  2075  0016C6  100A               	iorwf	(??___fleq+1)^0,w,c
  2076  0016C8  100B               	iorwf	(??___fleq+2)^0,w,c
  2077  0016CA  100C               	iorwf	(??___fleq+3)^0,w,c
  2078  0016CC  A4D8               	btfss	status,2,c
  2079  0016CE  EF6B  F00B         	goto	i2u163_41
  2080  0016D2  EF6D  F00B         	goto	i2u163_40
  2081  0016D6                     i2u163_41:
  2082  0016D6  EF75  F00B         	goto	i2l1966
  2083  0016DA                     i2u163_40:
  2084  0016DA  0E00               	movlw	0
  2085  0016DC  6E01               	movwf	___fleq@ff1^0,c
  2086  0016DE  0E00               	movlw	0
  2087  0016E0  6E02               	movwf	(___fleq@ff1+1)^0,c
  2088  0016E2  0E00               	movlw	0
  2089  0016E4  6E03               	movwf	(___fleq@ff1+2)^0,c
  2090  0016E6  0E00               	movlw	0
  2091  0016E8  6E04               	movwf	(___fleq@ff1+3)^0,c
  2092  0016EA                     i2l1966:
  2093  0016EA  0E00               	movlw	0
  2094  0016EC  1405               	andwf	___fleq@ff2^0,w,c
  2095  0016EE  6E09               	movwf	??___fleq^0,c
  2096  0016F0  0E00               	movlw	0
  2097  0016F2  1406               	andwf	(___fleq@ff2+1)^0,w,c
  2098  0016F4  6E0A               	movwf	(??___fleq+1)^0,c
  2099  0016F6  0E80               	movlw	128
  2100  0016F8  1407               	andwf	(___fleq@ff2+2)^0,w,c
  2101  0016FA  6E0B               	movwf	(??___fleq+2)^0,c
  2102  0016FC  0E7F               	movlw	127
  2103  0016FE  1408               	andwf	(___fleq@ff2+3)^0,w,c
  2104  001700  6E0C               	movwf	(??___fleq+3)^0,c
  2105  001702  5009               	movf	??___fleq^0,w,c
  2106  001704  100A               	iorwf	(??___fleq+1)^0,w,c
  2107  001706  100B               	iorwf	(??___fleq+2)^0,w,c
  2108  001708  100C               	iorwf	(??___fleq+3)^0,w,c
  2109  00170A  A4D8               	btfss	status,2,c
  2110  00170C  EF8A  F00B         	goto	i2u164_41
  2111  001710  EF8C  F00B         	goto	i2u164_40
  2112  001714                     i2u164_41:
  2113  001714  EF94  F00B         	goto	i2l1970
  2114  001718                     i2u164_40:
  2115  001718  0E00               	movlw	0
  2116  00171A  6E05               	movwf	___fleq@ff2^0,c
  2117  00171C  0E00               	movlw	0
  2118  00171E  6E06               	movwf	(___fleq@ff2+1)^0,c
  2119  001720  0E00               	movlw	0
  2120  001722  6E07               	movwf	(___fleq@ff2+2)^0,c
  2121  001724  0E00               	movlw	0
  2122  001726  6E08               	movwf	(___fleq@ff2+3)^0,c
  2123  001728                     i2l1970:
  2124  001728  5005               	movf	___fleq@ff2^0,w,c
  2125  00172A  1801               	xorwf	___fleq@ff1^0,w,c
  2126  00172C  E10F               	bnz	i2u165_40
  2127  00172E  5006               	movf	(___fleq@ff2+1)^0,w,c
  2128  001730  1802               	xorwf	(___fleq@ff1+1)^0,w,c
  2129  001732  E10C               	bnz	i2u165_40
  2130  001734  5007               	movf	(___fleq@ff2+2)^0,w,c
  2131  001736  1803               	xorwf	(___fleq@ff1+2)^0,w,c
  2132  001738  E109               	bnz	i2u165_40
  2133  00173A  5008               	movf	(___fleq@ff2+3)^0,w,c
  2134  00173C  1804               	xorwf	(___fleq@ff1+3)^0,w,c
  2135  00173E  B4D8               	btfsc	status,2,c
  2136  001740  EFA4  F00B         	goto	i2u165_41
  2137  001744  EFA6  F00B         	goto	i2u165_40
  2138  001748                     i2u165_41:
  2139  001748  EFA9  F00B         	goto	i2l1974
  2140  00174C                     i2u165_40:
  2141  00174C  90D8               	bcf	status,0,c
  2142  00174E  EFAA  F00B         	goto	i2l480
  2143  001752                     i2l1974:
  2144  001752  80D8               	bsf	status,0,c
  2145  001754                     i2l480:
  2146  001754  0012               	return		;funcret
  2147  001756                     __end_of___fleq:
  2148                           	callstack 0
  2149                           
  2150 ;; *************** function ___xxtofl *****************
  2151 ;; Defined at:
  2152 ;;		line 10 in file "C:\Program Files\Microchip\xc8\v2.32\pic\sources\c90\common\xxtofl.c"
  2153 ;; Parameters:    Size  Location     Type
  2154 ;;  sign            1    wreg     unsigned char 
  2155 ;;  val             4    4[COMRAM] long 
  2156 ;; Auto vars:     Size  Location     Type
  2157 ;;  sign            1   12[COMRAM] unsigned char 
  2158 ;;  arg             4   14[COMRAM] unsigned long 
  2159 ;;  exp             1   13[COMRAM] unsigned char 
  2160 ;; Return value:  Size  Location     Type
  2161 ;;                  4    4[COMRAM] unsigned char 
  2162 ;; Registers used:
  2163 ;;		wreg, status,2, status,0
  2164 ;; Tracked objects:
  2165 ;;		On entry : 0/0
  2166 ;;		On exit  : 0/0
  2167 ;;		Unchanged: 0/0
  2168 ;; Data sizes:     COMRAM   BANK0   BANK1   BANK2
  2169 ;;      Params:         4       0       0       0
  2170 ;;      Locals:         6       0       0       0
  2171 ;;      Temps:          4       0       0       0
  2172 ;;      Totals:        14       0       0       0
  2173 ;;Total ram usage:       14 bytes
  2174 ;; Hardware stack levels used: 1
  2175 ;; This function calls:
  2176 ;;		Nothing
  2177 ;; This function is called by:
  2178 ;;		_ISR
  2179 ;;		_trunc
  2180 ;; This function uses a non-reentrant model
  2181 ;;
  2182                           
  2183                           	psect	text10
  2184  001226                     __ptext10:
  2185                           	callstack 0
  2186  001226                     ___xxtofl:
  2187                           	callstack 26
  2188                           
  2189                           ;incstack = 0
  2190                           ;___xxtofl@sign stored from wreg
  2191  001226  6E0D               	movwf	___xxtofl@sign^0,c
  2192  001228  500D               	movf	___xxtofl@sign^0,w,c
  2193  00122A  B4D8               	btfsc	status,2,c
  2194  00122C  EF1A  F009         	goto	i2u212_41
  2195  001230  EF1C  F009         	goto	i2u212_40
  2196  001234                     i2u212_41:
  2197  001234  EF3E  F009         	goto	i2l868
  2198  001238                     i2u212_40:
  2199  001238  BE08               	btfsc	(___xxtofl@val+3)^0,7,c
  2200  00123A  EF23  F009         	goto	i2u213_40
  2201  00123E  EF21  F009         	goto	i2u213_41
  2202  001242                     i2u213_41:
  2203  001242  EF3E  F009         	goto	i2l868
  2204  001246                     i2u213_40:
  2205  001246  C005  F009         	movff	___xxtofl@val,??___xxtofl
  2206  00124A  C006  F00A         	movff	___xxtofl@val+1,??___xxtofl+1
  2207  00124E  C007  F00B         	movff	___xxtofl@val+2,??___xxtofl+2
  2208  001252  C008  F00C         	movff	___xxtofl@val+3,??___xxtofl+3
  2209  001256  1E09               	comf	??___xxtofl^0,f,c
  2210  001258  1E0A               	comf	(??___xxtofl+1)^0,f,c
  2211  00125A  1E0B               	comf	(??___xxtofl+2)^0,f,c
  2212  00125C  1E0C               	comf	(??___xxtofl+3)^0,f,c
  2213  00125E  2A09               	incf	??___xxtofl^0,f,c
  2214  001260  0E00               	movlw	0
  2215  001262  220A               	addwfc	(??___xxtofl+1)^0,f,c
  2216  001264  220B               	addwfc	(??___xxtofl+2)^0,f,c
  2217  001266  220C               	addwfc	(??___xxtofl+3)^0,f,c
  2218  001268  C009  F00F         	movff	??___xxtofl,___xxtofl@arg
  2219  00126C  C00A  F010         	movff	??___xxtofl+1,___xxtofl@arg+1
  2220  001270  C00B  F011         	movff	??___xxtofl+2,___xxtofl@arg+2
  2221  001274  C00C  F012         	movff	??___xxtofl+3,___xxtofl@arg+3
  2222  001278  EF46  F009         	goto	i2l2230
  2223  00127C                     i2l868:
  2224  00127C  C005  F00F         	movff	___xxtofl@val,___xxtofl@arg
  2225  001280  C006  F010         	movff	___xxtofl@val+1,___xxtofl@arg+1
  2226  001284  C007  F011         	movff	___xxtofl@val+2,___xxtofl@arg+2
  2227  001288  C008  F012         	movff	___xxtofl@val+3,___xxtofl@arg+3
  2228  00128C                     i2l2230:
  2229  00128C  5005               	movf	___xxtofl@val^0,w,c
  2230  00128E  1006               	iorwf	(___xxtofl@val+1)^0,w,c
  2231  001290  1007               	iorwf	(___xxtofl@val+2)^0,w,c
  2232  001292  1008               	iorwf	(___xxtofl@val+3)^0,w,c
  2233  001294  A4D8               	btfss	status,2,c
  2234  001296  EF4F  F009         	goto	i2u214_41
  2235  00129A  EF51  F009         	goto	i2u214_40
  2236  00129E                     i2u214_41:
  2237  00129E  EF5B  F009         	goto	i2l2236
  2238  0012A2                     i2u214_40:
  2239  0012A2  0E00               	movlw	0
  2240  0012A4  6E05               	movwf	?___xxtofl^0,c
  2241  0012A6  0E00               	movlw	0
  2242  0012A8  6E06               	movwf	(?___xxtofl+1)^0,c
  2243  0012AA  0E00               	movlw	0
  2244  0012AC  6E07               	movwf	(?___xxtofl+2)^0,c
  2245  0012AE  0E00               	movlw	0
  2246  0012B0  6E08               	movwf	(?___xxtofl+3)^0,c
  2247  0012B2  EFEC  F009         	goto	i2l871
  2248  0012B6                     i2l2236:
  2249  0012B6  0E96               	movlw	150
  2250  0012B8  6E0E               	movwf	___xxtofl@exp^0,c
  2251  0012BA  EF65  F009         	goto	i2l2240
  2252  0012BE                     i2l2238:
  2253  0012BE  2A0E               	incf	___xxtofl@exp^0,f,c
  2254  0012C0  90D8               	bcf	status,0,c
  2255  0012C2  3212               	rrcf	(___xxtofl@arg+3)^0,f,c
  2256  0012C4  3211               	rrcf	(___xxtofl@arg+2)^0,f,c
  2257  0012C6  3210               	rrcf	(___xxtofl@arg+1)^0,f,c
  2258  0012C8  320F               	rrcf	___xxtofl@arg^0,f,c
  2259  0012CA                     i2l2240:
  2260  0012CA  0E00               	movlw	0
  2261  0012CC  140F               	andwf	___xxtofl@arg^0,w,c
  2262  0012CE  6E09               	movwf	??___xxtofl^0,c
  2263  0012D0  0E00               	movlw	0
  2264  0012D2  1410               	andwf	(___xxtofl@arg+1)^0,w,c
  2265  0012D4  6E0A               	movwf	(??___xxtofl+1)^0,c
  2266  0012D6  0E00               	movlw	0
  2267  0012D8  1411               	andwf	(___xxtofl@arg+2)^0,w,c
  2268  0012DA  6E0B               	movwf	(??___xxtofl+2)^0,c
  2269  0012DC  0EFE               	movlw	254
  2270  0012DE  1412               	andwf	(___xxtofl@arg+3)^0,w,c
  2271  0012E0  6E0C               	movwf	(??___xxtofl+3)^0,c
  2272  0012E2  5009               	movf	??___xxtofl^0,w,c
  2273  0012E4  100A               	iorwf	(??___xxtofl+1)^0,w,c
  2274  0012E6  100B               	iorwf	(??___xxtofl+2)^0,w,c
  2275  0012E8  100C               	iorwf	(??___xxtofl+3)^0,w,c
  2276  0012EA  A4D8               	btfss	status,2,c
  2277  0012EC  EF7A  F009         	goto	i2u215_41
  2278  0012F0  EF7C  F009         	goto	i2u215_40
  2279  0012F4                     i2u215_41:
  2280  0012F4  EF5F  F009         	goto	i2l2238
  2281  0012F8                     i2u215_40:
  2282  0012F8  EF8A  F009         	goto	i2l875
  2283  0012FC                     i2l2242:
  2284  0012FC  2A0E               	incf	___xxtofl@exp^0,f,c
  2285  0012FE  0E01               	movlw	1
  2286  001300  260F               	addwf	___xxtofl@arg^0,f,c
  2287  001302  0E00               	movlw	0
  2288  001304  2210               	addwfc	(___xxtofl@arg+1)^0,f,c
  2289  001306  2211               	addwfc	(___xxtofl@arg+2)^0,f,c
  2290  001308  2212               	addwfc	(___xxtofl@arg+3)^0,f,c
  2291  00130A  90D8               	bcf	status,0,c
  2292  00130C  3212               	rrcf	(___xxtofl@arg+3)^0,f,c
  2293  00130E  3211               	rrcf	(___xxtofl@arg+2)^0,f,c
  2294  001310  3210               	rrcf	(___xxtofl@arg+1)^0,f,c
  2295  001312  320F               	rrcf	___xxtofl@arg^0,f,c
  2296  001314                     i2l875:
  2297  001314  0E00               	movlw	0
  2298  001316  140F               	andwf	___xxtofl@arg^0,w,c
  2299  001318  6E09               	movwf	??___xxtofl^0,c
  2300  00131A  0E00               	movlw	0
  2301  00131C  1410               	andwf	(___xxtofl@arg+1)^0,w,c
  2302  00131E  6E0A               	movwf	(??___xxtofl+1)^0,c
  2303  001320  0E00               	movlw	0
  2304  001322  1411               	andwf	(___xxtofl@arg+2)^0,w,c
  2305  001324  6E0B               	movwf	(??___xxtofl+2)^0,c
  2306  001326  0EFF               	movlw	255
  2307  001328  1412               	andwf	(___xxtofl@arg+3)^0,w,c
  2308  00132A  6E0C               	movwf	(??___xxtofl+3)^0,c
  2309  00132C  5009               	movf	??___xxtofl^0,w,c
  2310  00132E  100A               	iorwf	(??___xxtofl+1)^0,w,c
  2311  001330  100B               	iorwf	(??___xxtofl+2)^0,w,c
  2312  001332  100C               	iorwf	(??___xxtofl+3)^0,w,c
  2313  001334  A4D8               	btfss	status,2,c
  2314  001336  EF9F  F009         	goto	i2u216_41
  2315  00133A  EFA1  F009         	goto	i2u216_40
  2316  00133E                     i2u216_41:
  2317  00133E  EF7E  F009         	goto	i2l2242
  2318  001342                     i2u216_40:
  2319  001342  EFA9  F009         	goto	i2l2250
  2320  001346                     i2l2248:
  2321  001346  060E               	decf	___xxtofl@exp^0,f,c
  2322  001348  90D8               	bcf	status,0,c
  2323  00134A  360F               	rlcf	___xxtofl@arg^0,f,c
  2324  00134C  3610               	rlcf	(___xxtofl@arg+1)^0,f,c
  2325  00134E  3611               	rlcf	(___xxtofl@arg+2)^0,f,c
  2326  001350  3612               	rlcf	(___xxtofl@arg+3)^0,f,c
  2327  001352                     i2l2250:
  2328  001352  BE11               	btfsc	(___xxtofl@arg+2)^0,7,c
  2329  001354  EFAE  F009         	goto	i2u217_41
  2330  001358  EFB0  F009         	goto	i2u217_40
  2331  00135C                     i2u217_41:
  2332  00135C  EFB8  F009         	goto	i2l882
  2333  001360                     i2u217_40:
  2334  001360  0E02               	movlw	2
  2335  001362  600E               	cpfslt	___xxtofl@exp^0,c
  2336  001364  EFB6  F009         	goto	i2u218_41
  2337  001368  EFB8  F009         	goto	i2u218_40
  2338  00136C                     i2u218_41:
  2339  00136C  EFA3  F009         	goto	i2l2248
  2340  001370                     i2u218_40:
  2341  001370                     i2l882:
  2342  001370  B00E               	btfsc	___xxtofl@exp^0,0,c
  2343  001372  EFBD  F009         	goto	i2u219_41
  2344  001376  EFBF  F009         	goto	i2u219_40
  2345  00137A                     i2u219_41:
  2346  00137A  EFC0  F009         	goto	i2l2256
  2347  00137E                     i2u219_40:
  2348  00137E  9E11               	bcf	(___xxtofl@arg+2)^0,7,c
  2349  001380                     i2l2256:
  2350  001380  90D8               	bcf	status,0,c
  2351  001382  320E               	rrcf	___xxtofl@exp^0,f,c
  2352  001384  C00E  F009         	movff	___xxtofl@exp,??___xxtofl
  2353  001388  6A0A               	clrf	(??___xxtofl+1)^0,c
  2354  00138A  6A0B               	clrf	(??___xxtofl+2)^0,c
  2355  00138C  6A0C               	clrf	(??___xxtofl+3)^0,c
  2356  00138E  C009  F00C         	movff	??___xxtofl,??___xxtofl+3
  2357  001392  6A0B               	clrf	(??___xxtofl+2)^0,c
  2358  001394  6A0A               	clrf	(??___xxtofl+1)^0,c
  2359  001396  6A09               	clrf	??___xxtofl^0,c
  2360  001398  5009               	movf	??___xxtofl^0,w,c
  2361  00139A  120F               	iorwf	___xxtofl@arg^0,f,c
  2362  00139C  500A               	movf	(??___xxtofl+1)^0,w,c
  2363  00139E  1210               	iorwf	(___xxtofl@arg+1)^0,f,c
  2364  0013A0  500B               	movf	(??___xxtofl+2)^0,w,c
  2365  0013A2  1211               	iorwf	(___xxtofl@arg+2)^0,f,c
  2366  0013A4  500C               	movf	(??___xxtofl+3)^0,w,c
  2367  0013A6  1212               	iorwf	(___xxtofl@arg+3)^0,f,c
  2368  0013A8  500D               	movf	___xxtofl@sign^0,w,c
  2369  0013AA  B4D8               	btfsc	status,2,c
  2370  0013AC  EFDA  F009         	goto	i2u220_41
  2371  0013B0  EFDC  F009         	goto	i2u220_40
  2372  0013B4                     i2u220_41:
  2373  0013B4  EFE4  F009         	goto	i2l2266
  2374  0013B8                     i2u220_40:
  2375  0013B8  BE08               	btfsc	(___xxtofl@val+3)^0,7,c
  2376  0013BA  EFE3  F009         	goto	i2u221_40
  2377  0013BE  EFE1  F009         	goto	i2u221_41
  2378  0013C2                     i2u221_41:
  2379  0013C2  EFE4  F009         	goto	i2l2266
  2380  0013C6                     i2u221_40:
  2381  0013C6  8E12               	bsf	(___xxtofl@arg+3)^0,7,c
  2382  0013C8                     i2l2266:
  2383  0013C8  C00F  F005         	movff	___xxtofl@arg,?___xxtofl
  2384  0013CC  C010  F006         	movff	___xxtofl@arg+1,?___xxtofl+1
  2385  0013D0  C011  F007         	movff	___xxtofl@arg+2,?___xxtofl+2
  2386  0013D4  C012  F008         	movff	___xxtofl@arg+3,?___xxtofl+3
  2387  0013D8                     i2l871:
  2388  0013D8  0012               	return		;funcret
  2389  0013DA                     __end_of___xxtofl:
  2390                           	callstack 0
  2391                           
  2392 ;; *************** function ___fltol *****************
  2393 ;; Defined at:
  2394 ;;		line 43 in file "C:\Program Files\Microchip\xc8\v2.32\pic\sources\c90\common\fltol.c"
  2395 ;; Parameters:    Size  Location     Type
  2396 ;;  f1              4   68[COMRAM] unsigned char 
  2397 ;; Auto vars:     Size  Location     Type
  2398 ;;  exp1            1   77[COMRAM] unsigned char 
  2399 ;;  sign1           1   76[COMRAM] unsigned char 
  2400 ;; Return value:  Size  Location     Type
  2401 ;;                  4   68[COMRAM] long 
  2402 ;; Registers used:
  2403 ;;		wreg, status,2, status,0
  2404 ;; Tracked objects:
  2405 ;;		On entry : 0/0
  2406 ;;		On exit  : 0/0
  2407 ;;		Unchanged: 0/0
  2408 ;; Data sizes:     COMRAM   BANK0   BANK1   BANK2
  2409 ;;      Params:         4       0       0       0
  2410 ;;      Locals:         2       0       0       0
  2411 ;;      Temps:          4       0       0       0
  2412 ;;      Totals:        10       0       0       0
  2413 ;;Total ram usage:       10 bytes
  2414 ;; Hardware stack levels used: 1
  2415 ;; This function calls:
  2416 ;;		Nothing
  2417 ;; This function is called by:
  2418 ;;		_ISR
  2419 ;;		_trunc
  2420 ;; This function uses a non-reentrant model
  2421 ;;
  2422                           
  2423                           	psect	text11
  2424  0014F2                     __ptext11:
  2425                           	callstack 0
  2426  0014F2                     ___fltol:
  2427                           	callstack 26
  2428  0014F2  3447               	rlcf	(___fltol@f1+2)^0,w,c
  2429  0014F4  3448               	rlcf	(___fltol@f1+3)^0,w,c
  2430  0014F6  6E4E               	movwf	___fltol@exp1^0,c
  2431  0014F8  504E               	movf	___fltol@exp1^0,w,c
  2432  0014FA  A4D8               	btfss	status,2,c
  2433  0014FC  EF82  F00A         	goto	i2u205_41
  2434  001500  EF84  F00A         	goto	i2u205_40
  2435  001504                     i2u205_41:
  2436  001504  EF8E  F00A         	goto	i2l2186
  2437  001508                     i2u205_40:
  2438  001508                     i2l2182:
  2439  001508  0E00               	movlw	0
  2440  00150A  6E45               	movwf	?___fltol^0,c
  2441  00150C  0E00               	movlw	0
  2442  00150E  6E46               	movwf	(?___fltol+1)^0,c
  2443  001510  0E00               	movlw	0
  2444  001512  6E47               	movwf	(?___fltol+2)^0,c
  2445  001514  0E00               	movlw	0
  2446  001516  6E48               	movwf	(?___fltol+3)^0,c
  2447  001518  EFFB  F00A         	goto	i2l514
  2448  00151C                     i2l2186:
  2449  00151C  C045  F049         	movff	___fltol@f1,??___fltol
  2450  001520  C046  F04A         	movff	___fltol@f1+1,??___fltol+1
  2451  001524  C047  F04B         	movff	___fltol@f1+2,??___fltol+2
  2452  001528  C048  F04C         	movff	___fltol@f1+3,??___fltol+3
  2453  00152C  0E20               	movlw	32
  2454  00152E  EF9E  F00A         	goto	i2u206_40
  2455  001532                     i2u206_45:
  2456  001532  90D8               	bcf	status,0,c
  2457  001534  324C               	rrcf	(??___fltol+3)^0,f,c
  2458  001536  324B               	rrcf	(??___fltol+2)^0,f,c
  2459  001538  324A               	rrcf	(??___fltol+1)^0,f,c
  2460  00153A  3249               	rrcf	??___fltol^0,f,c
  2461  00153C                     i2u206_40:
  2462  00153C  2EE8               	decfsz	wreg,f,c
  2463  00153E  EF99  F00A         	goto	i2u206_45
  2464  001542  5049               	movf	??___fltol^0,w,c
  2465  001544  6E4D               	movwf	___fltol@sign1^0,c
  2466  001546  8E47               	bsf	(___fltol@f1+2)^0,7,c
  2467  001548  0EFF               	movlw	255
  2468  00154A  1645               	andwf	___fltol@f1^0,f,c
  2469  00154C  0EFF               	movlw	255
  2470  00154E  1646               	andwf	(___fltol@f1+1)^0,f,c
  2471  001550  0EFF               	movlw	255
  2472  001552  1647               	andwf	(___fltol@f1+2)^0,f,c
  2473  001554  0E00               	movlw	0
  2474  001556  1648               	andwf	(___fltol@f1+3)^0,f,c
  2475  001558  0E96               	movlw	150
  2476  00155A  5E4E               	subwf	___fltol@exp1^0,f,c
  2477  00155C  BE4E               	btfsc	___fltol@exp1^0,7,c
  2478  00155E  EFB5  F00A         	goto	i2u207_40
  2479  001562  EFB3  F00A         	goto	i2u207_41
  2480  001566                     i2u207_41:
  2481  001566  EFCB  F00A         	goto	i2l2206
  2482  00156A                     i2u207_40:
  2483  00156A  504E               	movf	___fltol@exp1^0,w,c
  2484  00156C  0A80               	xorlw	128
  2485  00156E  0F97               	addlw	151
  2486  001570  B0D8               	btfsc	status,0,c
  2487  001572  EFBD  F00A         	goto	i2u208_41
  2488  001576  EFBF  F00A         	goto	i2u208_40
  2489  00157A                     i2u208_41:
  2490  00157A  EFC1  F00A         	goto	i2l2202
  2491  00157E                     i2u208_40:
  2492  00157E  EF84  F00A         	goto	i2l2182
  2493  001582                     i2l2202:
  2494  001582  90D8               	bcf	status,0,c
  2495  001584  3248               	rrcf	(___fltol@f1+3)^0,f,c
  2496  001586  3247               	rrcf	(___fltol@f1+2)^0,f,c
  2497  001588  3246               	rrcf	(___fltol@f1+1)^0,f,c
  2498  00158A  3245               	rrcf	___fltol@f1^0,f,c
  2499  00158C  3E4E               	incfsz	___fltol@exp1^0,f,c
  2500  00158E  EFC1  F00A         	goto	i2l2202
  2501  001592  EFE3  F00A         	goto	i2l2216
  2502  001596                     i2l2206:
  2503  001596  0E1F               	movlw	31
  2504  001598  644E               	cpfsgt	___fltol@exp1^0,c
  2505  00159A  EFD1  F00A         	goto	i2u209_41
  2506  00159E  EFD3  F00A         	goto	i2u209_40
  2507  0015A2                     i2u209_41:
  2508  0015A2  EFDB  F00A         	goto	i2l2214
  2509  0015A6                     i2u209_40:
  2510  0015A6  EF84  F00A         	goto	i2l2182
  2511  0015AA                     i2l2212:
  2512  0015AA  90D8               	bcf	status,0,c
  2513  0015AC  3645               	rlcf	___fltol@f1^0,f,c
  2514  0015AE  3646               	rlcf	(___fltol@f1+1)^0,f,c
  2515  0015B0  3647               	rlcf	(___fltol@f1+2)^0,f,c
  2516  0015B2  3648               	rlcf	(___fltol@f1+3)^0,f,c
  2517  0015B4  064E               	decf	___fltol@exp1^0,f,c
  2518  0015B6                     i2l2214:
  2519  0015B6  504E               	movf	___fltol@exp1^0,w,c
  2520  0015B8  A4D8               	btfss	status,2,c
  2521  0015BA  EFE1  F00A         	goto	i2u210_41
  2522  0015BE  EFE3  F00A         	goto	i2u210_40
  2523  0015C2                     i2u210_41:
  2524  0015C2  EFD5  F00A         	goto	i2l2212
  2525  0015C6                     i2u210_40:
  2526  0015C6                     i2l2216:
  2527  0015C6  504D               	movf	___fltol@sign1^0,w,c
  2528  0015C8  B4D8               	btfsc	status,2,c
  2529  0015CA  EFE9  F00A         	goto	i2u211_41
  2530  0015CE  EFEB  F00A         	goto	i2u211_40
  2531  0015D2                     i2u211_41:
  2532  0015D2  EFF3  F00A         	goto	i2l2220
  2533  0015D6                     i2u211_40:
  2534  0015D6  1E48               	comf	(___fltol@f1+3)^0,f,c
  2535  0015D8  1E47               	comf	(___fltol@f1+2)^0,f,c
  2536  0015DA  1E46               	comf	(___fltol@f1+1)^0,f,c
  2537  0015DC  6C45               	negf	___fltol@f1^0,c
  2538  0015DE  0E00               	movlw	0
  2539  0015E0  2246               	addwfc	(___fltol@f1+1)^0,f,c
  2540  0015E2  2247               	addwfc	(___fltol@f1+2)^0,f,c
  2541  0015E4  2248               	addwfc	(___fltol@f1+3)^0,f,c
  2542  0015E6                     i2l2220:
  2543  0015E6  C045  F045         	movff	___fltol@f1,?___fltol
  2544  0015EA  C046  F046         	movff	___fltol@f1+1,?___fltol+1
  2545  0015EE  C047  F047         	movff	___fltol@f1+2,?___fltol+2
  2546  0015F2  C048  F048         	movff	___fltol@f1+3,?___fltol+3
  2547  0015F6                     i2l514:
  2548  0015F6  0012               	return		;funcret
  2549  0015F8                     __end_of___fltol:
  2550                           	callstack 0
  2551                           
  2552 ;; *************** function ___flsub *****************
  2553 ;; Defined at:
  2554 ;;		line 245 in file "C:\Program Files\Microchip\xc8\v2.32\pic\sources\c90\common\sprcadd.c"
  2555 ;; Parameters:    Size  Location     Type
  2556 ;;  b               4    0[BANK0 ] long 
  2557 ;;  a               4    4[BANK0 ] long 
  2558 ;; Auto vars:     Size  Location     Type
  2559 ;;		None
  2560 ;; Return value:  Size  Location     Type
  2561 ;;                  4    0[BANK0 ] long 
  2562 ;; Registers used:
  2563 ;;		wreg, status,2, status,0, cstack
  2564 ;; Tracked objects:
  2565 ;;		On entry : 0/0
  2566 ;;		On exit  : 0/0
  2567 ;;		Unchanged: 0/0
  2568 ;; Data sizes:     COMRAM   BANK0   BANK1   BANK2
  2569 ;;      Params:         0       8       0       0
  2570 ;;      Locals:         0       0       0       0
  2571 ;;      Temps:          0       0       0       0
  2572 ;;      Totals:         0       8       0       0
  2573 ;;Total ram usage:        8 bytes
  2574 ;; Hardware stack levels used: 1
  2575 ;; Hardware stack levels required when called: 1
  2576 ;; This function calls:
  2577 ;;		___fladd
  2578 ;; This function is called by:
  2579 ;;		_round
  2580 ;; This function uses a non-reentrant model
  2581 ;;
  2582                           
  2583                           	psect	text12
  2584  0019D2                     __ptext12:
  2585                           	callstack 0
  2586  0019D2                     ___flsub:
  2587                           	callstack 26
  2588  0019D2  0E00               	movlw	0
  2589  0019D4  0100               	movlb	0	; () banked
  2590  0019D6  1B89               	xorwf	___flsub@a& (0+255),f,b
  2591  0019D8  0E00               	movlw	0
  2592  0019DA  1B8A               	xorwf	(___flsub@a+1)& (0+255),f,b
  2593  0019DC  0E00               	movlw	0
  2594  0019DE  1B8B               	xorwf	(___flsub@a+2)& (0+255),f,b
  2595  0019E0  0E80               	movlw	128
  2596  0019E2  1B8C               	xorwf	(___flsub@a+3)& (0+255),f,b
  2597  0019E4                     
  2598                           ; BSR set to: 0
  2599  0019E4  C085  F001         	movff	___flsub@b,___fladd@b
  2600  0019E8  C086  F002         	movff	___flsub@b+1,___fladd@b+1
  2601  0019EC  C087  F003         	movff	___flsub@b+2,___fladd@b+2
  2602  0019F0  C088  F004         	movff	___flsub@b+3,___fladd@b+3
  2603  0019F4  C089  F005         	movff	___flsub@a,___fladd@a
  2604  0019F8  C08A  F006         	movff	___flsub@a+1,___fladd@a+1
  2605  0019FC  C08B  F007         	movff	___flsub@a+2,___fladd@a+2
  2606  001A00  C08C  F008         	movff	___flsub@a+3,___fladd@a+3
  2607  001A04  ECD1  F002         	call	___fladd	;wreg free
  2608  001A08  C001  F085         	movff	?___fladd,?___flsub
  2609  001A0C  C002  F086         	movff	?___fladd+1,?___flsub+1
  2610  001A10  C003  F087         	movff	?___fladd+2,?___flsub+2
  2611  001A14  C004  F088         	movff	?___fladd+3,?___flsub+3
  2612  001A18  0012               	return		;funcret
  2613  001A1A                     __end_of___flsub:
  2614                           	callstack 0
  2615                           
  2616 ;; *************** function ___fladd *****************
  2617 ;; Defined at:
  2618 ;;		line 10 in file "C:\Program Files\Microchip\xc8\v2.32\pic\sources\c90\common\sprcadd.c"
  2619 ;; Parameters:    Size  Location     Type
  2620 ;;  b               4    0[COMRAM] long 
  2621 ;;  a               4    4[COMRAM] long 
  2622 ;; Auto vars:     Size  Location     Type
  2623 ;;  grs             1   15[COMRAM] unsigned char 
  2624 ;;  bexp            1   14[COMRAM] unsigned char 
  2625 ;;  aexp            1   13[COMRAM] unsigned char 
  2626 ;;  signs           1   12[COMRAM] unsigned char 
  2627 ;; Return value:  Size  Location     Type
  2628 ;;                  4    0[COMRAM] unsigned char 
  2629 ;; Registers used:
  2630 ;;		wreg, status,2, status,0
  2631 ;; Tracked objects:
  2632 ;;		On entry : 0/0
  2633 ;;		On exit  : 0/0
  2634 ;;		Unchanged: 0/0
  2635 ;; Data sizes:     COMRAM   BANK0   BANK1   BANK2
  2636 ;;      Params:         8       0       0       0
  2637 ;;      Locals:         4       0       0       0
  2638 ;;      Temps:          4       0       0       0
  2639 ;;      Totals:        16       0       0       0
  2640 ;;Total ram usage:       16 bytes
  2641 ;; Hardware stack levels used: 1
  2642 ;; This function calls:
  2643 ;;		Nothing
  2644 ;; This function is called by:
  2645 ;;		___flsub
  2646 ;;		_round
  2647 ;; This function uses a non-reentrant model
  2648 ;;
  2649                           
  2650                           	psect	text13
  2651  0005A2                     __ptext13:
  2652                           	callstack 0
  2653  0005A2                     ___fladd:
  2654                           	callstack 26
  2655  0005A2  5004               	movf	(___fladd@b+3)^0,w,c
  2656  0005A4  0B80               	andlw	128
  2657  0005A6  6E0D               	movwf	___fladd@signs^0,c
  2658  0005A8  5004               	movf	(___fladd@b+3)^0,w,c
  2659  0005AA  2404               	addwf	(___fladd@b+3)^0,w,c
  2660  0005AC  6E0F               	movwf	___fladd@bexp^0,c
  2661  0005AE  AE03               	btfss	(___fladd@b+2)^0,7,c
  2662  0005B0  EFDC  F002         	goto	i2u166_41
  2663  0005B4  EFDE  F002         	goto	i2u166_40
  2664  0005B8                     i2u166_41:
  2665  0005B8  EFDF  F002         	goto	i2l1984
  2666  0005BC                     i2u166_40:
  2667  0005BC  800F               	bsf	___fladd@bexp^0,0,c
  2668  0005BE                     i2l1984:
  2669  0005BE  500F               	movf	___fladd@bexp^0,w,c
  2670  0005C0  B4D8               	btfsc	status,2,c
  2671  0005C2  EFE5  F002         	goto	i2u167_41
  2672  0005C6  EFE7  F002         	goto	i2u167_40
  2673  0005CA                     i2u167_41:
  2674  0005CA  EFFC  F002         	goto	i2l1994
  2675  0005CE                     i2u167_40:
  2676  0005CE  280F               	incf	___fladd@bexp^0,w,c
  2677  0005D0  A4D8               	btfss	status,2,c
  2678  0005D2  EFED  F002         	goto	i2u168_41
  2679  0005D6  EFEF  F002         	goto	i2u168_40
  2680  0005DA                     i2u168_41:
  2681  0005DA  EFF7  F002         	goto	i2l1990
  2682  0005DE                     i2u168_40:
  2683  0005DE  0E00               	movlw	0
  2684  0005E0  6E01               	movwf	___fladd@b^0,c
  2685  0005E2  0E00               	movlw	0
  2686  0005E4  6E02               	movwf	(___fladd@b+1)^0,c
  2687  0005E6  0E00               	movlw	0
  2688  0005E8  6E03               	movwf	(___fladd@b+2)^0,c
  2689  0005EA  0E00               	movlw	0
  2690  0005EC  6E04               	movwf	(___fladd@b+3)^0,c
  2691  0005EE                     i2l1990:
  2692  0005EE  8E03               	bsf	(___fladd@b+2)^0,7,c
  2693  0005F0  0E00               	movlw	0
  2694  0005F2  6E04               	movwf	(___fladd@b+3)^0,c
  2695  0005F4  EF04  F003         	goto	i2l1996
  2696  0005F8                     i2l1994:
  2697  0005F8  0E00               	movlw	0
  2698  0005FA  6E01               	movwf	___fladd@b^0,c
  2699  0005FC  0E00               	movlw	0
  2700  0005FE  6E02               	movwf	(___fladd@b+1)^0,c
  2701  000600  0E00               	movlw	0
  2702  000602  6E03               	movwf	(___fladd@b+2)^0,c
  2703  000604  0E00               	movlw	0
  2704  000606  6E04               	movwf	(___fladd@b+3)^0,c
  2705  000608                     i2l1996:
  2706  000608  5008               	movf	(___fladd@a+3)^0,w,c
  2707  00060A  0B80               	andlw	128
  2708  00060C  6E0E               	movwf	___fladd@aexp^0,c
  2709  00060E  500D               	movf	___fladd@signs^0,w,c
  2710  000610  180E               	xorwf	___fladd@aexp^0,w,c
  2711  000612  B4D8               	btfsc	status,2,c
  2712  000614  EF0E  F003         	goto	i2u169_41
  2713  000618  EF10  F003         	goto	i2u169_40
  2714  00061C                     i2u169_41:
  2715  00061C  EF11  F003         	goto	i2l2002
  2716  000620                     i2u169_40:
  2717  000620  8C0D               	bsf	___fladd@signs^0,6,c
  2718  000622                     i2l2002:
  2719  000622  5008               	movf	(___fladd@a+3)^0,w,c
  2720  000624  2408               	addwf	(___fladd@a+3)^0,w,c
  2721  000626  6E0E               	movwf	___fladd@aexp^0,c
  2722  000628  AE07               	btfss	(___fladd@a+2)^0,7,c
  2723  00062A  EF19  F003         	goto	i2u170_41
  2724  00062E  EF1B  F003         	goto	i2u170_40
  2725  000632                     i2u170_41:
  2726  000632  EF1C  F003         	goto	i2l2008
  2727  000636                     i2u170_40:
  2728  000636  800E               	bsf	___fladd@aexp^0,0,c
  2729  000638                     i2l2008:
  2730  000638  500E               	movf	___fladd@aexp^0,w,c
  2731  00063A  B4D8               	btfsc	status,2,c
  2732  00063C  EF22  F003         	goto	i2u171_41
  2733  000640  EF24  F003         	goto	i2u171_40
  2734  000644                     i2u171_41:
  2735  000644  EF39  F003         	goto	i2l2018
  2736  000648                     i2u171_40:
  2737  000648  280E               	incf	___fladd@aexp^0,w,c
  2738  00064A  A4D8               	btfss	status,2,c
  2739  00064C  EF2A  F003         	goto	i2u172_41
  2740  000650  EF2C  F003         	goto	i2u172_40
  2741  000654                     i2u172_41:
  2742  000654  EF34  F003         	goto	i2l2014
  2743  000658                     i2u172_40:
  2744  000658  0E00               	movlw	0
  2745  00065A  6E05               	movwf	___fladd@a^0,c
  2746  00065C  0E00               	movlw	0
  2747  00065E  6E06               	movwf	(___fladd@a+1)^0,c
  2748  000660  0E00               	movlw	0
  2749  000662  6E07               	movwf	(___fladd@a+2)^0,c
  2750  000664  0E00               	movlw	0
  2751  000666  6E08               	movwf	(___fladd@a+3)^0,c
  2752  000668                     i2l2014:
  2753  000668  8E07               	bsf	(___fladd@a+2)^0,7,c
  2754  00066A  0E00               	movlw	0
  2755  00066C  6E08               	movwf	(___fladd@a+3)^0,c
  2756  00066E  EF41  F003         	goto	i2l2020
  2757  000672                     i2l2018:
  2758  000672  0E00               	movlw	0
  2759  000674  6E05               	movwf	___fladd@a^0,c
  2760  000676  0E00               	movlw	0
  2761  000678  6E06               	movwf	(___fladd@a+1)^0,c
  2762  00067A  0E00               	movlw	0
  2763  00067C  6E07               	movwf	(___fladd@a+2)^0,c
  2764  00067E  0E00               	movlw	0
  2765  000680  6E08               	movwf	(___fladd@a+3)^0,c
  2766  000682                     i2l2020:
  2767  000682  500F               	movf	___fladd@bexp^0,w,c
  2768  000684  5C0E               	subwf	___fladd@aexp^0,w,c
  2769  000686  B0D8               	btfsc	status,0,c
  2770  000688  EF48  F003         	goto	i2u173_41
  2771  00068C  EF4A  F003         	goto	i2u173_40
  2772  000690                     i2u173_41:
  2773  000690  EF71  F003         	goto	i2l2056
  2774  000694                     i2u173_40:
  2775  000694  AC0D               	btfss	___fladd@signs^0,6,c
  2776  000696  EF4F  F003         	goto	i2u174_41
  2777  00069A  EF51  F003         	goto	i2u174_40
  2778  00069E                     i2u174_41:
  2779  00069E  EF53  F003         	goto	i2l2026
  2780  0006A2                     i2u174_40:
  2781  0006A2  0E80               	movlw	128
  2782  0006A4  1A0D               	xorwf	___fladd@signs^0,f,c
  2783  0006A6                     i2l2026:
  2784  0006A6  C00F  F010         	movff	___fladd@bexp,___fladd@grs
  2785  0006AA  C00E  F00F         	movff	___fladd@aexp,___fladd@bexp
  2786  0006AE  C010  F00E         	movff	___fladd@grs,___fladd@aexp
  2787  0006B2  C001  F010         	movff	___fladd@b,___fladd@grs
  2788  0006B6  C005  F001         	movff	___fladd@a,___fladd@b
  2789  0006BA  C010  F005         	movff	___fladd@grs,___fladd@a
  2790  0006BE  C002  F010         	movff	___fladd@b+1,___fladd@grs
  2791  0006C2  C006  F002         	movff	___fladd@a+1,___fladd@b+1
  2792  0006C6  C010  F006         	movff	___fladd@grs,___fladd@a+1
  2793  0006CA  C003  F010         	movff	___fladd@b+2,___fladd@grs
  2794  0006CE  C007  F003         	movff	___fladd@a+2,___fladd@b+2
  2795  0006D2  C010  F007         	movff	___fladd@grs,___fladd@a+2
  2796  0006D6  C004  F010         	movff	___fladd@b+3,___fladd@grs
  2797  0006DA  C008  F004         	movff	___fladd@a+3,___fladd@b+3
  2798  0006DE  C010  F008         	movff	___fladd@grs,___fladd@a+3
  2799  0006E2                     i2l2056:
  2800  0006E2  0E00               	movlw	0
  2801  0006E4  6E10               	movwf	___fladd@grs^0,c
  2802  0006E6  500F               	movf	___fladd@bexp^0,w,c
  2803  0006E8  C00E  F009         	movff	___fladd@aexp,??___fladd
  2804  0006EC  6A0A               	clrf	(??___fladd+1)^0,c
  2805  0006EE  5E09               	subwf	??___fladd^0,f,c
  2806  0006F0  0E00               	movlw	0
  2807  0006F2  5A0A               	subwfb	(??___fladd+1)^0,f,c
  2808  0006F4  BE0A               	btfsc	(??___fladd+1)^0,7,c
  2809  0006F6  EF86  F003         	goto	i2u175_41
  2810  0006FA  500A               	movf	(??___fladd+1)^0,w,c
  2811  0006FC  E109               	bnz	i2u175_40
  2812  0006FE  0E1A               	movlw	26
  2813  000700  5C09               	subwf	??___fladd^0,w,c
  2814  000702  A0D8               	btfss	status,0,c
  2815  000704  EF86  F003         	goto	i2u175_41
  2816  000708  EF88  F003         	goto	i2u175_40
  2817  00070C                     i2u175_41:
  2818  00070C  EFBF  F003         	goto	i2l742
  2819  000710                     i2u175_40:
  2820  000710  5001               	movf	___fladd@b^0,w,c
  2821  000712  1002               	iorwf	(___fladd@b+1)^0,w,c
  2822  000714  1003               	iorwf	(___fladd@b+2)^0,w,c
  2823  000716  1004               	iorwf	(___fladd@b+3)^0,w,c
  2824  000718  A4D8               	btfss	status,2,c
  2825  00071A  EF91  F003         	goto	i2u176_41
  2826  00071E  EF94  F003         	goto	i2u176_40
  2827  000722                     i2u176_41:
  2828  000722  0E01               	movlw	1
  2829  000724  EF95  F003         	goto	i2u177_40
  2830  000728                     i2u176_40:
  2831  000728  0E00               	movlw	0
  2832  00072A                     i2u177_40:
  2833  00072A  6E10               	movwf	___fladd@grs^0,c
  2834  00072C  0E00               	movlw	0
  2835  00072E  6E01               	movwf	___fladd@b^0,c
  2836  000730  0E00               	movlw	0
  2837  000732  6E02               	movwf	(___fladd@b+1)^0,c
  2838  000734  0E00               	movlw	0
  2839  000736  6E03               	movwf	(___fladd@b+2)^0,c
  2840  000738  0E00               	movlw	0
  2841  00073A  6E04               	movwf	(___fladd@b+3)^0,c
  2842  00073C  C00E  F00F         	movff	___fladd@aexp,___fladd@bexp
  2843  000740  EFC8  F003         	goto	i2l741
  2844  000744                     i2l743:
  2845  000744  A010               	btfss	___fladd@grs^0,0,c
  2846  000746  EFA7  F003         	goto	i2u178_41
  2847  00074A  EFA9  F003         	goto	i2u178_40
  2848  00074E                     i2u178_41:
  2849  00074E  EFAF  F003         	goto	i2l2068
  2850  000752                     i2u178_40:
  2851  000752  90D8               	bcf	status,0,c
  2852  000754  3010               	rrcf	___fladd@grs^0,w,c
  2853  000756  0901               	iorlw	1
  2854  000758  6E10               	movwf	___fladd@grs^0,c
  2855  00075A  EFB1  F003         	goto	i2l2070
  2856  00075E                     i2l2068:
  2857  00075E  90D8               	bcf	status,0,c
  2858  000760  3210               	rrcf	___fladd@grs^0,f,c
  2859  000762                     i2l2070:
  2860  000762  A001               	btfss	___fladd@b^0,0,c
  2861  000764  EFB6  F003         	goto	i2u179_41
  2862  000768  EFB8  F003         	goto	i2u179_40
  2863  00076C                     i2u179_41:
  2864  00076C  EFB9  F003         	goto	i2l2074
  2865  000770                     i2u179_40:
  2866  000770  8E10               	bsf	___fladd@grs^0,7,c
  2867  000772                     i2l2074:
  2868  000772  3404               	rlcf	(___fladd@b+3)^0,w,c
  2869  000774  3204               	rrcf	(___fladd@b+3)^0,f,c
  2870  000776  3203               	rrcf	(___fladd@b+2)^0,f,c
  2871  000778  3202               	rrcf	(___fladd@b+1)^0,f,c
  2872  00077A  3201               	rrcf	___fladd@b^0,f,c
  2873  00077C  2A0F               	incf	___fladd@bexp^0,f,c
  2874  00077E                     i2l742:
  2875  00077E  500E               	movf	___fladd@aexp^0,w,c
  2876  000780  5C0F               	subwf	___fladd@bexp^0,w,c
  2877  000782  A0D8               	btfss	status,0,c
  2878  000784  EFC6  F003         	goto	i2u180_41
  2879  000788  EFC8  F003         	goto	i2u180_40
  2880  00078C                     i2u180_41:
  2881  00078C  EFA2  F003         	goto	i2l743
  2882  000790                     i2u180_40:
  2883  000790                     i2l741:
  2884  000790  BC0D               	btfsc	___fladd@signs^0,6,c
  2885  000792  EFCD  F003         	goto	i2u181_41
  2886  000796  EFCF  F003         	goto	i2u181_40
  2887  00079A                     i2u181_41:
  2888  00079A  EF0F  F004         	goto	i2l2102
  2889  00079E                     i2u181_40:
  2890  00079E  500F               	movf	___fladd@bexp^0,w,c
  2891  0007A0  A4D8               	btfss	status,2,c
  2892  0007A2  EFD5  F003         	goto	i2u182_41
  2893  0007A6  EFD7  F003         	goto	i2u182_40
  2894  0007AA                     i2u182_41:
  2895  0007AA  EFE1  F003         	goto	i2l2084
  2896  0007AE                     i2u182_40:
  2897  0007AE  0E00               	movlw	0
  2898  0007B0  6E01               	movwf	?___fladd^0,c
  2899  0007B2  0E00               	movlw	0
  2900  0007B4  6E02               	movwf	(?___fladd+1)^0,c
  2901  0007B6  0E00               	movlw	0
  2902  0007B8  6E03               	movwf	(?___fladd+2)^0,c
  2903  0007BA  0E00               	movlw	0
  2904  0007BC  6E04               	movwf	(?___fladd+3)^0,c
  2905  0007BE  EF30  F005         	goto	i2l750
  2906  0007C2                     i2l2084:
  2907  0007C2  5005               	movf	___fladd@a^0,w,c
  2908  0007C4  2601               	addwf	___fladd@b^0,f,c
  2909  0007C6  5006               	movf	(___fladd@a+1)^0,w,c
  2910  0007C8  2202               	addwfc	(___fladd@b+1)^0,f,c
  2911  0007CA  5007               	movf	(___fladd@a+2)^0,w,c
  2912  0007CC  2203               	addwfc	(___fladd@b+2)^0,f,c
  2913  0007CE  5008               	movf	(___fladd@a+3)^0,w,c
  2914  0007D0  2204               	addwfc	(___fladd@b+3)^0,f,c
  2915  0007D2  A004               	btfss	(___fladd@b+3)^0,0,c
  2916  0007D4  EFEE  F003         	goto	i2u183_41
  2917  0007D8  EFF0  F003         	goto	i2u183_40
  2918  0007DC                     i2u183_41:
  2919  0007DC  EF9C  F004         	goto	i2l2138
  2920  0007E0                     i2u183_40:
  2921  0007E0  A010               	btfss	___fladd@grs^0,0,c
  2922  0007E2  EFF5  F003         	goto	i2u184_41
  2923  0007E6  EFF7  F003         	goto	i2u184_40
  2924  0007EA                     i2u184_41:
  2925  0007EA  EFFD  F003         	goto	i2l2092
  2926  0007EE                     i2u184_40:
  2927  0007EE  90D8               	bcf	status,0,c
  2928  0007F0  3010               	rrcf	___fladd@grs^0,w,c
  2929  0007F2  0901               	iorlw	1
  2930  0007F4  6E10               	movwf	___fladd@grs^0,c
  2931  0007F6  EFFF  F003         	goto	i2l2094
  2932  0007FA                     i2l2092:
  2933  0007FA  90D8               	bcf	status,0,c
  2934  0007FC  3210               	rrcf	___fladd@grs^0,f,c
  2935  0007FE                     i2l2094:
  2936  0007FE  A001               	btfss	___fladd@b^0,0,c
  2937  000800  EF04  F004         	goto	i2u185_41
  2938  000804  EF06  F004         	goto	i2u185_40
  2939  000808                     i2u185_41:
  2940  000808  EF07  F004         	goto	i2l2098
  2941  00080C                     i2u185_40:
  2942  00080C  8E10               	bsf	___fladd@grs^0,7,c
  2943  00080E                     i2l2098:
  2944  00080E  3404               	rlcf	(___fladd@b+3)^0,w,c
  2945  000810  3204               	rrcf	(___fladd@b+3)^0,f,c
  2946  000812  3203               	rrcf	(___fladd@b+2)^0,f,c
  2947  000814  3202               	rrcf	(___fladd@b+1)^0,f,c
  2948  000816  3201               	rrcf	___fladd@b^0,f,c
  2949  000818  2A0F               	incf	___fladd@bexp^0,f,c
  2950  00081A  EF9C  F004         	goto	i2l2138
  2951  00081E                     i2l2102:
  2952  00081E  5005               	movf	___fladd@a^0,w,c
  2953  000820  5C01               	subwf	___fladd@b^0,w,c
  2954  000822  5006               	movf	(___fladd@a+1)^0,w,c
  2955  000824  5802               	subwfb	(___fladd@b+1)^0,w,c
  2956  000826  5007               	movf	(___fladd@a+2)^0,w,c
  2957  000828  5803               	subwfb	(___fladd@b+2)^0,w,c
  2958  00082A  5004               	movf	(___fladd@b+3)^0,w,c
  2959  00082C  0A80               	xorlw	128
  2960  00082E  6E09               	movwf	??___fladd^0,c
  2961  000830  5008               	movf	(___fladd@a+3)^0,w,c
  2962  000832  0A80               	xorlw	128
  2963  000834  5809               	subwfb	??___fladd^0,w,c
  2964  000836  B0D8               	btfsc	status,0,c
  2965  000838  EF20  F004         	goto	i2u186_41
  2966  00083C  EF22  F004         	goto	i2u186_40
  2967  000840                     i2u186_41:
  2968  000840  EF4D  F004         	goto	i2l2112
  2969  000844                     i2u186_40:
  2970  000844  5001               	movf	___fladd@b^0,w,c
  2971  000846  5C05               	subwf	___fladd@a^0,w,c
  2972  000848  6E09               	movwf	??___fladd^0,c
  2973  00084A  5002               	movf	(___fladd@b+1)^0,w,c
  2974  00084C  5806               	subwfb	(___fladd@a+1)^0,w,c
  2975  00084E  6E0A               	movwf	(??___fladd+1)^0,c
  2976  000850  5003               	movf	(___fladd@b+2)^0,w,c
  2977  000852  5807               	subwfb	(___fladd@a+2)^0,w,c
  2978  000854  6E0B               	movwf	(??___fladd+2)^0,c
  2979  000856  5004               	movf	(___fladd@b+3)^0,w,c
  2980  000858  5808               	subwfb	(___fladd@a+3)^0,w,c
  2981  00085A  6E0C               	movwf	(??___fladd+3)^0,c
  2982  00085C  0EFF               	movlw	255
  2983  00085E  2409               	addwf	??___fladd^0,w,c
  2984  000860  6E01               	movwf	___fladd@b^0,c
  2985  000862  0EFF               	movlw	255
  2986  000864  200A               	addwfc	(??___fladd+1)^0,w,c
  2987  000866  6E02               	movwf	(___fladd@b+1)^0,c
  2988  000868  0EFF               	movlw	255
  2989  00086A  200B               	addwfc	(??___fladd+2)^0,w,c
  2990  00086C  6E03               	movwf	(___fladd@b+2)^0,c
  2991  00086E  0EFF               	movlw	255
  2992  000870  200C               	addwfc	(??___fladd+3)^0,w,c
  2993  000872  6E04               	movwf	(___fladd@b+3)^0,c
  2994  000874  0E80               	movlw	128
  2995  000876  1A0D               	xorwf	___fladd@signs^0,f,c
  2996  000878  6C10               	negf	___fladd@grs^0,c
  2997  00087A  5010               	movf	___fladd@grs^0,w,c
  2998  00087C  A4D8               	btfss	status,2,c
  2999  00087E  EF43  F004         	goto	i2u187_41
  3000  000882  EF45  F004         	goto	i2u187_40
  3001  000886                     i2u187_41:
  3002  000886  EF55  F004         	goto	i2l758
  3003  00088A                     i2u187_40:
  3004  00088A  0E01               	movlw	1
  3005  00088C  2601               	addwf	___fladd@b^0,f,c
  3006  00088E  0E00               	movlw	0
  3007  000890  2202               	addwfc	(___fladd@b+1)^0,f,c
  3008  000892  2203               	addwfc	(___fladd@b+2)^0,f,c
  3009  000894  2204               	addwfc	(___fladd@b+3)^0,f,c
  3010  000896  EF55  F004         	goto	i2l758
  3011  00089A                     i2l2112:
  3012  00089A  5005               	movf	___fladd@a^0,w,c
  3013  00089C  5E01               	subwf	___fladd@b^0,f,c
  3014  00089E  5006               	movf	(___fladd@a+1)^0,w,c
  3015  0008A0  5A02               	subwfb	(___fladd@b+1)^0,f,c
  3016  0008A2  5007               	movf	(___fladd@a+2)^0,w,c
  3017  0008A4  5A03               	subwfb	(___fladd@b+2)^0,f,c
  3018  0008A6  5008               	movf	(___fladd@a+3)^0,w,c
  3019  0008A8  5A04               	subwfb	(___fladd@b+3)^0,f,c
  3020  0008AA                     i2l758:
  3021  0008AA  5001               	movf	___fladd@b^0,w,c
  3022  0008AC  1002               	iorwf	(___fladd@b+1)^0,w,c
  3023  0008AE  1003               	iorwf	(___fladd@b+2)^0,w,c
  3024  0008B0  1004               	iorwf	(___fladd@b+3)^0,w,c
  3025  0008B2  A4D8               	btfss	status,2,c
  3026  0008B4  EF5E  F004         	goto	i2u188_41
  3027  0008B8  EF60  F004         	goto	i2u188_40
  3028  0008BC                     i2u188_41:
  3029  0008BC  EF95  F004         	goto	i2l2136
  3030  0008C0                     i2u188_40:
  3031  0008C0  5010               	movf	___fladd@grs^0,w,c
  3032  0008C2  A4D8               	btfss	status,2,c
  3033  0008C4  EF66  F004         	goto	i2u189_41
  3034  0008C8  EF68  F004         	goto	i2u189_40
  3035  0008CC                     i2u189_41:
  3036  0008CC  EF95  F004         	goto	i2l2136
  3037  0008D0                     i2u189_40:
  3038  0008D0  0E00               	movlw	0
  3039  0008D2  6E01               	movwf	?___fladd^0,c
  3040  0008D4  0E00               	movlw	0
  3041  0008D6  6E02               	movwf	(?___fladd+1)^0,c
  3042  0008D8  0E00               	movlw	0
  3043  0008DA  6E03               	movwf	(?___fladd+2)^0,c
  3044  0008DC  0E00               	movlw	0
  3045  0008DE  6E04               	movwf	(?___fladd+3)^0,c
  3046  0008E0  EF30  F005         	goto	i2l750
  3047  0008E4                     i2l2120:
  3048  0008E4  90D8               	bcf	status,0,c
  3049  0008E6  3601               	rlcf	___fladd@b^0,f,c
  3050  0008E8  3602               	rlcf	(___fladd@b+1)^0,f,c
  3051  0008EA  3603               	rlcf	(___fladd@b+2)^0,f,c
  3052  0008EC  3604               	rlcf	(___fladd@b+3)^0,f,c
  3053  0008EE  AE10               	btfss	___fladd@grs^0,7,c
  3054  0008F0  EF7C  F004         	goto	i2u190_41
  3055  0008F4  EF7E  F004         	goto	i2u190_40
  3056  0008F8                     i2u190_41:
  3057  0008F8  EF7F  F004         	goto	i2l2126
  3058  0008FC                     i2u190_40:
  3059  0008FC  8001               	bsf	___fladd@b^0,0,c
  3060  0008FE                     i2l2126:
  3061  0008FE  A010               	btfss	___fladd@grs^0,0,c
  3062  000900  EF84  F004         	goto	i2u191_41
  3063  000904  EF86  F004         	goto	i2u191_40
  3064  000908                     i2u191_41:
  3065  000908  EF8A  F004         	goto	i2l2130
  3066  00090C                     i2u191_40:
  3067  00090C  80D8               	bsf	status,0,c
  3068  00090E  3610               	rlcf	___fladd@grs^0,f,c
  3069  000910  EF8C  F004         	goto	i2l2132
  3070  000914                     i2l2130:
  3071  000914  90D8               	bcf	status,0,c
  3072  000916  3610               	rlcf	___fladd@grs^0,f,c
  3073  000918                     i2l2132:
  3074  000918  500F               	movf	___fladd@bexp^0,w,c
  3075  00091A  B4D8               	btfsc	status,2,c
  3076  00091C  EF92  F004         	goto	i2u192_41
  3077  000920  EF94  F004         	goto	i2u192_40
  3078  000924                     i2u192_41:
  3079  000924  EF95  F004         	goto	i2l2136
  3080  000928                     i2u192_40:
  3081  000928  060F               	decf	___fladd@bexp^0,f,c
  3082  00092A                     i2l2136:
  3083  00092A  AE03               	btfss	(___fladd@b+2)^0,7,c
  3084  00092C  EF9A  F004         	goto	i2u193_41
  3085  000930  EF9C  F004         	goto	i2u193_40
  3086  000934                     i2u193_41:
  3087  000934  EF72  F004         	goto	i2l2120
  3088  000938                     i2u193_40:
  3089  000938                     i2l2138:
  3090  000938  0E00               	movlw	0
  3091  00093A  6E0E               	movwf	___fladd@aexp^0,c
  3092  00093C  AE10               	btfss	___fladd@grs^0,7,c
  3093  00093E  EFA3  F004         	goto	i2u194_41
  3094  000942  EFA5  F004         	goto	i2u194_40
  3095  000946                     i2u194_41:
  3096  000946  EFBD  F004         	goto	i2l767
  3097  00094A                     i2u194_40:
  3098  00094A  C010  F009         	movff	___fladd@grs,??___fladd
  3099  00094E  0E7F               	movlw	127
  3100  000950  1609               	andwf	??___fladd^0,f,c
  3101  000952  B4D8               	btfsc	status,2,c
  3102  000954  EFAE  F004         	goto	i2u195_41
  3103  000958  EFB0  F004         	goto	i2u195_40
  3104  00095C                     i2u195_41:
  3105  00095C  EFB4  F004         	goto	i2l768
  3106  000960                     i2u195_40:
  3107  000960                     i2l2144:
  3108  000960  0E01               	movlw	1
  3109  000962  6E0E               	movwf	___fladd@aexp^0,c
  3110  000964  EFBD  F004         	goto	i2l767
  3111  000968                     i2l768:
  3112  000968  A001               	btfss	___fladd@b^0,0,c
  3113  00096A  EFB9  F004         	goto	i2u196_41
  3114  00096E  EFBB  F004         	goto	i2u196_40
  3115  000972                     i2u196_41:
  3116  000972  EFBD  F004         	goto	i2l767
  3117  000976                     i2u196_40:
  3118  000976  EFB0  F004         	goto	i2l2144
  3119  00097A                     i2l767:
  3120  00097A  500E               	movf	___fladd@aexp^0,w,c
  3121  00097C  B4D8               	btfsc	status,2,c
  3122  00097E  EFC3  F004         	goto	i2u197_41
  3123  000982  EFC5  F004         	goto	i2u197_40
  3124  000986                     i2u197_41:
  3125  000986  EFF0  F004         	goto	i2l2156
  3126  00098A                     i2u197_40:
  3127  00098A  0E01               	movlw	1
  3128  00098C  2601               	addwf	___fladd@b^0,f,c
  3129  00098E  0E00               	movlw	0
  3130  000990  2202               	addwfc	(___fladd@b+1)^0,f,c
  3131  000992  2203               	addwfc	(___fladd@b+2)^0,f,c
  3132  000994  2204               	addwfc	(___fladd@b+3)^0,f,c
  3133  000996  A004               	btfss	(___fladd@b+3)^0,0,c
  3134  000998  EFD0  F004         	goto	i2u198_41
  3135  00099C  EFD2  F004         	goto	i2u198_40
  3136  0009A0                     i2u198_41:
  3137  0009A0  EFF0  F004         	goto	i2l2156
  3138  0009A4                     i2u198_40:
  3139  0009A4  C001  F009         	movff	___fladd@b,??___fladd
  3140  0009A8  C002  F00A         	movff	___fladd@b+1,??___fladd+1
  3141  0009AC  C003  F00B         	movff	___fladd@b+2,??___fladd+2
  3142  0009B0  C004  F00C         	movff	___fladd@b+3,??___fladd+3
  3143  0009B4  340C               	rlcf	(??___fladd+3)^0,w,c
  3144  0009B6  320C               	rrcf	(??___fladd+3)^0,f,c
  3145  0009B8  320B               	rrcf	(??___fladd+2)^0,f,c
  3146  0009BA  320A               	rrcf	(??___fladd+1)^0,f,c
  3147  0009BC  3209               	rrcf	??___fladd^0,f,c
  3148  0009BE  C009  F001         	movff	??___fladd,___fladd@b
  3149  0009C2  C00A  F002         	movff	??___fladd+1,___fladd@b+1
  3150  0009C6  C00B  F003         	movff	??___fladd+2,___fladd@b+2
  3151  0009CA  C00C  F004         	movff	??___fladd+3,___fladd@b+3
  3152  0009CE  280F               	incf	___fladd@bexp^0,w,c
  3153  0009D0  B4D8               	btfsc	status,2,c
  3154  0009D2  EFED  F004         	goto	i2u199_41
  3155  0009D6  EFEF  F004         	goto	i2u199_40
  3156  0009DA                     i2u199_41:
  3157  0009DA  EFF0  F004         	goto	i2l2156
  3158  0009DE                     i2u199_40:
  3159  0009DE  2A0F               	incf	___fladd@bexp^0,f,c
  3160  0009E0                     i2l2156:
  3161  0009E0  280F               	incf	___fladd@bexp^0,w,c
  3162  0009E2  B4D8               	btfsc	status,2,c
  3163  0009E4  EFF6  F004         	goto	i2u200_41
  3164  0009E8  EFF8  F004         	goto	i2u200_40
  3165  0009EC                     i2u200_41:
  3166  0009EC  EF00  F005         	goto	i2l2160
  3167  0009F0                     i2u200_40:
  3168  0009F0  500F               	movf	___fladd@bexp^0,w,c
  3169  0009F2  A4D8               	btfss	status,2,c
  3170  0009F4  EFFE  F004         	goto	i2u201_41
  3171  0009F8  EF00  F005         	goto	i2u201_40
  3172  0009FC                     i2u201_41:
  3173  0009FC  EF12  F005         	goto	i2l2164
  3174  000A00                     i2u201_40:
  3175  000A00                     i2l2160:
  3176  000A00  0E00               	movlw	0
  3177  000A02  6E01               	movwf	___fladd@b^0,c
  3178  000A04  0E00               	movlw	0
  3179  000A06  6E02               	movwf	(___fladd@b+1)^0,c
  3180  000A08  0E00               	movlw	0
  3181  000A0A  6E03               	movwf	(___fladd@b+2)^0,c
  3182  000A0C  0E00               	movlw	0
  3183  000A0E  6E04               	movwf	(___fladd@b+3)^0,c
  3184  000A10  500F               	movf	___fladd@bexp^0,w,c
  3185  000A12  A4D8               	btfss	status,2,c
  3186  000A14  EF0E  F005         	goto	i2u202_41
  3187  000A18  EF10  F005         	goto	i2u202_40
  3188  000A1C                     i2u202_41:
  3189  000A1C  EF12  F005         	goto	i2l2164
  3190  000A20                     i2u202_40:
  3191  000A20  0E00               	movlw	0
  3192  000A22  6E0D               	movwf	___fladd@signs^0,c
  3193  000A24                     i2l2164:
  3194  000A24  A00F               	btfss	___fladd@bexp^0,0,c
  3195  000A26  EF17  F005         	goto	i2u203_41
  3196  000A2A  EF19  F005         	goto	i2u203_40
  3197  000A2E                     i2u203_41:
  3198  000A2E  EF1C  F005         	goto	i2l2168
  3199  000A32                     i2u203_40:
  3200  000A32  8E03               	bsf	(___fladd@b+2)^0,7,c
  3201  000A34  EF1D  F005         	goto	i2l2170
  3202  000A38                     i2l2168:
  3203  000A38  9E03               	bcf	(___fladd@b+2)^0,7,c
  3204  000A3A                     i2l2170:
  3205  000A3A  90D8               	bcf	status,0,c
  3206  000A3C  300F               	rrcf	___fladd@bexp^0,w,c
  3207  000A3E  6E04               	movwf	(___fladd@b+3)^0,c
  3208  000A40  AE0D               	btfss	___fladd@signs^0,7,c
  3209  000A42  EF25  F005         	goto	i2u204_41
  3210  000A46  EF27  F005         	goto	i2u204_40
  3211  000A4A                     i2u204_41:
  3212  000A4A  EF28  F005         	goto	i2l2176
  3213  000A4E                     i2u204_40:
  3214  000A4E  8E04               	bsf	(___fladd@b+3)^0,7,c
  3215  000A50                     i2l2176:
  3216  000A50  C001  F001         	movff	___fladd@b,?___fladd
  3217  000A54  C002  F002         	movff	___fladd@b+1,?___fladd+1
  3218  000A58  C003  F003         	movff	___fladd@b+2,?___fladd+2
  3219  000A5C  C004  F004         	movff	___fladd@b+3,?___fladd+3
  3220  000A60                     i2l750:
  3221  000A60  0012               	return		;funcret
  3222  000A62                     __end_of___fladd:
  3223                           	callstack 0
  3224                           
  3225 ;; *************** function _atoi *****************
  3226 ;; Defined at:
  3227 ;;		line 5 in file "C:\Program Files\Microchip\xc8\v2.32\pic\sources\c90\common\atoi.c"
  3228 ;; Parameters:    Size  Location     Type
  3229 ;;  s               2    6[COMRAM] PTR const unsigned char 
  3230 ;;		 -> str(4), 
  3231 ;; Auto vars:     Size  Location     Type
  3232 ;;  a               2   11[COMRAM] int 
  3233 ;;  sign            1   10[COMRAM] unsigned char 
  3234 ;; Return value:  Size  Location     Type
  3235 ;;                  2    6[COMRAM] int 
  3236 ;; Registers used:
  3237 ;;		wreg, fsr2l, fsr2h, status,2, status,0, prodl, prodh, cstack
  3238 ;; Tracked objects:
  3239 ;;		On entry : 0/0
  3240 ;;		On exit  : 0/0
  3241 ;;		Unchanged: 0/0
  3242 ;; Data sizes:     COMRAM   BANK0   BANK1   BANK2
  3243 ;;      Params:         2       0       0       0
  3244 ;;      Locals:         3       0       0       0
  3245 ;;      Temps:          2       0       0       0
  3246 ;;      Totals:         7       0       0       0
  3247 ;;Total ram usage:        7 bytes
  3248 ;; Hardware stack levels used: 1
  3249 ;; Hardware stack levels required when called: 1
  3250 ;; This function calls:
  3251 ;;		___wmul
  3252 ;;		_isdigit
  3253 ;; This function is called by:
  3254 ;;		_ISR
  3255 ;; This function uses a non-reentrant model
  3256 ;;
  3257                           
  3258                           	psect	text14
  3259  0013DA                     __ptext14:
  3260                           	callstack 0
  3261  0013DA                     _atoi:
  3262                           	callstack 27
  3263  0013DA  EFF1  F009         	goto	i2l2404
  3264  0013DE                     i2l2402:
  3265  0013DE  4A07               	infsnz	atoi@s^0,f,c
  3266  0013E0  2A08               	incf	(atoi@s+1)^0,f,c
  3267  0013E2                     i2l2404:
  3268  0013E2  C007  FFD9         	movff	atoi@s,fsr2l
  3269  0013E6  C008  FFDA         	movff	atoi@s+1,fsr2h
  3270  0013EA  0E20               	movlw	32
  3271  0013EC  18DE               	xorwf	postinc2,w,c
  3272  0013EE  B4D8               	btfsc	status,2,c
  3273  0013F0  EFFC  F009         	goto	i2u245_41
  3274  0013F4  EFFE  F009         	goto	i2u245_40
  3275  0013F8                     i2u245_41:
  3276  0013F8  EFEF  F009         	goto	i2l2402
  3277  0013FC                     i2u245_40:
  3278  0013FC  C007  FFD9         	movff	atoi@s,fsr2l
  3279  001400  C008  FFDA         	movff	atoi@s+1,fsr2h
  3280  001404  0E09               	movlw	9
  3281  001406  18DE               	xorwf	postinc2,w,c
  3282  001408  B4D8               	btfsc	status,2,c
  3283  00140A  EF09  F00A         	goto	i2u246_41
  3284  00140E  EF0B  F00A         	goto	i2u246_40
  3285  001412                     i2u246_41:
  3286  001412  EFEF  F009         	goto	i2l2402
  3287  001416                     i2u246_40:
  3288  001416  0E00               	movlw	0
  3289  001418  6E0D               	movwf	(atoi@a+1)^0,c
  3290  00141A  0E00               	movlw	0
  3291  00141C  6E0C               	movwf	atoi@a^0,c
  3292  00141E  0E00               	movlw	0
  3293  001420  6E0B               	movwf	atoi@sign^0,c
  3294  001422  C007  FFD9         	movff	atoi@s,fsr2l
  3295  001426  C008  FFDA         	movff	atoi@s+1,fsr2h
  3296  00142A  0E2D               	movlw	45
  3297  00142C  18DE               	xorwf	postinc2,w,c
  3298  00142E  A4D8               	btfss	status,2,c
  3299  001430  EF1C  F00A         	goto	i2u247_41
  3300  001434  EF1E  F00A         	goto	i2u247_40
  3301  001438                     i2u247_41:
  3302  001438  EF23  F00A         	goto	i2l2414
  3303  00143C                     i2u247_40:
  3304  00143C  2A0B               	incf	atoi@sign^0,f,c
  3305  00143E  4A07               	infsnz	atoi@s^0,f,c
  3306  001440  2A08               	incf	(atoi@s+1)^0,f,c
  3307  001442  EF50  F00A         	goto	i2l2422
  3308  001446                     i2l2414:
  3309  001446  C007  FFD9         	movff	atoi@s,fsr2l
  3310  00144A  C008  FFDA         	movff	atoi@s+1,fsr2h
  3311  00144E  0E2B               	movlw	43
  3312  001450  18DE               	xorwf	postinc2,w,c
  3313  001452  A4D8               	btfss	status,2,c
  3314  001454  EF2E  F00A         	goto	i2u248_41
  3315  001458  EF30  F00A         	goto	i2u248_40
  3316  00145C                     i2u248_41:
  3317  00145C  EF50  F00A         	goto	i2l2422
  3318  001460                     i2u248_40:
  3319  001460                     i2l2416:
  3320  001460  4A07               	infsnz	atoi@s^0,f,c
  3321  001462  2A08               	incf	(atoi@s+1)^0,f,c
  3322  001464  EF50  F00A         	goto	i2l2422
  3323  001468                     i2l2418:
  3324  001468  C00C  F001         	movff	atoi@a,___wmul@multiplier
  3325  00146C  C00D  F002         	movff	atoi@a+1,___wmul@multiplier+1
  3326  001470  0E00               	movlw	0
  3327  001472  6E04               	movwf	(___wmul@multiplicand+1)^0,c
  3328  001474  0E0A               	movlw	10
  3329  001476  6E03               	movwf	___wmul@multiplicand^0,c
  3330  001478  EC99  F00D         	call	___wmul	;wreg free
  3331  00147C  C007  FFD9         	movff	atoi@s,fsr2l
  3332  001480  C008  FFDA         	movff	atoi@s+1,fsr2h
  3333  001484  50DF               	movf	indf2,w,c
  3334  001486  6E09               	movwf	??_atoi^0,c
  3335  001488  5009               	movf	??_atoi^0,w,c
  3336  00148A  2601               	addwf	?___wmul^0,f,c
  3337  00148C  0E00               	movlw	0
  3338  00148E  2202               	addwfc	(?___wmul+1)^0,f,c
  3339  001490  0ED0               	movlw	208
  3340  001492  2401               	addwf	?___wmul^0,w,c
  3341  001494  6E0C               	movwf	atoi@a^0,c
  3342  001496  0EFF               	movlw	255
  3343  001498  2002               	addwfc	(?___wmul+1)^0,w,c
  3344  00149A  6E0D               	movwf	(atoi@a+1)^0,c
  3345  00149C  EF30  F00A         	goto	i2l2416
  3346  0014A0                     i2l2422:
  3347  0014A0  C007  FFD9         	movff	atoi@s,fsr2l
  3348  0014A4  C008  FFDA         	movff	atoi@s+1,fsr2h
  3349  0014A8  50DF               	movf	indf2,w,c
  3350  0014AA  EC80  F00D         	call	_isdigit
  3351  0014AE  B0D8               	btfsc	status,0,c
  3352  0014B0  EF5C  F00A         	goto	i2u249_41
  3353  0014B4  EF5E  F00A         	goto	i2u249_40
  3354  0014B8                     i2u249_41:
  3355  0014B8  EF34  F00A         	goto	i2l2418
  3356  0014BC                     i2u249_40:
  3357  0014BC  500B               	movf	atoi@sign^0,w,c
  3358  0014BE  B4D8               	btfsc	status,2,c
  3359  0014C0  EF64  F00A         	goto	i2u250_41
  3360  0014C4  EF66  F00A         	goto	i2u250_40
  3361  0014C8                     i2u250_41:
  3362  0014C8  EF74  F00A         	goto	i2l902
  3363  0014CC                     i2u250_40:
  3364  0014CC  C00C  F009         	movff	atoi@a,??_atoi
  3365  0014D0  C00D  F00A         	movff	atoi@a+1,??_atoi+1
  3366  0014D4  1E09               	comf	??_atoi^0,f,c
  3367  0014D6  1E0A               	comf	(??_atoi+1)^0,f,c
  3368  0014D8  4A09               	infsnz	??_atoi^0,f,c
  3369  0014DA  2A0A               	incf	(??_atoi+1)^0,f,c
  3370  0014DC  C009  F007         	movff	??_atoi,?_atoi
  3371  0014E0  C00A  F008         	movff	??_atoi+1,?_atoi+1
  3372  0014E4  EF78  F00A         	goto	i2l903
  3373  0014E8                     i2l902:
  3374  0014E8  C00C  F007         	movff	atoi@a,?_atoi
  3375  0014EC  C00D  F008         	movff	atoi@a+1,?_atoi+1
  3376  0014F0                     i2l903:
  3377  0014F0  0012               	return		;funcret
  3378  0014F2                     __end_of_atoi:
  3379                           	callstack 0
  3380                           
  3381 ;; *************** function _isdigit *****************
  3382 ;; Defined at:
  3383 ;;		line 8 in file "C:\Program Files\Microchip\xc8\v2.32\pic\sources\c90\common\isdigit.c"
  3384 ;; Parameters:    Size  Location     Type
  3385 ;;  c               1    wreg     unsigned char 
  3386 ;; Auto vars:     Size  Location     Type
  3387 ;;  c               1    2[COMRAM] unsigned char 
  3388 ;; Return value:  Size  Location     Type
  3389 ;;		None               void
  3390 ;; Registers used:
  3391 ;;		wreg, status,2, status,0
  3392 ;; Tracked objects:
  3393 ;;		On entry : 0/0
  3394 ;;		On exit  : 0/0
  3395 ;;		Unchanged: 0/0
  3396 ;; Data sizes:     COMRAM   BANK0   BANK1   BANK2
  3397 ;;      Params:         0       0       0       0
  3398 ;;      Locals:         2       0       0       0
  3399 ;;      Temps:          1       0       0       0
  3400 ;;      Totals:         3       0       0       0
  3401 ;;Total ram usage:        3 bytes
  3402 ;; Hardware stack levels used: 1
  3403 ;; This function calls:
  3404 ;;		Nothing
  3405 ;; This function is called by:
  3406 ;;		_ISR
  3407 ;;		_atoi
  3408 ;; This function uses a non-reentrant model
  3409 ;;
  3410                           
  3411                           	psect	text15
  3412  001B00                     __ptext15:
  3413                           	callstack 0
  3414  001B00                     _isdigit:
  3415                           	callstack 28
  3416                           
  3417                           ;incstack = 0
  3418                           ;isdigit@c stored from wreg
  3419  001B00  6E03               	movwf	isdigit@c^0,c
  3420  001B02  0E00               	movlw	0
  3421  001B04  6E02               	movwf	_isdigit$1317^0,c
  3422  001B06  0E3A               	movlw	58
  3423  001B08  6003               	cpfslt	isdigit@c^0,c
  3424  001B0A  EF89  F00D         	goto	i2u229_41
  3425  001B0E  EF8B  F00D         	goto	i2u229_40
  3426  001B12                     i2u229_41:
  3427  001B12  EF95  F00D         	goto	i2l2316
  3428  001B16                     i2u229_40:
  3429  001B16  0E2F               	movlw	47
  3430  001B18  6403               	cpfsgt	isdigit@c^0,c
  3431  001B1A  EF91  F00D         	goto	i2u230_41
  3432  001B1E  EF93  F00D         	goto	i2u230_40
  3433  001B22                     i2u230_41:
  3434  001B22  EF95  F00D         	goto	i2l2316
  3435  001B26                     i2u230_40:
  3436  001B26  0E01               	movlw	1
  3437  001B28  6E02               	movwf	_isdigit$1317^0,c
  3438  001B2A                     i2l2316:
  3439  001B2A  C002  F001         	movff	_isdigit$1317,??_isdigit
  3440  001B2E  3001               	rrcf	??_isdigit^0,w,c
  3441  001B30  0012               	return		;funcret
  3442  001B32                     __end_of_isdigit:
  3443                           	callstack 0
  3444                           
  3445 ;; *************** function ___wmul *****************
  3446 ;; Defined at:
  3447 ;;		line 15 in file "C:\Program Files\Microchip\xc8\v2.32\pic\sources\c90\common\Umul16.c"
  3448 ;; Parameters:    Size  Location     Type
  3449 ;;  multiplier      2    0[COMRAM] unsigned int 
  3450 ;;  multiplicand    2    2[COMRAM] unsigned int 
  3451 ;; Auto vars:     Size  Location     Type
  3452 ;;  product         2    4[COMRAM] unsigned int 
  3453 ;; Return value:  Size  Location     Type
  3454 ;;                  2    0[COMRAM] unsigned int 
  3455 ;; Registers used:
  3456 ;;		wreg, status,2, status,0, prodl, prodh
  3457 ;; Tracked objects:
  3458 ;;		On entry : 0/0
  3459 ;;		On exit  : 0/0
  3460 ;;		Unchanged: 0/0
  3461 ;; Data sizes:     COMRAM   BANK0   BANK1   BANK2
  3462 ;;      Params:         4       0       0       0
  3463 ;;      Locals:         2       0       0       0
  3464 ;;      Temps:          0       0       0       0
  3465 ;;      Totals:         6       0       0       0
  3466 ;;Total ram usage:        6 bytes
  3467 ;; Hardware stack levels used: 1
  3468 ;; This function calls:
  3469 ;;		Nothing
  3470 ;; This function is called by:
  3471 ;;		_atoi
  3472 ;; This function uses a non-reentrant model
  3473 ;;
  3474                           
  3475                           	psect	text16
  3476  001B32                     __ptext16:
  3477                           	callstack 0
  3478  001B32                     ___wmul:
  3479                           	callstack 27
  3480  001B32  5001               	movf	___wmul@multiplier^0,w,c
  3481  001B34  0203               	mulwf	___wmul@multiplicand^0,c
  3482  001B36  CFF3 F005          	movff	prodl,___wmul@product
  3483  001B3A  CFF4 F006          	movff	prodh,___wmul@product+1
  3484  001B3E  5001               	movf	___wmul@multiplier^0,w,c
  3485  001B40  0204               	mulwf	(___wmul@multiplicand+1)^0,c
  3486  001B42  50F3               	movf	243,w,c
  3487  001B44  2606               	addwf	(___wmul@product+1)^0,f,c
  3488  001B46  5002               	movf	(___wmul@multiplier+1)^0,w,c
  3489  001B48  0203               	mulwf	___wmul@multiplicand^0,c
  3490  001B4A  50F3               	movf	243,w,c
  3491  001B4C  2606               	addwf	(___wmul@product+1)^0,f,c
  3492  001B4E  C005  F001         	movff	___wmul@product,?___wmul
  3493  001B52  C006  F002         	movff	___wmul@product+1,?___wmul+1
  3494  001B56  0012               	return		;funcret
  3495  001B58                     __end_of___wmul:
  3496                           	callstack 0
  3497                           
  3498 ;; *************** function _abs *****************
  3499 ;; Defined at:
  3500 ;;		line 4 in file "C:\Program Files\Microchip\xc8\v2.32\pic\sources\c90\common\abs.c"
  3501 ;; Parameters:    Size  Location     Type
  3502 ;;  a               2    0[COMRAM] int 
  3503 ;; Auto vars:     Size  Location     Type
  3504 ;;		None
  3505 ;; Return value:  Size  Location     Type
  3506 ;;                  2    0[COMRAM] int 
  3507 ;; Registers used:
  3508 ;;		wreg, status,2, status,0
  3509 ;; Tracked objects:
  3510 ;;		On entry : 0/0
  3511 ;;		On exit  : 0/0
  3512 ;;		Unchanged: 0/0
  3513 ;; Data sizes:     COMRAM   BANK0   BANK1   BANK2
  3514 ;;      Params:         2       0       0       0
  3515 ;;      Locals:         0       0       0       0
  3516 ;;      Temps:          2       0       0       0
  3517 ;;      Totals:         4       0       0       0
  3518 ;;Total ram usage:        4 bytes
  3519 ;; Hardware stack levels used: 1
  3520 ;; This function calls:
  3521 ;;		Nothing
  3522 ;; This function is called by:
  3523 ;;		_ISR
  3524 ;; This function uses a non-reentrant model
  3525 ;;
  3526                           
  3527                           	psect	text17
  3528  001ACC                     __ptext17:
  3529                           	callstack 0
  3530  001ACC                     _abs:
  3531                           	callstack 28
  3532  001ACC  BE02               	btfsc	(abs@a+1)^0,7,c
  3533  001ACE  EF6D  F00D         	goto	i2u244_40
  3534  001AD2  EF6B  F00D         	goto	i2u244_41
  3535  001AD6                     i2u244_41:
  3536  001AD6  EF7B  F00D         	goto	i2l887
  3537  001ADA                     i2u244_40:
  3538  001ADA  C001  F003         	movff	abs@a,??_abs
  3539  001ADE  C002  F004         	movff	abs@a+1,??_abs+1
  3540  001AE2  1E03               	comf	??_abs^0,f,c
  3541  001AE4  1E04               	comf	(??_abs+1)^0,f,c
  3542  001AE6  4A03               	infsnz	??_abs^0,f,c
  3543  001AE8  2A04               	incf	(??_abs+1)^0,f,c
  3544  001AEA  C003  F001         	movff	??_abs,?_abs
  3545  001AEE  C004  F002         	movff	??_abs+1,?_abs+1
  3546  001AF2  EF7F  F00D         	goto	i2l888
  3547  001AF6                     i2l887:
  3548  001AF6  C001  F001         	movff	abs@a,?_abs
  3549  001AFA  C002  F002         	movff	abs@a+1,?_abs+1
  3550  001AFE                     i2l888:
  3551  001AFE  0012               	return		;funcret
  3552  001B00                     __end_of_abs:
  3553                           	callstack 0
  3554                           
  3555 ;; *************** function ___flmul *****************
  3556 ;; Defined at:
  3557 ;;		line 8 in file "C:\Program Files\Microchip\xc8\v2.32\pic\sources\c90\common\sprcmul.c"
  3558 ;; Parameters:    Size  Location     Type
  3559 ;;  b               4   18[COMRAM] int 
  3560 ;;  a               4   22[COMRAM] int 
  3561 ;; Auto vars:     Size  Location     Type
  3562 ;;  prod            4   37[COMRAM] struct .
  3563 ;;  grs             4   31[COMRAM] unsigned long 
  3564 ;;  temp            2   41[COMRAM] struct .
  3565 ;;  bexp            1   36[COMRAM] unsigned char 
  3566 ;;  aexp            1   35[COMRAM] unsigned char 
  3567 ;;  sign            1   30[COMRAM] unsigned char 
  3568 ;; Return value:  Size  Location     Type
  3569 ;;                  4   18[COMRAM] unsigned char 
  3570 ;; Registers used:
  3571 ;;		wreg, status,2, status,0, prodl, prodh
  3572 ;; Tracked objects:
  3573 ;;		On entry : 0/0
  3574 ;;		On exit  : 0/0
  3575 ;;		Unchanged: 0/0
  3576 ;; Data sizes:     COMRAM   BANK0   BANK1   BANK2
  3577 ;;      Params:         8       0       0       0
  3578 ;;      Locals:        13       0       0       0
  3579 ;;      Temps:          4       0       0       0
  3580 ;;      Totals:        25       0       0       0
  3581 ;;Total ram usage:       25 bytes
  3582 ;; Hardware stack levels used: 1
  3583 ;; This function calls:
  3584 ;;		Nothing
  3585 ;; This function is called by:
  3586 ;;		_ISR
  3587 ;; This function uses a non-reentrant model
  3588 ;;
  3589                           
  3590                           	psect	text18
  3591  000A62                     __ptext18:
  3592                           	callstack 0
  3593  000A62                     ___flmul:
  3594                           	callstack 28
  3595  000A62  5016               	movf	(___flmul@b+3)^0,w,c
  3596  000A64  0B80               	andlw	128
  3597  000A66  6E1F               	movwf	___flmul@sign^0,c
  3598  000A68  5016               	movf	(___flmul@b+3)^0,w,c
  3599  000A6A  2416               	addwf	(___flmul@b+3)^0,w,c
  3600  000A6C  6E25               	movwf	___flmul@bexp^0,c
  3601  000A6E  AE15               	btfss	(___flmul@b+2)^0,7,c
  3602  000A70  EF3C  F005         	goto	i2u274_41
  3603  000A74  EF3E  F005         	goto	i2u274_40
  3604  000A78                     i2u274_41:
  3605  000A78  EF3F  F005         	goto	i2l2588
  3606  000A7C                     i2u274_40:
  3607  000A7C  8025               	bsf	___flmul@bexp^0,0,c
  3608  000A7E                     i2l2588:
  3609  000A7E  5025               	movf	___flmul@bexp^0,w,c
  3610  000A80  B4D8               	btfsc	status,2,c
  3611  000A82  EF45  F005         	goto	i2u275_41
  3612  000A86  EF47  F005         	goto	i2u275_40
  3613  000A8A                     i2u275_41:
  3614  000A8A  EF5A  F005         	goto	i2l2596
  3615  000A8E                     i2u275_40:
  3616  000A8E  2825               	incf	___flmul@bexp^0,w,c
  3617  000A90  A4D8               	btfss	status,2,c
  3618  000A92  EF4D  F005         	goto	i2u276_41
  3619  000A96  EF4F  F005         	goto	i2u276_40
  3620  000A9A                     i2u276_41:
  3621  000A9A  EF57  F005         	goto	i2l2594
  3622  000A9E                     i2u276_40:
  3623  000A9E  0E00               	movlw	0
  3624  000AA0  6E13               	movwf	___flmul@b^0,c
  3625  000AA2  0E00               	movlw	0
  3626  000AA4  6E14               	movwf	(___flmul@b+1)^0,c
  3627  000AA6  0E00               	movlw	0
  3628  000AA8  6E15               	movwf	(___flmul@b+2)^0,c
  3629  000AAA  0E00               	movlw	0
  3630  000AAC  6E16               	movwf	(___flmul@b+3)^0,c
  3631  000AAE                     i2l2594:
  3632  000AAE  8E15               	bsf	(___flmul@b+2)^0,7,c
  3633  000AB0  EF62  F005         	goto	i2l2598
  3634  000AB4                     i2l2596:
  3635  000AB4  0E00               	movlw	0
  3636  000AB6  6E13               	movwf	___flmul@b^0,c
  3637  000AB8  0E00               	movlw	0
  3638  000ABA  6E14               	movwf	(___flmul@b+1)^0,c
  3639  000ABC  0E00               	movlw	0
  3640  000ABE  6E15               	movwf	(___flmul@b+2)^0,c
  3641  000AC0  0E00               	movlw	0
  3642  000AC2  6E16               	movwf	(___flmul@b+3)^0,c
  3643  000AC4                     i2l2598:
  3644  000AC4  501A               	movf	(___flmul@a+3)^0,w,c
  3645  000AC6  0B80               	andlw	128
  3646  000AC8  1A1F               	xorwf	___flmul@sign^0,f,c
  3647  000ACA  501A               	movf	(___flmul@a+3)^0,w,c
  3648  000ACC  241A               	addwf	(___flmul@a+3)^0,w,c
  3649  000ACE  6E24               	movwf	___flmul@aexp^0,c
  3650  000AD0  AE19               	btfss	(___flmul@a+2)^0,7,c
  3651  000AD2  EF6D  F005         	goto	i2u277_41
  3652  000AD6  EF6F  F005         	goto	i2u277_40
  3653  000ADA                     i2u277_41:
  3654  000ADA  EF70  F005         	goto	i2l2606
  3655  000ADE                     i2u277_40:
  3656  000ADE  8024               	bsf	___flmul@aexp^0,0,c
  3657  000AE0                     i2l2606:
  3658  000AE0  5024               	movf	___flmul@aexp^0,w,c
  3659  000AE2  B4D8               	btfsc	status,2,c
  3660  000AE4  EF76  F005         	goto	i2u278_41
  3661  000AE8  EF78  F005         	goto	i2u278_40
  3662  000AEC                     i2u278_41:
  3663  000AEC  EF8B  F005         	goto	i2l2614
  3664  000AF0                     i2u278_40:
  3665  000AF0  2824               	incf	___flmul@aexp^0,w,c
  3666  000AF2  A4D8               	btfss	status,2,c
  3667  000AF4  EF7E  F005         	goto	i2u279_41
  3668  000AF8  EF80  F005         	goto	i2u279_40
  3669  000AFC                     i2u279_41:
  3670  000AFC  EF88  F005         	goto	i2l2612
  3671  000B00                     i2u279_40:
  3672  000B00  0E00               	movlw	0
  3673  000B02  6E17               	movwf	___flmul@a^0,c
  3674  000B04  0E00               	movlw	0
  3675  000B06  6E18               	movwf	(___flmul@a+1)^0,c
  3676  000B08  0E00               	movlw	0
  3677  000B0A  6E19               	movwf	(___flmul@a+2)^0,c
  3678  000B0C  0E00               	movlw	0
  3679  000B0E  6E1A               	movwf	(___flmul@a+3)^0,c
  3680  000B10                     i2l2612:
  3681  000B10  8E19               	bsf	(___flmul@a+2)^0,7,c
  3682  000B12  EF93  F005         	goto	i2l827
  3683  000B16                     i2l2614:
  3684  000B16  0E00               	movlw	0
  3685  000B18  6E17               	movwf	___flmul@a^0,c
  3686  000B1A  0E00               	movlw	0
  3687  000B1C  6E18               	movwf	(___flmul@a+1)^0,c
  3688  000B1E  0E00               	movlw	0
  3689  000B20  6E19               	movwf	(___flmul@a+2)^0,c
  3690  000B22  0E00               	movlw	0
  3691  000B24  6E1A               	movwf	(___flmul@a+3)^0,c
  3692  000B26                     i2l827:
  3693  000B26  5024               	movf	___flmul@aexp^0,w,c
  3694  000B28  B4D8               	btfsc	status,2,c
  3695  000B2A  EF99  F005         	goto	i2u280_41
  3696  000B2E  EF9B  F005         	goto	i2u280_40
  3697  000B32                     i2u280_41:
  3698  000B32  EFA3  F005         	goto	i2l2618
  3699  000B36                     i2u280_40:
  3700  000B36  5025               	movf	___flmul@bexp^0,w,c
  3701  000B38  A4D8               	btfss	status,2,c
  3702  000B3A  EFA1  F005         	goto	i2u281_41
  3703  000B3E  EFA3  F005         	goto	i2u281_40
  3704  000B42                     i2u281_41:
  3705  000B42  EFAD  F005         	goto	i2l2622
  3706  000B46                     i2u281_40:
  3707  000B46                     i2l2618:
  3708  000B46  0E00               	movlw	0
  3709  000B48  6E13               	movwf	?___flmul^0,c
  3710  000B4A  0E00               	movlw	0
  3711  000B4C  6E14               	movwf	(?___flmul+1)^0,c
  3712  000B4E  0E00               	movlw	0
  3713  000B50  6E15               	movwf	(?___flmul+2)^0,c
  3714  000B52  0E00               	movlw	0
  3715  000B54  6E16               	movwf	(?___flmul+3)^0,c
  3716  000B56  EF45  F007         	goto	i2l831
  3717  000B5A                     i2l2622:
  3718  000B5A  5019               	movf	(___flmul@a+2)^0,w,c
  3719  000B5C  0213               	mulwf	___flmul@b^0,c
  3720  000B5E  CFF3 F02A          	movff	prodl,___flmul@temp
  3721  000B62  CFF4 F02B          	movff	prodh,___flmul@temp+1
  3722  000B66  502A               	movf	___flmul@temp^0,w,c
  3723  000B68  6E20               	movwf	___flmul@grs^0,c
  3724  000B6A  6A21               	clrf	(___flmul@grs+1)^0,c
  3725  000B6C  6A22               	clrf	(___flmul@grs+2)^0,c
  3726  000B6E  6A23               	clrf	(___flmul@grs+3)^0,c
  3727  000B70  502B               	movf	(___flmul@temp+1)^0,w,c
  3728  000B72  6E26               	movwf	___flmul@prod^0,c
  3729  000B74  6A27               	clrf	(___flmul@prod+1)^0,c
  3730  000B76  6A28               	clrf	(___flmul@prod+2)^0,c
  3731  000B78  6A29               	clrf	(___flmul@prod+3)^0,c
  3732  000B7A  5018               	movf	(___flmul@a+1)^0,w,c
  3733  000B7C  0214               	mulwf	(___flmul@b+1)^0,c
  3734  000B7E  CFF3 F02A          	movff	prodl,___flmul@temp
  3735  000B82  CFF4 F02B          	movff	prodh,___flmul@temp+1
  3736  000B86  502A               	movf	___flmul@temp^0,w,c
  3737  000B88  2620               	addwf	___flmul@grs^0,f,c
  3738  000B8A  0E00               	movlw	0
  3739  000B8C  2221               	addwfc	(___flmul@grs+1)^0,f,c
  3740  000B8E  2222               	addwfc	(___flmul@grs+2)^0,f,c
  3741  000B90  2223               	addwfc	(___flmul@grs+3)^0,f,c
  3742  000B92  502B               	movf	(___flmul@temp+1)^0,w,c
  3743  000B94  2626               	addwf	___flmul@prod^0,f,c
  3744  000B96  0E00               	movlw	0
  3745  000B98  2227               	addwfc	(___flmul@prod+1)^0,f,c
  3746  000B9A  2228               	addwfc	(___flmul@prod+2)^0,f,c
  3747  000B9C  2229               	addwfc	(___flmul@prod+3)^0,f,c
  3748  000B9E  5017               	movf	___flmul@a^0,w,c
  3749  000BA0  0215               	mulwf	(___flmul@b+2)^0,c
  3750  000BA2  CFF3 F02A          	movff	prodl,___flmul@temp
  3751  000BA6  CFF4 F02B          	movff	prodh,___flmul@temp+1
  3752  000BAA  502A               	movf	___flmul@temp^0,w,c
  3753  000BAC  2620               	addwf	___flmul@grs^0,f,c
  3754  000BAE  0E00               	movlw	0
  3755  000BB0  2221               	addwfc	(___flmul@grs+1)^0,f,c
  3756  000BB2  2222               	addwfc	(___flmul@grs+2)^0,f,c
  3757  000BB4  2223               	addwfc	(___flmul@grs+3)^0,f,c
  3758  000BB6  502B               	movf	(___flmul@temp+1)^0,w,c
  3759  000BB8  2626               	addwf	___flmul@prod^0,f,c
  3760  000BBA  0E00               	movlw	0
  3761  000BBC  2227               	addwfc	(___flmul@prod+1)^0,f,c
  3762  000BBE  2228               	addwfc	(___flmul@prod+2)^0,f,c
  3763  000BC0  2229               	addwfc	(___flmul@prod+3)^0,f,c
  3764  000BC2  C022  F023         	movff	___flmul@grs+2,___flmul@grs+3
  3765  000BC6  C021  F022         	movff	___flmul@grs+1,___flmul@grs+2
  3766  000BCA  C020  F021         	movff	___flmul@grs,___flmul@grs+1
  3767  000BCE  6A20               	clrf	___flmul@grs^0,c
  3768  000BD0  5017               	movf	___flmul@a^0,w,c
  3769  000BD2  0214               	mulwf	(___flmul@b+1)^0,c
  3770  000BD4  CFF3 F02A          	movff	prodl,___flmul@temp
  3771  000BD8  CFF4 F02B          	movff	prodh,___flmul@temp+1
  3772  000BDC  502A               	movf	___flmul@temp^0,w,c
  3773  000BDE  2620               	addwf	___flmul@grs^0,f,c
  3774  000BE0  502B               	movf	(___flmul@temp+1)^0,w,c
  3775  000BE2  2221               	addwfc	(___flmul@grs+1)^0,f,c
  3776  000BE4  0E00               	movlw	0
  3777  000BE6  2222               	addwfc	(___flmul@grs+2)^0,f,c
  3778  000BE8  0E00               	movlw	0
  3779  000BEA  2223               	addwfc	(___flmul@grs+3)^0,f,c
  3780  000BEC  5018               	movf	(___flmul@a+1)^0,w,c
  3781  000BEE  0213               	mulwf	___flmul@b^0,c
  3782  000BF0  CFF3 F02A          	movff	prodl,___flmul@temp
  3783  000BF4  CFF4 F02B          	movff	prodh,___flmul@temp+1
  3784  000BF8  502A               	movf	___flmul@temp^0,w,c
  3785  000BFA  2620               	addwf	___flmul@grs^0,f,c
  3786  000BFC  502B               	movf	(___flmul@temp+1)^0,w,c
  3787  000BFE  2221               	addwfc	(___flmul@grs+1)^0,f,c
  3788  000C00  0E00               	movlw	0
  3789  000C02  2222               	addwfc	(___flmul@grs+2)^0,f,c
  3790  000C04  0E00               	movlw	0
  3791  000C06  2223               	addwfc	(___flmul@grs+3)^0,f,c
  3792  000C08  C022  F023         	movff	___flmul@grs+2,___flmul@grs+3
  3793  000C0C  C021  F022         	movff	___flmul@grs+1,___flmul@grs+2
  3794  000C10  C020  F021         	movff	___flmul@grs,___flmul@grs+1
  3795  000C14  6A20               	clrf	___flmul@grs^0,c
  3796  000C16  5017               	movf	___flmul@a^0,w,c
  3797  000C18  0213               	mulwf	___flmul@b^0,c
  3798  000C1A  CFF3 F02A          	movff	prodl,___flmul@temp
  3799  000C1E  CFF4 F02B          	movff	prodh,___flmul@temp+1
  3800  000C22  502A               	movf	___flmul@temp^0,w,c
  3801  000C24  2620               	addwf	___flmul@grs^0,f,c
  3802  000C26  502B               	movf	(___flmul@temp+1)^0,w,c
  3803  000C28  2221               	addwfc	(___flmul@grs+1)^0,f,c
  3804  000C2A  0E00               	movlw	0
  3805  000C2C  2222               	addwfc	(___flmul@grs+2)^0,f,c
  3806  000C2E  0E00               	movlw	0
  3807  000C30  2223               	addwfc	(___flmul@grs+3)^0,f,c
  3808  000C32  5019               	movf	(___flmul@a+2)^0,w,c
  3809  000C34  0214               	mulwf	(___flmul@b+1)^0,c
  3810  000C36  CFF3 F02A          	movff	prodl,___flmul@temp
  3811  000C3A  CFF4 F02B          	movff	prodh,___flmul@temp+1
  3812  000C3E  502A               	movf	___flmul@temp^0,w,c
  3813  000C40  2626               	addwf	___flmul@prod^0,f,c
  3814  000C42  502B               	movf	(___flmul@temp+1)^0,w,c
  3815  000C44  2227               	addwfc	(___flmul@prod+1)^0,f,c
  3816  000C46  0E00               	movlw	0
  3817  000C48  2228               	addwfc	(___flmul@prod+2)^0,f,c
  3818  000C4A  0E00               	movlw	0
  3819  000C4C  2229               	addwfc	(___flmul@prod+3)^0,f,c
  3820  000C4E  5018               	movf	(___flmul@a+1)^0,w,c
  3821  000C50  0215               	mulwf	(___flmul@b+2)^0,c
  3822  000C52  CFF3 F02A          	movff	prodl,___flmul@temp
  3823  000C56  CFF4 F02B          	movff	prodh,___flmul@temp+1
  3824  000C5A  502A               	movf	___flmul@temp^0,w,c
  3825  000C5C  2626               	addwf	___flmul@prod^0,f,c
  3826  000C5E  502B               	movf	(___flmul@temp+1)^0,w,c
  3827  000C60  2227               	addwfc	(___flmul@prod+1)^0,f,c
  3828  000C62  0E00               	movlw	0
  3829  000C64  2228               	addwfc	(___flmul@prod+2)^0,f,c
  3830  000C66  0E00               	movlw	0
  3831  000C68  2229               	addwfc	(___flmul@prod+3)^0,f,c
  3832  000C6A  5019               	movf	(___flmul@a+2)^0,w,c
  3833  000C6C  0215               	mulwf	(___flmul@b+2)^0,c
  3834  000C6E  CFF3 F02A          	movff	prodl,___flmul@temp
  3835  000C72  CFF4 F02B          	movff	prodh,___flmul@temp+1
  3836  000C76  502A               	movf	___flmul@temp^0,w,c
  3837  000C78  6E1B               	movwf	??___flmul^0,c
  3838  000C7A  502B               	movf	(___flmul@temp+1)^0,w,c
  3839  000C7C  6E1C               	movwf	(??___flmul+1)^0,c
  3840  000C7E  6A1D               	clrf	(??___flmul+2)^0,c
  3841  000C80  6A1E               	clrf	(??___flmul+3)^0,c
  3842  000C82  C01D  F01E         	movff	??___flmul+2,??___flmul+3
  3843  000C86  C01C  F01D         	movff	??___flmul+1,??___flmul+2
  3844  000C8A  C01B  F01C         	movff	??___flmul,??___flmul+1
  3845  000C8E  6A1B               	clrf	??___flmul^0,c
  3846  000C90  501B               	movf	??___flmul^0,w,c
  3847  000C92  2626               	addwf	___flmul@prod^0,f,c
  3848  000C94  501C               	movf	(??___flmul+1)^0,w,c
  3849  000C96  2227               	addwfc	(___flmul@prod+1)^0,f,c
  3850  000C98  501D               	movf	(??___flmul+2)^0,w,c
  3851  000C9A  2228               	addwfc	(___flmul@prod+2)^0,f,c
  3852  000C9C  501E               	movf	(??___flmul+3)^0,w,c
  3853  000C9E  2229               	addwfc	(___flmul@prod+3)^0,f,c
  3854  000CA0  C020  F01B         	movff	___flmul@grs,??___flmul
  3855  000CA4  C021  F01C         	movff	___flmul@grs+1,??___flmul+1
  3856  000CA8  C022  F01D         	movff	___flmul@grs+2,??___flmul+2
  3857  000CAC  C023  F01E         	movff	___flmul@grs+3,??___flmul+3
  3858  000CB0  0E19               	movlw	25
  3859  000CB2  EF60  F006         	goto	i2u282_40
  3860  000CB6                     i2u282_45:
  3861  000CB6  90D8               	bcf	status,0,c
  3862  000CB8  321E               	rrcf	(??___flmul+3)^0,f,c
  3863  000CBA  321D               	rrcf	(??___flmul+2)^0,f,c
  3864  000CBC  321C               	rrcf	(??___flmul+1)^0,f,c
  3865  000CBE  321B               	rrcf	??___flmul^0,f,c
  3866  000CC0                     i2u282_40:
  3867  000CC0  2EE8               	decfsz	wreg,f,c
  3868  000CC2  EF5B  F006         	goto	i2u282_45
  3869  000CC6  501B               	movf	??___flmul^0,w,c
  3870  000CC8  2626               	addwf	___flmul@prod^0,f,c
  3871  000CCA  501C               	movf	(??___flmul+1)^0,w,c
  3872  000CCC  2227               	addwfc	(___flmul@prod+1)^0,f,c
  3873  000CCE  501D               	movf	(??___flmul+2)^0,w,c
  3874  000CD0  2228               	addwfc	(___flmul@prod+2)^0,f,c
  3875  000CD2  501E               	movf	(??___flmul+3)^0,w,c
  3876  000CD4  2229               	addwfc	(___flmul@prod+3)^0,f,c
  3877  000CD6  C022  F023         	movff	___flmul@grs+2,___flmul@grs+3
  3878  000CDA  C021  F022         	movff	___flmul@grs+1,___flmul@grs+2
  3879  000CDE  C020  F021         	movff	___flmul@grs,___flmul@grs+1
  3880  000CE2  6A20               	clrf	___flmul@grs^0,c
  3881  000CE4  5024               	movf	___flmul@aexp^0,w,c
  3882  000CE6  C025  F01B         	movff	___flmul@bexp,??___flmul
  3883  000CEA  6A1C               	clrf	(??___flmul+1)^0,c
  3884  000CEC  261B               	addwf	??___flmul^0,f,c
  3885  000CEE  0E00               	movlw	0
  3886  000CF0  221C               	addwfc	(??___flmul+1)^0,f,c
  3887  000CF2  0E82               	movlw	130
  3888  000CF4  241B               	addwf	??___flmul^0,w,c
  3889  000CF6  6E2A               	movwf	___flmul@temp^0,c
  3890  000CF8  0EFF               	movlw	255
  3891  000CFA  201C               	addwfc	(??___flmul+1)^0,w,c
  3892  000CFC  6E2B               	movwf	(___flmul@temp+1)^0,c
  3893  000CFE  EF96  F006         	goto	i2l2670
  3894  000D02                     i2l2664:
  3895  000D02  90D8               	bcf	status,0,c
  3896  000D04  3626               	rlcf	___flmul@prod^0,f,c
  3897  000D06  3627               	rlcf	(___flmul@prod+1)^0,f,c
  3898  000D08  3628               	rlcf	(___flmul@prod+2)^0,f,c
  3899  000D0A  3629               	rlcf	(___flmul@prod+3)^0,f,c
  3900  000D0C  AE23               	btfss	(___flmul@grs+3)^0,7,c
  3901  000D0E  EF8B  F006         	goto	i2u283_41
  3902  000D12  EF8D  F006         	goto	i2u283_40
  3903  000D16                     i2u283_41:
  3904  000D16  EF8E  F006         	goto	i2l834
  3905  000D1A                     i2u283_40:
  3906  000D1A  8026               	bsf	___flmul@prod^0,0,c
  3907  000D1C                     i2l834:
  3908  000D1C  90D8               	bcf	status,0,c
  3909  000D1E  3620               	rlcf	___flmul@grs^0,f,c
  3910  000D20  3621               	rlcf	(___flmul@grs+1)^0,f,c
  3911  000D22  3622               	rlcf	(___flmul@grs+2)^0,f,c
  3912  000D24  3623               	rlcf	(___flmul@grs+3)^0,f,c
  3913  000D26  062A               	decf	___flmul@temp^0,f,c
  3914  000D28  A0D8               	btfss	status,0,c
  3915  000D2A  062B               	decf	(___flmul@temp+1)^0,f,c
  3916  000D2C                     i2l2670:
  3917  000D2C  AE28               	btfss	(___flmul@prod+2)^0,7,c
  3918  000D2E  EF9B  F006         	goto	i2u284_41
  3919  000D32  EF9D  F006         	goto	i2u284_40
  3920  000D36                     i2u284_41:
  3921  000D36  EF81  F006         	goto	i2l2664
  3922  000D3A                     i2u284_40:
  3923  000D3A  0E00               	movlw	0
  3924  000D3C  6E24               	movwf	___flmul@aexp^0,c
  3925  000D3E  AE23               	btfss	(___flmul@grs+3)^0,7,c
  3926  000D40  EFA4  F006         	goto	i2u285_41
  3927  000D44  EFA6  F006         	goto	i2u285_40
  3928  000D48                     i2u285_41:
  3929  000D48  EFCA  F006         	goto	i2l836
  3930  000D4C                     i2u285_40:
  3931  000D4C  0EFF               	movlw	255
  3932  000D4E  1420               	andwf	___flmul@grs^0,w,c
  3933  000D50  6E1B               	movwf	??___flmul^0,c
  3934  000D52  0EFF               	movlw	255
  3935  000D54  1421               	andwf	(___flmul@grs+1)^0,w,c
  3936  000D56  6E1C               	movwf	(??___flmul+1)^0,c
  3937  000D58  0EFF               	movlw	255
  3938  000D5A  1422               	andwf	(___flmul@grs+2)^0,w,c
  3939  000D5C  6E1D               	movwf	(??___flmul+2)^0,c
  3940  000D5E  0E7F               	movlw	127
  3941  000D60  1423               	andwf	(___flmul@grs+3)^0,w,c
  3942  000D62  6E1E               	movwf	(??___flmul+3)^0,c
  3943  000D64  501B               	movf	??___flmul^0,w,c
  3944  000D66  101C               	iorwf	(??___flmul+1)^0,w,c
  3945  000D68  101D               	iorwf	(??___flmul+2)^0,w,c
  3946  000D6A  101E               	iorwf	(??___flmul+3)^0,w,c
  3947  000D6C  B4D8               	btfsc	status,2,c
  3948  000D6E  EFBB  F006         	goto	i2u286_41
  3949  000D72  EFBD  F006         	goto	i2u286_40
  3950  000D76                     i2u286_41:
  3951  000D76  EFC1  F006         	goto	i2l837
  3952  000D7A                     i2u286_40:
  3953  000D7A                     i2l2678:
  3954  000D7A  0E01               	movlw	1
  3955  000D7C  6E24               	movwf	___flmul@aexp^0,c
  3956  000D7E  EFCA  F006         	goto	i2l836
  3957  000D82                     i2l837:
  3958  000D82  A026               	btfss	___flmul@prod^0,0,c
  3959  000D84  EFC6  F006         	goto	i2u287_41
  3960  000D88  EFC8  F006         	goto	i2u287_40
  3961  000D8C                     i2u287_41:
  3962  000D8C  EFCA  F006         	goto	i2l836
  3963  000D90                     i2u287_40:
  3964  000D90  EFBD  F006         	goto	i2l2678
  3965  000D94                     i2l836:
  3966  000D94  5024               	movf	___flmul@aexp^0,w,c
  3967  000D96  B4D8               	btfsc	status,2,c
  3968  000D98  EFD0  F006         	goto	i2u288_41
  3969  000D9C  EFD2  F006         	goto	i2u288_40
  3970  000DA0                     i2u288_41:
  3971  000DA0  EFF6  F006         	goto	i2l2690
  3972  000DA4                     i2u288_40:
  3973  000DA4  0E01               	movlw	1
  3974  000DA6  2626               	addwf	___flmul@prod^0,f,c
  3975  000DA8  0E00               	movlw	0
  3976  000DAA  2227               	addwfc	(___flmul@prod+1)^0,f,c
  3977  000DAC  2228               	addwfc	(___flmul@prod+2)^0,f,c
  3978  000DAE  2229               	addwfc	(___flmul@prod+3)^0,f,c
  3979  000DB0  A029               	btfss	(___flmul@prod+3)^0,0,c
  3980  000DB2  EFDD  F006         	goto	i2u289_41
  3981  000DB6  EFDF  F006         	goto	i2u289_40
  3982  000DBA                     i2u289_41:
  3983  000DBA  EFF6  F006         	goto	i2l2690
  3984  000DBE                     i2u289_40:
  3985  000DBE  C026  F01B         	movff	___flmul@prod,??___flmul
  3986  000DC2  C027  F01C         	movff	___flmul@prod+1,??___flmul+1
  3987  000DC6  C028  F01D         	movff	___flmul@prod+2,??___flmul+2
  3988  000DCA  C029  F01E         	movff	___flmul@prod+3,??___flmul+3
  3989  000DCE  341E               	rlcf	(??___flmul+3)^0,w,c
  3990  000DD0  321E               	rrcf	(??___flmul+3)^0,f,c
  3991  000DD2  321D               	rrcf	(??___flmul+2)^0,f,c
  3992  000DD4  321C               	rrcf	(??___flmul+1)^0,f,c
  3993  000DD6  321B               	rrcf	??___flmul^0,f,c
  3994  000DD8  C01B  F026         	movff	??___flmul,___flmul@prod
  3995  000DDC  C01C  F027         	movff	??___flmul+1,___flmul@prod+1
  3996  000DE0  C01D  F028         	movff	??___flmul+2,___flmul@prod+2
  3997  000DE4  C01E  F029         	movff	??___flmul+3,___flmul@prod+3
  3998  000DE8  4A2A               	infsnz	___flmul@temp^0,f,c
  3999  000DEA  2A2B               	incf	(___flmul@temp+1)^0,f,c
  4000  000DEC                     i2l2690:
  4001  000DEC  BE2B               	btfsc	(___flmul@temp+1)^0,7,c
  4002  000DEE  EF01  F007         	goto	i2u290_41
  4003  000DF2  502B               	movf	(___flmul@temp+1)^0,w,c
  4004  000DF4  E108               	bnz	i2u290_40
  4005  000DF6  282A               	incf	___flmul@temp^0,w,c
  4006  000DF8  A0D8               	btfss	status,0,c
  4007  000DFA  EF01  F007         	goto	i2u290_41
  4008  000DFE  EF03  F007         	goto	i2u290_40
  4009  000E02                     i2u290_41:
  4010  000E02  EF0D  F007         	goto	i2l2694
  4011  000E06                     i2u290_40:
  4012  000E06  0E00               	movlw	0
  4013  000E08  6E26               	movwf	___flmul@prod^0,c
  4014  000E0A  0E00               	movlw	0
  4015  000E0C  6E27               	movwf	(___flmul@prod+1)^0,c
  4016  000E0E  0E80               	movlw	128
  4017  000E10  6E28               	movwf	(___flmul@prod+2)^0,c
  4018  000E12  0E7F               	movlw	127
  4019  000E14  6E29               	movwf	(___flmul@prod+3)^0,c
  4020  000E16  EF3B  F007         	goto	i2l2706
  4021  000E1A                     i2l2694:
  4022  000E1A  BE2B               	btfsc	(___flmul@temp+1)^0,7,c
  4023  000E1C  EF1A  F007         	goto	i2u291_40
  4024  000E20  502B               	movf	(___flmul@temp+1)^0,w,c
  4025  000E22  E106               	bnz	i2u291_41
  4026  000E24  042A               	decf	___flmul@temp^0,w,c
  4027  000E26  B0D8               	btfsc	status,0,c
  4028  000E28  EF18  F007         	goto	i2u291_41
  4029  000E2C  EF1A  F007         	goto	i2u291_40
  4030  000E30                     i2u291_41:
  4031  000E30  EF26  F007         	goto	i2l844
  4032  000E34                     i2u291_40:
  4033  000E34  0E00               	movlw	0
  4034  000E36  6E26               	movwf	___flmul@prod^0,c
  4035  000E38  0E00               	movlw	0
  4036  000E3A  6E27               	movwf	(___flmul@prod+1)^0,c
  4037  000E3C  0E00               	movlw	0
  4038  000E3E  6E28               	movwf	(___flmul@prod+2)^0,c
  4039  000E40  0E00               	movlw	0
  4040  000E42  6E29               	movwf	(___flmul@prod+3)^0,c
  4041  000E44  0E00               	movlw	0
  4042  000E46  6E1F               	movwf	___flmul@sign^0,c
  4043  000E48  EF3B  F007         	goto	i2l2706
  4044  000E4C                     i2l844:
  4045  000E4C  C02A  F025         	movff	___flmul@temp,___flmul@bexp
  4046  000E50  0EFF               	movlw	255
  4047  000E52  1626               	andwf	___flmul@prod^0,f,c
  4048  000E54  0EFF               	movlw	255
  4049  000E56  1627               	andwf	(___flmul@prod+1)^0,f,c
  4050  000E58  0E7F               	movlw	127
  4051  000E5A  1628               	andwf	(___flmul@prod+2)^0,f,c
  4052  000E5C  0E00               	movlw	0
  4053  000E5E  1629               	andwf	(___flmul@prod+3)^0,f,c
  4054  000E60  A025               	btfss	___flmul@bexp^0,0,c
  4055  000E62  EF35  F007         	goto	i2u292_41
  4056  000E66  EF37  F007         	goto	i2u292_40
  4057  000E6A                     i2u292_41:
  4058  000E6A  EF38  F007         	goto	i2l2704
  4059  000E6E                     i2u292_40:
  4060  000E6E  8E28               	bsf	(___flmul@prod+2)^0,7,c
  4061  000E70                     i2l2704:
  4062  000E70  90D8               	bcf	status,0,c
  4063  000E72  3025               	rrcf	___flmul@bexp^0,w,c
  4064  000E74  6E29               	movwf	(___flmul@prod+3)^0,c
  4065  000E76                     i2l2706:
  4066  000E76  501F               	movf	___flmul@sign^0,w,c
  4067  000E78  1229               	iorwf	(___flmul@prod+3)^0,f,c
  4068  000E7A  C026  F013         	movff	___flmul@prod,?___flmul
  4069  000E7E  C027  F014         	movff	___flmul@prod+1,?___flmul+1
  4070  000E82  C028  F015         	movff	___flmul@prod+2,?___flmul+2
  4071  000E86  C029  F016         	movff	___flmul@prod+3,?___flmul+3
  4072  000E8A                     i2l831:
  4073  000E8A  0012               	return		;funcret
  4074  000E8C                     __end_of___flmul:
  4075                           	callstack 0
  4076                           
  4077 ;; *************** function ___fldiv *****************
  4078 ;; Defined at:
  4079 ;;		line 11 in file "C:\Program Files\Microchip\xc8\v2.32\pic\sources\c90\common\sprcdiv.c"
  4080 ;; Parameters:    Size  Location     Type
  4081 ;;  b               4   43[COMRAM] unsigned char 
  4082 ;;  a               4   47[COMRAM] unsigned char 
  4083 ;; Auto vars:     Size  Location     Type
  4084 ;;  grs             4   62[COMRAM] unsigned long 
  4085 ;;  rem             4   55[COMRAM] unsigned long 
  4086 ;;  new_exp         2   60[COMRAM] int 
  4087 ;;  aexp            1   67[COMRAM] unsigned char 
  4088 ;;  bexp            1   66[COMRAM] unsigned char 
  4089 ;;  sign            1   59[COMRAM] unsigned char 
  4090 ;; Return value:  Size  Location     Type
  4091 ;;                  4   43[COMRAM] unsigned char 
  4092 ;; Registers used:
  4093 ;;		wreg, status,2, status,0
  4094 ;; Tracked objects:
  4095 ;;		On entry : 0/0
  4096 ;;		On exit  : 0/0
  4097 ;;		Unchanged: 0/0
  4098 ;; Data sizes:     COMRAM   BANK0   BANK1   BANK2
  4099 ;;      Params:         8       0       0       0
  4100 ;;      Locals:        13       0       0       0
  4101 ;;      Temps:          4       0       0       0
  4102 ;;      Totals:        25       0       0       0
  4103 ;;Total ram usage:       25 bytes
  4104 ;; Hardware stack levels used: 1
  4105 ;; This function calls:
  4106 ;;		Nothing
  4107 ;; This function is called by:
  4108 ;;		_ISR
  4109 ;; This function uses a non-reentrant model
  4110 ;;
  4111                           
  4112                           	psect	text19
  4113  000E8C                     __ptext19:
  4114                           	callstack 0
  4115  000E8C                     ___fldiv:
  4116                           	callstack 28
  4117  000E8C  502F               	movf	(___fldiv@b+3)^0,w,c
  4118  000E8E  0B80               	andlw	128
  4119  000E90  6E3C               	movwf	___fldiv@sign^0,c
  4120  000E92  502F               	movf	(___fldiv@b+3)^0,w,c
  4121  000E94  242F               	addwf	(___fldiv@b+3)^0,w,c
  4122  000E96  6E43               	movwf	___fldiv@bexp^0,c
  4123  000E98  AE2E               	btfss	(___fldiv@b+2)^0,7,c
  4124  000E9A  EF51  F007         	goto	i2u251_41
  4125  000E9E  EF53  F007         	goto	i2u251_40
  4126  000EA2                     i2u251_41:
  4127  000EA2  EF54  F007         	goto	i2l2450
  4128  000EA6                     i2u251_40:
  4129  000EA6  8043               	bsf	___fldiv@bexp^0,0,c
  4130  000EA8                     i2l2450:
  4131  000EA8  5043               	movf	___fldiv@bexp^0,w,c
  4132  000EAA  B4D8               	btfsc	status,2,c
  4133  000EAC  EF5A  F007         	goto	i2u252_41
  4134  000EB0  EF5C  F007         	goto	i2u252_40
  4135  000EB4                     i2u252_41:
  4136  000EB4  EF71  F007         	goto	i2l2460
  4137  000EB8                     i2u252_40:
  4138  000EB8  2843               	incf	___fldiv@bexp^0,w,c
  4139  000EBA  A4D8               	btfss	status,2,c
  4140  000EBC  EF62  F007         	goto	i2u253_41
  4141  000EC0  EF64  F007         	goto	i2u253_40
  4142  000EC4                     i2u253_41:
  4143  000EC4  EF6C  F007         	goto	i2l2456
  4144  000EC8                     i2u253_40:
  4145  000EC8  0E00               	movlw	0
  4146  000ECA  6E2C               	movwf	___fldiv@b^0,c
  4147  000ECC  0E00               	movlw	0
  4148  000ECE  6E2D               	movwf	(___fldiv@b+1)^0,c
  4149  000ED0  0E00               	movlw	0
  4150  000ED2  6E2E               	movwf	(___fldiv@b+2)^0,c
  4151  000ED4  0E00               	movlw	0
  4152  000ED6  6E2F               	movwf	(___fldiv@b+3)^0,c
  4153  000ED8                     i2l2456:
  4154  000ED8  8E2E               	bsf	(___fldiv@b+2)^0,7,c
  4155  000EDA  0E00               	movlw	0
  4156  000EDC  6E2F               	movwf	(___fldiv@b+3)^0,c
  4157  000EDE  EF79  F007         	goto	i2l2462
  4158  000EE2                     i2l2460:
  4159  000EE2  0E00               	movlw	0
  4160  000EE4  6E2C               	movwf	___fldiv@b^0,c
  4161  000EE6  0E00               	movlw	0
  4162  000EE8  6E2D               	movwf	(___fldiv@b+1)^0,c
  4163  000EEA  0E00               	movlw	0
  4164  000EEC  6E2E               	movwf	(___fldiv@b+2)^0,c
  4165  000EEE  0E00               	movlw	0
  4166  000EF0  6E2F               	movwf	(___fldiv@b+3)^0,c
  4167  000EF2                     i2l2462:
  4168  000EF2  5033               	movf	(___fldiv@a+3)^0,w,c
  4169  000EF4  0B80               	andlw	128
  4170  000EF6  1A3C               	xorwf	___fldiv@sign^0,f,c
  4171  000EF8  5033               	movf	(___fldiv@a+3)^0,w,c
  4172  000EFA  2433               	addwf	(___fldiv@a+3)^0,w,c
  4173  000EFC  6E44               	movwf	___fldiv@aexp^0,c
  4174  000EFE  AE32               	btfss	(___fldiv@a+2)^0,7,c
  4175  000F00  EF84  F007         	goto	i2u254_41
  4176  000F04  EF86  F007         	goto	i2u254_40
  4177  000F08                     i2u254_41:
  4178  000F08  EF87  F007         	goto	i2l2470
  4179  000F0C                     i2u254_40:
  4180  000F0C  8044               	bsf	___fldiv@aexp^0,0,c
  4181  000F0E                     i2l2470:
  4182  000F0E  5044               	movf	___fldiv@aexp^0,w,c
  4183  000F10  B4D8               	btfsc	status,2,c
  4184  000F12  EF8D  F007         	goto	i2u255_41
  4185  000F16  EF8F  F007         	goto	i2u255_40
  4186  000F1A                     i2u255_41:
  4187  000F1A  EFA4  F007         	goto	i2l2480
  4188  000F1E                     i2u255_40:
  4189  000F1E  2844               	incf	___fldiv@aexp^0,w,c
  4190  000F20  A4D8               	btfss	status,2,c
  4191  000F22  EF95  F007         	goto	i2u256_41
  4192  000F26  EF97  F007         	goto	i2u256_40
  4193  000F2A                     i2u256_41:
  4194  000F2A  EF9F  F007         	goto	i2l2476
  4195  000F2E                     i2u256_40:
  4196  000F2E  0E00               	movlw	0
  4197  000F30  6E30               	movwf	___fldiv@a^0,c
  4198  000F32  0E00               	movlw	0
  4199  000F34  6E31               	movwf	(___fldiv@a+1)^0,c
  4200  000F36  0E00               	movlw	0
  4201  000F38  6E32               	movwf	(___fldiv@a+2)^0,c
  4202  000F3A  0E00               	movlw	0
  4203  000F3C  6E33               	movwf	(___fldiv@a+3)^0,c
  4204  000F3E                     i2l2476:
  4205  000F3E  8E32               	bsf	(___fldiv@a+2)^0,7,c
  4206  000F40  0E00               	movlw	0
  4207  000F42  6E33               	movwf	(___fldiv@a+3)^0,c
  4208  000F44  EFAC  F007         	goto	i2l2482
  4209  000F48                     i2l2480:
  4210  000F48  0E00               	movlw	0
  4211  000F4A  6E30               	movwf	___fldiv@a^0,c
  4212  000F4C  0E00               	movlw	0
  4213  000F4E  6E31               	movwf	(___fldiv@a+1)^0,c
  4214  000F50  0E00               	movlw	0
  4215  000F52  6E32               	movwf	(___fldiv@a+2)^0,c
  4216  000F54  0E00               	movlw	0
  4217  000F56  6E33               	movwf	(___fldiv@a+3)^0,c
  4218  000F58                     i2l2482:
  4219  000F58  5030               	movf	___fldiv@a^0,w,c
  4220  000F5A  1031               	iorwf	(___fldiv@a+1)^0,w,c
  4221  000F5C  1032               	iorwf	(___fldiv@a+2)^0,w,c
  4222  000F5E  1033               	iorwf	(___fldiv@a+3)^0,w,c
  4223  000F60  A4D8               	btfss	status,2,c
  4224  000F62  EFB5  F007         	goto	i2u257_41
  4225  000F66  EFB7  F007         	goto	i2u257_40
  4226  000F6A                     i2u257_41:
  4227  000F6A  EFCF  F007         	goto	i2l2494
  4228  000F6E                     i2u257_40:
  4229  000F6E  0E00               	movlw	0
  4230  000F70  6E2C               	movwf	___fldiv@b^0,c
  4231  000F72  0E00               	movlw	0
  4232  000F74  6E2D               	movwf	(___fldiv@b+1)^0,c
  4233  000F76  0E00               	movlw	0
  4234  000F78  6E2E               	movwf	(___fldiv@b+2)^0,c
  4235  000F7A  0E00               	movlw	0
  4236  000F7C  6E2F               	movwf	(___fldiv@b+3)^0,c
  4237  000F7E  0E80               	movlw	128
  4238  000F80  122E               	iorwf	(___fldiv@b+2)^0,f,c
  4239  000F82  0E7F               	movlw	127
  4240  000F84  122F               	iorwf	(___fldiv@b+3)^0,f,c
  4241  000F86                     i2l2488:
  4242  000F86  503C               	movf	___fldiv@sign^0,w,c
  4243  000F88  122F               	iorwf	(___fldiv@b+3)^0,f,c
  4244  000F8A  C02C  F02C         	movff	___fldiv@b,?___fldiv
  4245  000F8E  C02D  F02D         	movff	___fldiv@b+1,?___fldiv+1
  4246  000F92  C02E  F02E         	movff	___fldiv@b+2,?___fldiv+2
  4247  000F96  C02F  F02F         	movff	___fldiv@b+3,?___fldiv+3
  4248  000F9A  EF12  F009         	goto	i2l795
  4249  000F9E                     i2l2494:
  4250  000F9E  5043               	movf	___fldiv@bexp^0,w,c
  4251  000FA0  A4D8               	btfss	status,2,c
  4252  000FA2  EFD5  F007         	goto	i2u258_41
  4253  000FA6  EFD7  F007         	goto	i2u258_40
  4254  000FAA                     i2u258_41:
  4255  000FAA  EFE1  F007         	goto	i2l2502
  4256  000FAE                     i2u258_40:
  4257  000FAE  0E00               	movlw	0
  4258  000FB0  6E2C               	movwf	?___fldiv^0,c
  4259  000FB2  0E00               	movlw	0
  4260  000FB4  6E2D               	movwf	(?___fldiv+1)^0,c
  4261  000FB6  0E00               	movlw	0
  4262  000FB8  6E2E               	movwf	(?___fldiv+2)^0,c
  4263  000FBA  0E00               	movlw	0
  4264  000FBC  6E2F               	movwf	(?___fldiv+3)^0,c
  4265  000FBE  EF12  F009         	goto	i2l795
  4266  000FC2                     i2l2502:
  4267  000FC2  5044               	movf	___fldiv@aexp^0,w,c
  4268  000FC4  C043  F034         	movff	___fldiv@bexp,??___fldiv
  4269  000FC8  6A35               	clrf	(??___fldiv+1)^0,c
  4270  000FCA  5E34               	subwf	??___fldiv^0,f,c
  4271  000FCC  0E00               	movlw	0
  4272  000FCE  5A35               	subwfb	(??___fldiv+1)^0,f,c
  4273  000FD0  0E7F               	movlw	127
  4274  000FD2  2434               	addwf	??___fldiv^0,w,c
  4275  000FD4  6E3D               	movwf	___fldiv@new_exp^0,c
  4276  000FD6  0E00               	movlw	0
  4277  000FD8  2035               	addwfc	(??___fldiv+1)^0,w,c
  4278  000FDA  6E3E               	movwf	(___fldiv@new_exp+1)^0,c
  4279  000FDC  C02C  F038         	movff	___fldiv@b,___fldiv@rem
  4280  000FE0  C02D  F039         	movff	___fldiv@b+1,___fldiv@rem+1
  4281  000FE4  C02E  F03A         	movff	___fldiv@b+2,___fldiv@rem+2
  4282  000FE8  C02F  F03B         	movff	___fldiv@b+3,___fldiv@rem+3
  4283  000FEC  0E00               	movlw	0
  4284  000FEE  6E2C               	movwf	___fldiv@b^0,c
  4285  000FF0  0E00               	movlw	0
  4286  000FF2  6E2D               	movwf	(___fldiv@b+1)^0,c
  4287  000FF4  0E00               	movlw	0
  4288  000FF6  6E2E               	movwf	(___fldiv@b+2)^0,c
  4289  000FF8  0E00               	movlw	0
  4290  000FFA  6E2F               	movwf	(___fldiv@b+3)^0,c
  4291  000FFC  0E00               	movlw	0
  4292  000FFE  6E3F               	movwf	___fldiv@grs^0,c
  4293  001000  0E00               	movlw	0
  4294  001002  6E40               	movwf	(___fldiv@grs+1)^0,c
  4295  001004  0E00               	movlw	0
  4296  001006  6E41               	movwf	(___fldiv@grs+2)^0,c
  4297  001008  0E00               	movlw	0
  4298  00100A  6E42               	movwf	(___fldiv@grs+3)^0,c
  4299  00100C  0E00               	movlw	0
  4300  00100E  6E44               	movwf	___fldiv@aexp^0,c
  4301  001010  EF42  F008         	goto	i2l797
  4302  001014                     i2l2512:
  4303  001014  5044               	movf	___fldiv@aexp^0,w,c
  4304  001016  B4D8               	btfsc	status,2,c
  4305  001018  EF10  F008         	goto	i2u259_41
  4306  00101C  EF12  F008         	goto	i2u259_40
  4307  001020                     i2u259_41:
  4308  001020  EF29  F008         	goto	i2l2520
  4309  001024                     i2u259_40:
  4310  001024  90D8               	bcf	status,0,c
  4311  001026  3638               	rlcf	___fldiv@rem^0,f,c
  4312  001028  3639               	rlcf	(___fldiv@rem+1)^0,f,c
  4313  00102A  363A               	rlcf	(___fldiv@rem+2)^0,f,c
  4314  00102C  363B               	rlcf	(___fldiv@rem+3)^0,f,c
  4315  00102E  90D8               	bcf	status,0,c
  4316  001030  362C               	rlcf	___fldiv@b^0,f,c
  4317  001032  362D               	rlcf	(___fldiv@b+1)^0,f,c
  4318  001034  362E               	rlcf	(___fldiv@b+2)^0,f,c
  4319  001036  362F               	rlcf	(___fldiv@b+3)^0,f,c
  4320  001038  AE42               	btfss	(___fldiv@grs+3)^0,7,c
  4321  00103A  EF21  F008         	goto	i2u260_41
  4322  00103E  EF23  F008         	goto	i2u260_40
  4323  001042                     i2u260_41:
  4324  001042  EF24  F008         	goto	i2l800
  4325  001046                     i2u260_40:
  4326  001046  802C               	bsf	___fldiv@b^0,0,c
  4327  001048                     i2l800:
  4328  001048  90D8               	bcf	status,0,c
  4329  00104A  363F               	rlcf	___fldiv@grs^0,f,c
  4330  00104C  3640               	rlcf	(___fldiv@grs+1)^0,f,c
  4331  00104E  3641               	rlcf	(___fldiv@grs+2)^0,f,c
  4332  001050  3642               	rlcf	(___fldiv@grs+3)^0,f,c
  4333  001052                     i2l2520:
  4334  001052  5030               	movf	___fldiv@a^0,w,c
  4335  001054  5C38               	subwf	___fldiv@rem^0,w,c
  4336  001056  5031               	movf	(___fldiv@a+1)^0,w,c
  4337  001058  5839               	subwfb	(___fldiv@rem+1)^0,w,c
  4338  00105A  5032               	movf	(___fldiv@a+2)^0,w,c
  4339  00105C  583A               	subwfb	(___fldiv@rem+2)^0,w,c
  4340  00105E  5033               	movf	(___fldiv@a+3)^0,w,c
  4341  001060  583B               	subwfb	(___fldiv@rem+3)^0,w,c
  4342  001062  A0D8               	btfss	status,0,c
  4343  001064  EF36  F008         	goto	i2u261_41
  4344  001068  EF38  F008         	goto	i2u261_40
  4345  00106C                     i2u261_41:
  4346  00106C  EF41  F008         	goto	i2l2526
  4347  001070                     i2u261_40:
  4348  001070  8C42               	bsf	(___fldiv@grs+3)^0,6,c
  4349  001072  5030               	movf	___fldiv@a^0,w,c
  4350  001074  5E38               	subwf	___fldiv@rem^0,f,c
  4351  001076  5031               	movf	(___fldiv@a+1)^0,w,c
  4352  001078  5A39               	subwfb	(___fldiv@rem+1)^0,f,c
  4353  00107A  5032               	movf	(___fldiv@a+2)^0,w,c
  4354  00107C  5A3A               	subwfb	(___fldiv@rem+2)^0,f,c
  4355  00107E  5033               	movf	(___fldiv@a+3)^0,w,c
  4356  001080  5A3B               	subwfb	(___fldiv@rem+3)^0,f,c
  4357  001082                     i2l2526:
  4358  001082  2A44               	incf	___fldiv@aexp^0,f,c
  4359  001084                     i2l797:
  4360  001084  0E19               	movlw	25
  4361  001086  6444               	cpfsgt	___fldiv@aexp^0,c
  4362  001088  EF48  F008         	goto	i2u262_41
  4363  00108C  EF4A  F008         	goto	i2u262_40
  4364  001090                     i2u262_41:
  4365  001090  EF0A  F008         	goto	i2l2512
  4366  001094                     i2u262_40:
  4367  001094  5038               	movf	___fldiv@rem^0,w,c
  4368  001096  1039               	iorwf	(___fldiv@rem+1)^0,w,c
  4369  001098  103A               	iorwf	(___fldiv@rem+2)^0,w,c
  4370  00109A  103B               	iorwf	(___fldiv@rem+3)^0,w,c
  4371  00109C  B4D8               	btfsc	status,2,c
  4372  00109E  EF53  F008         	goto	i2u263_41
  4373  0010A2  EF55  F008         	goto	i2u263_40
  4374  0010A6                     i2u263_41:
  4375  0010A6  EF6D  F008         	goto	i2l2538
  4376  0010AA                     i2u263_40:
  4377  0010AA  803F               	bsf	___fldiv@grs^0,0,c
  4378  0010AC  EF6D  F008         	goto	i2l2538
  4379  0010B0                     i2l2532:
  4380  0010B0  90D8               	bcf	status,0,c
  4381  0010B2  362C               	rlcf	___fldiv@b^0,f,c
  4382  0010B4  362D               	rlcf	(___fldiv@b+1)^0,f,c
  4383  0010B6  362E               	rlcf	(___fldiv@b+2)^0,f,c
  4384  0010B8  362F               	rlcf	(___fldiv@b+3)^0,f,c
  4385  0010BA  AE42               	btfss	(___fldiv@grs+3)^0,7,c
  4386  0010BC  EF62  F008         	goto	i2u264_41
  4387  0010C0  EF64  F008         	goto	i2u264_40
  4388  0010C4                     i2u264_41:
  4389  0010C4  EF65  F008         	goto	i2l806
  4390  0010C8                     i2u264_40:
  4391  0010C8  802C               	bsf	___fldiv@b^0,0,c
  4392  0010CA                     i2l806:
  4393  0010CA  90D8               	bcf	status,0,c
  4394  0010CC  363F               	rlcf	___fldiv@grs^0,f,c
  4395  0010CE  3640               	rlcf	(___fldiv@grs+1)^0,f,c
  4396  0010D0  3641               	rlcf	(___fldiv@grs+2)^0,f,c
  4397  0010D2  3642               	rlcf	(___fldiv@grs+3)^0,f,c
  4398  0010D4  063D               	decf	___fldiv@new_exp^0,f,c
  4399  0010D6  A0D8               	btfss	status,0,c
  4400  0010D8  063E               	decf	(___fldiv@new_exp+1)^0,f,c
  4401  0010DA                     i2l2538:
  4402  0010DA  AE2E               	btfss	(___fldiv@b+2)^0,7,c
  4403  0010DC  EF72  F008         	goto	i2u265_41
  4404  0010E0  EF74  F008         	goto	i2u265_40
  4405  0010E4                     i2u265_41:
  4406  0010E4  EF58  F008         	goto	i2l2532
  4407  0010E8                     i2u265_40:
  4408  0010E8  0E00               	movlw	0
  4409  0010EA  6E44               	movwf	___fldiv@aexp^0,c
  4410  0010EC  AE42               	btfss	(___fldiv@grs+3)^0,7,c
  4411  0010EE  EF7B  F008         	goto	i2u266_41
  4412  0010F2  EF7D  F008         	goto	i2u266_40
  4413  0010F6                     i2u266_41:
  4414  0010F6  EFA1  F008         	goto	i2l808
  4415  0010FA                     i2u266_40:
  4416  0010FA  0EFF               	movlw	255
  4417  0010FC  143F               	andwf	___fldiv@grs^0,w,c
  4418  0010FE  6E34               	movwf	??___fldiv^0,c
  4419  001100  0EFF               	movlw	255
  4420  001102  1440               	andwf	(___fldiv@grs+1)^0,w,c
  4421  001104  6E35               	movwf	(??___fldiv+1)^0,c
  4422  001106  0EFF               	movlw	255
  4423  001108  1441               	andwf	(___fldiv@grs+2)^0,w,c
  4424  00110A  6E36               	movwf	(??___fldiv+2)^0,c
  4425  00110C  0E7F               	movlw	127
  4426  00110E  1442               	andwf	(___fldiv@grs+3)^0,w,c
  4427  001110  6E37               	movwf	(??___fldiv+3)^0,c
  4428  001112  5034               	movf	??___fldiv^0,w,c
  4429  001114  1035               	iorwf	(??___fldiv+1)^0,w,c
  4430  001116  1036               	iorwf	(??___fldiv+2)^0,w,c
  4431  001118  1037               	iorwf	(??___fldiv+3)^0,w,c
  4432  00111A  B4D8               	btfsc	status,2,c
  4433  00111C  EF92  F008         	goto	i2u267_41
  4434  001120  EF94  F008         	goto	i2u267_40
  4435  001124                     i2u267_41:
  4436  001124  EF98  F008         	goto	i2l809
  4437  001128                     i2u267_40:
  4438  001128                     i2l2546:
  4439  001128  0E01               	movlw	1
  4440  00112A  6E44               	movwf	___fldiv@aexp^0,c
  4441  00112C  EFA1  F008         	goto	i2l808
  4442  001130                     i2l809:
  4443  001130  A02C               	btfss	___fldiv@b^0,0,c
  4444  001132  EF9D  F008         	goto	i2u268_41
  4445  001136  EF9F  F008         	goto	i2u268_40
  4446  00113A                     i2u268_41:
  4447  00113A  EFA1  F008         	goto	i2l808
  4448  00113E                     i2u268_40:
  4449  00113E  EF94  F008         	goto	i2l2546
  4450  001142                     i2l808:
  4451  001142  5044               	movf	___fldiv@aexp^0,w,c
  4452  001144  B4D8               	btfsc	status,2,c
  4453  001146  EFA7  F008         	goto	i2u269_41
  4454  00114A  EFA9  F008         	goto	i2u269_40
  4455  00114E                     i2u269_41:
  4456  00114E  EFCD  F008         	goto	i2l2558
  4457  001152                     i2u269_40:
  4458  001152  0E01               	movlw	1
  4459  001154  262C               	addwf	___fldiv@b^0,f,c
  4460  001156  0E00               	movlw	0
  4461  001158  222D               	addwfc	(___fldiv@b+1)^0,f,c
  4462  00115A  222E               	addwfc	(___fldiv@b+2)^0,f,c
  4463  00115C  222F               	addwfc	(___fldiv@b+3)^0,f,c
  4464  00115E  A02F               	btfss	(___fldiv@b+3)^0,0,c
  4465  001160  EFB4  F008         	goto	i2u270_41
  4466  001164  EFB6  F008         	goto	i2u270_40
  4467  001168                     i2u270_41:
  4468  001168  EFCD  F008         	goto	i2l2558
  4469  00116C                     i2u270_40:
  4470  00116C  C02C  F034         	movff	___fldiv@b,??___fldiv
  4471  001170  C02D  F035         	movff	___fldiv@b+1,??___fldiv+1
  4472  001174  C02E  F036         	movff	___fldiv@b+2,??___fldiv+2
  4473  001178  C02F  F037         	movff	___fldiv@b+3,??___fldiv+3
  4474  00117C  3437               	rlcf	(??___fldiv+3)^0,w,c
  4475  00117E  3237               	rrcf	(??___fldiv+3)^0,f,c
  4476  001180  3236               	rrcf	(??___fldiv+2)^0,f,c
  4477  001182  3235               	rrcf	(??___fldiv+1)^0,f,c
  4478  001184  3234               	rrcf	??___fldiv^0,f,c
  4479  001186  C034  F02C         	movff	??___fldiv,___fldiv@b
  4480  00118A  C035  F02D         	movff	??___fldiv+1,___fldiv@b+1
  4481  00118E  C036  F02E         	movff	??___fldiv+2,___fldiv@b+2
  4482  001192  C037  F02F         	movff	??___fldiv+3,___fldiv@b+3
  4483  001196  4A3D               	infsnz	___fldiv@new_exp^0,f,c
  4484  001198  2A3E               	incf	(___fldiv@new_exp+1)^0,f,c
  4485  00119A                     i2l2558:
  4486  00119A  BE3E               	btfsc	(___fldiv@new_exp+1)^0,7,c
  4487  00119C  EFD8  F008         	goto	i2u271_41
  4488  0011A0  503E               	movf	(___fldiv@new_exp+1)^0,w,c
  4489  0011A2  E108               	bnz	i2u271_40
  4490  0011A4  283D               	incf	___fldiv@new_exp^0,w,c
  4491  0011A6  A0D8               	btfss	status,0,c
  4492  0011A8  EFD8  F008         	goto	i2u271_41
  4493  0011AC  EFDA  F008         	goto	i2u271_40
  4494  0011B0                     i2u271_41:
  4495  0011B0  EFE5  F008         	goto	i2l2562
  4496  0011B4                     i2u271_40:
  4497  0011B4  0E00               	movlw	0
  4498  0011B6  6E3E               	movwf	(___fldiv@new_exp+1)^0,c
  4499  0011B8  683D               	setf	___fldiv@new_exp^0,c
  4500  0011BA  0E00               	movlw	0
  4501  0011BC  6E2C               	movwf	___fldiv@b^0,c
  4502  0011BE  0E00               	movlw	0
  4503  0011C0  6E2D               	movwf	(___fldiv@b+1)^0,c
  4504  0011C2  0E00               	movlw	0
  4505  0011C4  6E2E               	movwf	(___fldiv@b+2)^0,c
  4506  0011C6  0E00               	movlw	0
  4507  0011C8  6E2F               	movwf	(___fldiv@b+3)^0,c
  4508  0011CA                     i2l2562:
  4509  0011CA  BE3E               	btfsc	(___fldiv@new_exp+1)^0,7,c
  4510  0011CC  EFF2  F008         	goto	i2u272_40
  4511  0011D0  503E               	movf	(___fldiv@new_exp+1)^0,w,c
  4512  0011D2  E106               	bnz	i2u272_41
  4513  0011D4  043D               	decf	___fldiv@new_exp^0,w,c
  4514  0011D6  B0D8               	btfsc	status,0,c
  4515  0011D8  EFF0  F008         	goto	i2u272_41
  4516  0011DC  EFF2  F008         	goto	i2u272_40
  4517  0011E0                     i2u272_41:
  4518  0011E0  EF00  F009         	goto	i2l2566
  4519  0011E4                     i2u272_40:
  4520  0011E4  0E00               	movlw	0
  4521  0011E6  6E3E               	movwf	(___fldiv@new_exp+1)^0,c
  4522  0011E8  0E00               	movlw	0
  4523  0011EA  6E3D               	movwf	___fldiv@new_exp^0,c
  4524  0011EC  0E00               	movlw	0
  4525  0011EE  6E2C               	movwf	___fldiv@b^0,c
  4526  0011F0  0E00               	movlw	0
  4527  0011F2  6E2D               	movwf	(___fldiv@b+1)^0,c
  4528  0011F4  0E00               	movlw	0
  4529  0011F6  6E2E               	movwf	(___fldiv@b+2)^0,c
  4530  0011F8  0E00               	movlw	0
  4531  0011FA  6E2F               	movwf	(___fldiv@b+3)^0,c
  4532  0011FC  0E00               	movlw	0
  4533  0011FE  6E3C               	movwf	___fldiv@sign^0,c
  4534  001200                     i2l2566:
  4535  001200  C03D  F043         	movff	___fldiv@new_exp,___fldiv@bexp
  4536  001204  A043               	btfss	___fldiv@bexp^0,0,c
  4537  001206  EF07  F009         	goto	i2u273_41
  4538  00120A  EF09  F009         	goto	i2u273_40
  4539  00120E                     i2u273_41:
  4540  00120E  EF0C  F009         	goto	i2l2572
  4541  001212                     i2u273_40:
  4542  001212  8E2E               	bsf	(___fldiv@b+2)^0,7,c
  4543  001214  EF0D  F009         	goto	i2l2574
  4544  001218                     i2l2572:
  4545  001218  9E2E               	bcf	(___fldiv@b+2)^0,7,c
  4546  00121A                     i2l2574:
  4547  00121A  90D8               	bcf	status,0,c
  4548  00121C  3043               	rrcf	___fldiv@bexp^0,w,c
  4549  00121E  6E2F               	movwf	(___fldiv@b+3)^0,c
  4550  001220  EFC3  F007         	goto	i2l2488
  4551  001224                     i2l795:
  4552  001224  0012               	return		;funcret
  4553  001226                     __end_of___fldiv:
  4554                           	callstack 0
  4555                           
  4556 ;; *************** function _WriteSPI *****************
  4557 ;; Defined at:
  4558 ;;		line 120 in file "masterMain.c"
  4559 ;; Parameters:    Size  Location     Type
  4560 ;;  data_out        1    wreg     unsigned char 
  4561 ;;  a               1    0[COMRAM] unsigned char 
  4562 ;; Auto vars:     Size  Location     Type
  4563 ;;  data_out        1    1[COMRAM] unsigned char 
  4564 ;;  TempVar         1    0        unsigned char 
  4565 ;; Return value:  Size  Location     Type
  4566 ;;                  1    wreg      char 
  4567 ;; Registers used:
  4568 ;;		wreg, status,2, status,0
  4569 ;; Tracked objects:
  4570 ;;		On entry : 0/0
  4571 ;;		On exit  : 0/0
  4572 ;;		Unchanged: 0/0
  4573 ;; Data sizes:     COMRAM   BANK0   BANK1   BANK2
  4574 ;;      Params:         1       0       0       0
  4575 ;;      Locals:         1       0       0       0
  4576 ;;      Temps:          0       0       0       0
  4577 ;;      Totals:         2       0       0       0
  4578 ;;Total ram usage:        2 bytes
  4579 ;; Hardware stack levels used: 1
  4580 ;; This function calls:
  4581 ;;		Nothing
  4582 ;; This function is called by:
  4583 ;;		_ISR
  4584 ;; This function uses a non-reentrant model
  4585 ;;
  4586                           
  4587                           	psect	text20
  4588  00189C                     __ptext20:
  4589                           	callstack 0
  4590  00189C                     _WriteSPI:
  4591                           	callstack 28
  4592                           
  4593                           ;incstack = 0
  4594                           ;WriteSPI@data_out stored from wreg
  4595  00189C  6E02               	movwf	WriteSPI@data_out^0,c
  4596  00189E                     
  4597                           ;masterMain.c: 121: if(a==1)
  4598  00189E  0401               	decf	WriteSPI@a^0,w,c
  4599  0018A0  A4D8               	btfss	status,2,c
  4600  0018A2  EF55  F00C         	goto	i2u233_41
  4601  0018A6  EF57  F00C         	goto	i2u233_40
  4602  0018AA                     i2u233_41:
  4603  0018AA  EF58  F00C         	goto	i2l2354
  4604  0018AE                     i2u233_40:
  4605  0018AE                     
  4606                           ;masterMain.c: 122: PORTCbits.RC1 = 0;
  4607  0018AE  9282               	bcf	130,1,c	;volatile
  4608  0018B0                     i2l2354:
  4609                           
  4610                           ;masterMain.c: 123: if(a==2)
  4611  0018B0  0E02               	movlw	2
  4612  0018B2  1801               	xorwf	WriteSPI@a^0,w,c
  4613  0018B4  A4D8               	btfss	status,2,c
  4614  0018B6  EF5F  F00C         	goto	i2u234_41
  4615  0018BA  EF61  F00C         	goto	i2u234_40
  4616  0018BE                     i2u234_41:
  4617  0018BE  EF62  F00C         	goto	i2l126
  4618  0018C2                     i2u234_40:
  4619  0018C2                     
  4620                           ;masterMain.c: 124: PORTCbits.RC2 = 0;
  4621  0018C2  9482               	bcf	130,2,c	;volatile
  4622  0018C4                     i2l126:
  4623  0018C4  50C9               	movf	201,w,c	;volatile
  4624                           
  4625                           ;masterMain.c: 127: PIR1bits.SSPIF = 0;
  4626  0018C6  969E               	bcf	158,3,c	;volatile
  4627                           
  4628                           ;masterMain.c: 128: SSPCON1bits.WCOL = 0;
  4629  0018C8  9EC6               	bcf	198,7,c	;volatile
  4630                           
  4631                           ;masterMain.c: 129: SSPBUF = data_out;
  4632  0018CA  C002  FFC9         	movff	WriteSPI@data_out,4041	;volatile
  4633                           
  4634                           ;masterMain.c: 130: if (SSPCON1 & 0x80)
  4635  0018CE  AEC6               	btfss	198,7,c	;volatile
  4636  0018D0  EF6C  F00C         	goto	i2u235_41
  4637  0018D4  EF6E  F00C         	goto	i2u235_40
  4638  0018D8                     i2u235_41:
  4639  0018D8  EF70  F00C         	goto	i2l130
  4640  0018DC                     i2u235_40:
  4641  0018DC  EF8A  F00C         	goto	i2l128
  4642  0018E0                     i2l130:
  4643  0018E0  A69E               	btfss	158,3,c	;volatile
  4644  0018E2  EF75  F00C         	goto	i2u236_41
  4645  0018E6  EF77  F00C         	goto	i2u236_40
  4646  0018EA                     i2u236_41:
  4647  0018EA  EF70  F00C         	goto	i2l130
  4648  0018EE                     i2u236_40:
  4649  0018EE                     
  4650                           ;masterMain.c: 134: if(a==1)
  4651  0018EE  0401               	decf	WriteSPI@a^0,w,c
  4652  0018F0  A4D8               	btfss	status,2,c
  4653  0018F2  EF7D  F00C         	goto	i2u237_41
  4654  0018F6  EF7F  F00C         	goto	i2u237_40
  4655  0018FA                     i2u237_41:
  4656  0018FA  EF80  F00C         	goto	i2l2366
  4657  0018FE                     i2u237_40:
  4658  0018FE                     
  4659                           ;masterMain.c: 135: PORTCbits.RC1 = 1;
  4660  0018FE  8282               	bsf	130,1,c	;volatile
  4661  001900                     i2l2366:
  4662                           
  4663                           ;masterMain.c: 136: if(a==2)
  4664  001900  0E02               	movlw	2
  4665  001902  1801               	xorwf	WriteSPI@a^0,w,c
  4666  001904  A4D8               	btfss	status,2,c
  4667  001906  EF87  F00C         	goto	i2u238_41
  4668  00190A  EF89  F00C         	goto	i2u238_40
  4669  00190E                     i2u238_41:
  4670  00190E  EF8A  F00C         	goto	i2l128
  4671  001912                     i2u238_40:
  4672  001912                     
  4673                           ;masterMain.c: 137: PORTCbits.RC2 = 1;
  4674  001912  8482               	bsf	130,2,c	;volatile
  4675  001914                     i2l128:
  4676  001914  0012               	return		;funcret
  4677  001916                     __end_of_WriteSPI:
  4678                           	callstack 0
  4679                           
  4680 ;; *************** function _UARTM2 *****************
  4681 ;; Defined at:
  4682 ;;		line 174 in file "masterMain.c"
  4683 ;; Parameters:    Size  Location     Type
  4684 ;;		None
  4685 ;; Auto vars:     Size  Location     Type
  4686 ;;  tempM2          1    2[COMRAM] unsigned char 
  4687 ;; Return value:  Size  Location     Type
  4688 ;;                  1    wreg      void 
  4689 ;; Registers used:
  4690 ;;		wreg, status,2, status,0, cstack
  4691 ;; Tracked objects:
  4692 ;;		On entry : 0/0
  4693 ;;		On exit  : 0/0
  4694 ;;		Unchanged: 0/0
  4695 ;; Data sizes:     COMRAM   BANK0   BANK1   BANK2
  4696 ;;      Params:         0       0       0       0
  4697 ;;      Locals:         1       0       0       0
  4698 ;;      Temps:          0       0       0       0
  4699 ;;      Totals:         1       0       0       0
  4700 ;;Total ram usage:        1 bytes
  4701 ;; Hardware stack levels used: 1
  4702 ;; Hardware stack levels required when called: 1
  4703 ;; This function calls:
  4704 ;;		_ReadSPI
  4705 ;; This function is called by:
  4706 ;;		_ISR
  4707 ;; This function uses a non-reentrant model
  4708 ;;
  4709                           
  4710                           	psect	text21
  4711  001A1A                     __ptext21:
  4712                           	callstack 0
  4713  001A1A                     _UARTM2:
  4714                           	callstack 27
  4715  001A1A                     
  4716                           ;masterMain.c: 175: unsigned char tempM2;;masterMain.c: 176: tempM2 = ReadSPI(2);
  4717  001A1A  0E00               	movlw	0
  4718  001A1C  6E02               	movwf	(ReadSPI@a+1)^0,c
  4719  001A1E  0E02               	movlw	2
  4720  001A20  6E01               	movwf	ReadSPI@a^0,c
  4721  001A22  EC8B  F00C         	call	_ReadSPI	;wreg free
  4722  001A26  6E03               	movwf	UARTM2@tempM2^0,c
  4723  001A28                     
  4724                           ;masterMain.c: 177: if ((int)tempM2==0 || (int)tempM2==(int)speedRef2)
  4725  001A28  5003               	movf	UARTM2@tempM2^0,w,c
  4726  001A2A  B4D8               	btfsc	status,2,c
  4727  001A2C  EF1A  F00D         	goto	i2u241_41
  4728  001A30  EF1C  F00D         	goto	i2u241_40
  4729  001A34                     i2u241_41:
  4730  001A34  EF2B  F00D         	goto	i2l158
  4731  001A38                     i2u241_40:
  4732  001A38  505D               	movf	_speedRef2^0,w,c
  4733  001A3A  1803               	xorwf	UARTM2@tempM2^0,w,c
  4734  001A3C  A4D8               	btfss	status,2,c
  4735  001A3E  EF23  F00D         	goto	i2u242_41
  4736  001A42  EF25  F00D         	goto	i2u242_40
  4737  001A46                     i2u242_41:
  4738  001A46  EF27  F00D         	goto	i2l154
  4739  001A4A                     i2u242_40:
  4740  001A4A  EF2B  F00D         	goto	i2l158
  4741  001A4E                     i2l154:
  4742                           
  4743                           ;masterMain.c: 179: else;masterMain.c: 180: speedM2 = (int)tempM2;
  4744  001A4E  C003  F076         	movff	UARTM2@tempM2,_speedM2
  4745  001A52  0100               	movlb	0	; () banked
  4746  001A54  6B77               	clrf	(_speedM2+1)& (0+255),b
  4747  001A56                     i2l158:
  4748  001A56  0012               	return		;funcret
  4749  001A58                     __end_of_UARTM2:
  4750                           	callstack 0
  4751                           
  4752 ;; *************** function _UARTM1 *****************
  4753 ;; Defined at:
  4754 ;;		line 158 in file "masterMain.c"
  4755 ;; Parameters:    Size  Location     Type
  4756 ;;		None
  4757 ;; Auto vars:     Size  Location     Type
  4758 ;;  tempM1          1    2[COMRAM] unsigned char 
  4759 ;; Return value:  Size  Location     Type
  4760 ;;                  1    wreg      void 
  4761 ;; Registers used:
  4762 ;;		wreg, status,2, status,0, cstack
  4763 ;; Tracked objects:
  4764 ;;		On entry : 0/0
  4765 ;;		On exit  : 0/0
  4766 ;;		Unchanged: 0/0
  4767 ;; Data sizes:     COMRAM   BANK0   BANK1   BANK2
  4768 ;;      Params:         0       0       0       0
  4769 ;;      Locals:         1       0       0       0
  4770 ;;      Temps:          0       0       0       0
  4771 ;;      Totals:         1       0       0       0
  4772 ;;Total ram usage:        1 bytes
  4773 ;; Hardware stack levels used: 1
  4774 ;; Hardware stack levels required when called: 1
  4775 ;; This function calls:
  4776 ;;		_ReadSPI
  4777 ;; This function is called by:
  4778 ;;		_ISR
  4779 ;; This function uses a non-reentrant model
  4780 ;;
  4781                           
  4782                           	psect	text22
  4783  001A58                     __ptext22:
  4784                           	callstack 0
  4785  001A58                     _UARTM1:
  4786                           	callstack 27
  4787  001A58                     
  4788                           ;masterMain.c: 159: unsigned char tempM1;;masterMain.c: 160: tempM1 = ReadSPI(1);
  4789  001A58  0E00               	movlw	0
  4790  001A5A  6E02               	movwf	(ReadSPI@a+1)^0,c
  4791  001A5C  0E01               	movlw	1
  4792  001A5E  6E01               	movwf	ReadSPI@a^0,c
  4793  001A60  EC8B  F00C         	call	_ReadSPI	;wreg free
  4794  001A64  6E03               	movwf	UARTM1@tempM1^0,c
  4795  001A66                     
  4796                           ;masterMain.c: 161: if ((int)tempM1==0 || (int)tempM1==(int)speedRef1)
  4797  001A66  5003               	movf	UARTM1@tempM1^0,w,c
  4798  001A68  B4D8               	btfsc	status,2,c
  4799  001A6A  EF39  F00D         	goto	i2u239_41
  4800  001A6E  EF3B  F00D         	goto	i2u239_40
  4801  001A72                     i2u239_41:
  4802  001A72  EF4A  F00D         	goto	i2l151
  4803  001A76                     i2u239_40:
  4804  001A76  505E               	movf	_speedRef1^0,w,c
  4805  001A78  1803               	xorwf	UARTM1@tempM1^0,w,c
  4806  001A7A  A4D8               	btfss	status,2,c
  4807  001A7C  EF42  F00D         	goto	i2u240_41
  4808  001A80  EF44  F00D         	goto	i2u240_40
  4809  001A84                     i2u240_41:
  4810  001A84  EF46  F00D         	goto	i2l147
  4811  001A88                     i2u240_40:
  4812  001A88  EF4A  F00D         	goto	i2l151
  4813  001A8C                     i2l147:
  4814                           
  4815                           ;masterMain.c: 163: else;masterMain.c: 164: speedM1 = (int)tempM1;
  4816  001A8C  C003  F078         	movff	UARTM1@tempM1,_speedM1
  4817  001A90  0100               	movlb	0	; () banked
  4818  001A92  6B79               	clrf	(_speedM1+1)& (0+255),b
  4819  001A94                     i2l151:
  4820  001A94  0012               	return		;funcret
  4821  001A96                     __end_of_UARTM1:
  4822                           	callstack 0
  4823                           
  4824 ;; *************** function _ReadSPI *****************
  4825 ;; Defined at:
  4826 ;;		line 141 in file "masterMain.c"
  4827 ;; Parameters:    Size  Location     Type
  4828 ;;  a               2    0[COMRAM] int 
  4829 ;; Auto vars:     Size  Location     Type
  4830 ;;  TempVar         1    0        unsigned char 
  4831 ;; Return value:  Size  Location     Type
  4832 ;;                  1    wreg      unsigned char 
  4833 ;; Registers used:
  4834 ;;		wreg, status,2, status,0
  4835 ;; Tracked objects:
  4836 ;;		On entry : 0/0
  4837 ;;		On exit  : 0/0
  4838 ;;		Unchanged: 0/0
  4839 ;; Data sizes:     COMRAM   BANK0   BANK1   BANK2
  4840 ;;      Params:         2       0       0       0
  4841 ;;      Locals:         0       0       0       0
  4842 ;;      Temps:          0       0       0       0
  4843 ;;      Totals:         2       0       0       0
  4844 ;;Total ram usage:        2 bytes
  4845 ;; Hardware stack levels used: 1
  4846 ;; This function calls:
  4847 ;;		Nothing
  4848 ;; This function is called by:
  4849 ;;		_UARTM1
  4850 ;;		_UARTM2
  4851 ;; This function uses a non-reentrant model
  4852 ;;
  4853                           
  4854                           	psect	text23
  4855  001916                     __ptext23:
  4856                           	callstack 0
  4857  001916                     _ReadSPI:
  4858                           	callstack 27
  4859  001916                     
  4860                           ;masterMain.c: 142: if(a==1)
  4861  001916  0401               	decf	ReadSPI@a^0,w,c
  4862  001918  1002               	iorwf	(ReadSPI@a+1)^0,w,c
  4863  00191A  A4D8               	btfss	status,2,c
  4864  00191C  EF92  F00C         	goto	i2u224_41
  4865  001920  EF94  F00C         	goto	i2u224_40
  4866  001924                     i2u224_41:
  4867  001924  EF95  F00C         	goto	i2l2290
  4868  001928                     i2u224_40:
  4869  001928                     
  4870                           ;masterMain.c: 143: PORTCbits.RC1 = 0;
  4871  001928  9282               	bcf	130,1,c	;volatile
  4872  00192A                     i2l2290:
  4873                           
  4874                           ;masterMain.c: 144: if(a==2)
  4875  00192A  0E02               	movlw	2
  4876  00192C  1801               	xorwf	ReadSPI@a^0,w,c
  4877  00192E  1002               	iorwf	(ReadSPI@a+1)^0,w,c
  4878  001930  A4D8               	btfss	status,2,c
  4879  001932  EF9D  F00C         	goto	i2u225_41
  4880  001936  EF9F  F00C         	goto	i2u225_40
  4881  00193A                     i2u225_41:
  4882  00193A  EFA0  F00C         	goto	i2l138
  4883  00193E                     i2u225_40:
  4884  00193E                     
  4885                           ;masterMain.c: 145: PORTCbits.RC2 = 0;
  4886  00193E  9482               	bcf	130,2,c	;volatile
  4887  001940                     i2l138:
  4888  001940  50C9               	movf	201,w,c	;volatile
  4889                           
  4890                           ;masterMain.c: 148: PIR1bits.SSPIF = 0;
  4891  001942  969E               	bcf	158,3,c	;volatile
  4892  001944                     
  4893                           ;masterMain.c: 149: SSPBUF = 0x00;
  4894  001944  0E00               	movlw	0
  4895  001946  6EC9               	movwf	201,c	;volatile
  4896  001948                     i2l139:
  4897  001948  A69E               	btfss	158,3,c	;volatile
  4898  00194A  EFA9  F00C         	goto	i2u226_41
  4899  00194E  EFAB  F00C         	goto	i2u226_40
  4900  001952                     i2u226_41:
  4901  001952  EFA4  F00C         	goto	i2l139
  4902  001956                     i2u226_40:
  4903  001956                     
  4904                           ;masterMain.c: 151: if(a==1)
  4905  001956  0401               	decf	ReadSPI@a^0,w,c
  4906  001958  1002               	iorwf	(ReadSPI@a+1)^0,w,c
  4907  00195A  A4D8               	btfss	status,2,c
  4908  00195C  EFB2  F00C         	goto	i2u227_41
  4909  001960  EFB4  F00C         	goto	i2u227_40
  4910  001964                     i2u227_41:
  4911  001964  EFB5  F00C         	goto	i2l2300
  4912  001968                     i2u227_40:
  4913  001968                     
  4914                           ;masterMain.c: 152: PORTCbits.RC1 = 1;
  4915  001968  8282               	bsf	130,1,c	;volatile
  4916  00196A                     i2l2300:
  4917                           
  4918                           ;masterMain.c: 153: if(a==2)
  4919  00196A  0E02               	movlw	2
  4920  00196C  1801               	xorwf	ReadSPI@a^0,w,c
  4921  00196E  1002               	iorwf	(ReadSPI@a+1)^0,w,c
  4922  001970  A4D8               	btfss	status,2,c
  4923  001972  EFBD  F00C         	goto	i2u228_41
  4924  001976  EFBF  F00C         	goto	i2u228_40
  4925  00197A                     i2u228_41:
  4926  00197A  EFC0  F00C         	goto	i2l2304
  4927  00197E                     i2u228_40:
  4928  00197E                     
  4929                           ;masterMain.c: 154: PORTCbits.RC2 = 1;
  4930  00197E  8482               	bsf	130,2,c	;volatile
  4931  001980                     i2l2304:
  4932                           
  4933                           ;masterMain.c: 155: return (SSPBUF);
  4934  001980  50C9               	movf	201,w,c	;volatile
  4935  001982  0012               	return		;funcret
  4936  001984                     __end_of_ReadSPI:
  4937                           	callstack 0
  4938  0000                     
  4939                           	psect	rparam
  4940  0000                     
  4941                           	psect	temp
  4942  00005F                     btemp:
  4943                           	callstack 0
  4944  00005F                     	ds	1
  4945  0000                     int$flags	set	btemp
  4946  0000                     wtemp8	set	btemp+1
  4947  0000                     ttemp5	set	btemp+1
  4948  0000                     ttemp6	set	btemp+4
  4949  0000                     ttemp7	set	btemp+8
  4950                           
  4951                           	psect	idloc
  4952                           
  4953                           ;Config register IDLOC0 @ 0x200000
  4954                           ;	unspecified, using default values
  4955  200000                     	org	2097152
  4956  200000  FF                 	db	255
  4957                           
  4958                           ;Config register IDLOC1 @ 0x200001
  4959                           ;	unspecified, using default values
  4960  200001                     	org	2097153
  4961  200001  FF                 	db	255
  4962                           
  4963                           ;Config register IDLOC2 @ 0x200002
  4964                           ;	unspecified, using default values
  4965  200002                     	org	2097154
  4966  200002  FF                 	db	255
  4967                           
  4968                           ;Config register IDLOC3 @ 0x200003
  4969                           ;	unspecified, using default values
  4970  200003                     	org	2097155
  4971  200003  FF                 	db	255
  4972                           
  4973                           ;Config register IDLOC4 @ 0x200004
  4974                           ;	unspecified, using default values
  4975  200004                     	org	2097156
  4976  200004  FF                 	db	255
  4977                           
  4978                           ;Config register IDLOC5 @ 0x200005
  4979                           ;	unspecified, using default values
  4980  200005                     	org	2097157
  4981  200005  FF                 	db	255
  4982                           
  4983                           ;Config register IDLOC6 @ 0x200006
  4984                           ;	unspecified, using default values
  4985  200006                     	org	2097158
  4986  200006  FF                 	db	255
  4987                           
  4988                           ;Config register IDLOC7 @ 0x200007
  4989                           ;	unspecified, using default values
  4990  200007                     	org	2097159
  4991  200007  FF                 	db	255
  4992                           
  4993                           	psect	config
  4994                           
  4995                           ; Padding undefined space
  4996  300000                     	org	3145728
  4997  300000  FF                 	db	255
  4998                           
  4999                           ;Config register CONFIG1H @ 0x300001
  5000                           ;	Oscillator Selection bits
  5001                           ;	OSC = RC, 11XX External RC oscillator, CLKO function on RA6
  5002                           ;	Fail-Safe Clock Monitor Enable bit
  5003                           ;	FCMEN = ON, Fail-Safe Clock Monitor enabled
  5004                           ;	Internal External Oscillator Switchover bit
  5005                           ;	IESO = ON, Internal External Switchover mode enabled
  5006  300001                     	org	3145729
  5007  300001  CC                 	db	204
  5008                           
  5009                           ;Config register CONFIG2L @ 0x300002
  5010                           ;	Power-up Timer Enable bit
  5011                           ;	PWRTEN = OFF, PWRT disabled
  5012                           ;	Brown-out Reset Enable bits
  5013                           ;	BOREN = ON, Brown-out Reset enabled
  5014                           ;	Brown Out Reset Voltage bits
  5015                           ;	BORV = 0x3, unprogrammed default
  5016  300002                     	org	3145730
  5017  300002  0F                 	db	15
  5018                           
  5019                           ;Config register CONFIG2H @ 0x300003
  5020                           ;	Watchdog Timer Enable bit
  5021                           ;	WDTEN = OFF, WDT disabled (control is placed on the SWDTEN bit)
  5022                           ;	Watchdog Timer Postscale Select bits
  5023                           ;	WDPS = 32768, 1:32768
  5024                           ;	Watchdog Timer Window Enable bit
  5025                           ;	WINEN = OFF, WDT window disabled
  5026  300003                     	org	3145731
  5027  300003  3E                 	db	62
  5028                           
  5029                           ;Config register CONFIG3L @ 0x300004
  5030                           ;	PWM output pins Reset state control
  5031                           ;	PWMPIN = OFF, PWM outputs disabled upon Reset (default)
  5032                           ;	Low-Side Transistors Polarity
  5033                           ;	LPOL = HIGH, PWM0, 2, 4 and 6 are active-high
  5034                           ;	High-Side Transistors Polarity
  5035                           ;	HPOL = HIGH, PWM1, 3, 5 and 7 are active-high
  5036                           ;	Timer1 Oscillator MUX
  5037                           ;	T1OSCMX = ON, Low-power Timer1 operation when microcontroller is in Sleep mode
  5038  300004                     	org	3145732
  5039  300004  3C                 	db	60
  5040                           
  5041                           ;Config register CONFIG3H @ 0x300005
  5042                           ;	FLTA MUX bit
  5043                           ;	FLTAMX = RC1, FLTA input is multiplexed with RC1
  5044                           ;	SSP I/O MUX bit
  5045                           ;	SSPMX = RD1, SCK/SCL clocks and SDA/SDI data are multiplexed with RD3 and RD2, respect
      +                          ively. SDO output is multiplexed with RD1.
  5046                           ;	PWM4 MUX bit
  5047                           ;	PWM4MX = RB5, PWM4 output is multiplexed with RB5
  5048                           ;	TMR0/T5CKI External clock MUX bit
  5049                           ;	EXCLKMX = RC3, TMR0/T5CKI external clock input is multiplexed with RC3
  5050                           ;	MCLR Pin Enable bit
  5051                           ;	MCLRE = ON, Enabled
  5052  300005                     	org	3145733
  5053  300005  99                 	db	153
  5054                           
  5055                           ;Config register CONFIG4L @ 0x300006
  5056                           ;	Stack Full/Underflow Reset Enable bit
  5057                           ;	STVREN = ON, Stack full/underflow will cause Reset
  5058                           ;	Low-Voltage ICSP Enable bit
  5059                           ;	LVP = ON, Low-voltage ICSP enabled
  5060                           ;	Background Debugger Enable bit
  5061                           ;	DEBUG = 0x1, unprogrammed default
  5062  300006                     	org	3145734
  5063  300006  85                 	db	133
  5064                           
  5065                           ; Padding undefined space
  5066  300007                     	org	3145735
  5067  300007  FF                 	db	255
  5068                           
  5069                           ;Config register CONFIG5L @ 0x300008
  5070                           ;	Code Protection bit
  5071                           ;	CP0 = OFF, Block 0 (000200-000FFFh) not code-protected
  5072                           ;	Code Protection bit
  5073                           ;	CP1 = OFF, Block 1 (001000-001FFF) not code-protected
  5074                           ;	Code Protection bit
  5075                           ;	CP2 = OFF, Block 2 (002000-002FFFh) not code-protected
  5076                           ;	Code Protection bit
  5077                           ;	CP3 = OFF, Block 3 (003000-003FFFh) not code-protected
  5078  300008                     	org	3145736
  5079  300008  0F                 	db	15
  5080                           
  5081                           ;Config register CONFIG5H @ 0x300009
  5082                           ;	Boot Block Code Protection bit
  5083                           ;	CPB = OFF, Boot Block (000000-0001FFh) not code-protected
  5084                           ;	Data EEPROM Code Protection bit
  5085                           ;	CPD = OFF, Data EEPROM not code-protected
  5086  300009                     	org	3145737
  5087  300009  C0                 	db	192
  5088                           
  5089                           ;Config register CONFIG6L @ 0x30000A
  5090                           ;	Write Protection bit
  5091                           ;	WRT0 = OFF, Block 0 (000200-000FFFh) not write-protected
  5092                           ;	Write Protection bit
  5093                           ;	WRT1 = OFF, Block 1 (001000-001FFF) not write-protected
  5094                           ;	Write Protection bit
  5095                           ;	WRT2 = OFF, Block 2 (002000-002FFFh) not write-protected
  5096                           ;	Write Protection bit
  5097                           ;	WRT3 = OFF, Block 3 (003000-003FFFh) not write-protected
  5098  30000A                     	org	3145738
  5099  30000A  0F                 	db	15
  5100                           
  5101                           ;Config register CONFIG6H @ 0x30000B
  5102                           ;	Configuration Register Write Protection bit
  5103                           ;	WRTC = OFF, Configuration registers (300000-3000FFh) not write-protected
  5104                           ;	Boot Block Write Protection bit
  5105                           ;	WRTB = OFF, Boot Block (000000-0001FFh) not write-protected
  5106                           ;	Data EEPROM Write Protection bit
  5107                           ;	WRTD = OFF, Data EEPROM not write-protected
  5108  30000B                     	org	3145739
  5109  30000B  E0                 	db	224
  5110                           
  5111                           ;Config register CONFIG7L @ 0x30000C
  5112                           ;	Table Read Protection bit
  5113                           ;	EBTR0 = OFF, Block 0 (000200-000FFFh) not protected from table reads executed in other
      +                           blocks
  5114                           ;	Table Read Protection bit
  5115                           ;	EBTR1 = OFF, Block 1 (001000-001FFF) not protected from table reads executed in other 
      +                          blocks
  5116                           ;	Table Read Protection bit
  5117                           ;	EBTR2 = OFF, Block 2 (002000-002FFFh) not protected from table reads executed in other
      +                           blocks
  5118                           ;	Table Read Protection bit
  5119                           ;	EBTR3 = OFF, Block 3 (003000-003FFFh) not protected from table reads executed in other
      +                           blocks
  5120  30000C                     	org	3145740
  5121  30000C  0F                 	db	15
  5122                           
  5123                           ;Config register CONFIG7H @ 0x30000D
  5124                           ;	Boot Block Table Read Protection bit
  5125                           ;	EBTRB = OFF, Boot Block (000000-0001FFh) not protected from table reads executed in ot
      +                          her blocks
  5126  30000D                     	org	3145741
  5127  30000D  40                 	db	64
  5128                           tosu	equ	0xFFF
  5129                           tosh	equ	0xFFE
  5130                           tosl	equ	0xFFD
  5131                           stkptr	equ	0xFFC
  5132                           pclatu	equ	0xFFB
  5133                           pclath	equ	0xFFA
  5134                           pcl	equ	0xFF9
  5135                           tblptru	equ	0xFF8
  5136                           tblptrh	equ	0xFF7
  5137                           tblptrl	equ	0xFF6
  5138                           tablat	equ	0xFF5
  5139                           prodh	equ	0xFF4
  5140                           prodl	equ	0xFF3
  5141                           indf0	equ	0xFEF
  5142                           postinc0	equ	0xFEE
  5143                           postdec0	equ	0xFED
  5144                           preinc0	equ	0xFEC
  5145                           plusw0	equ	0xFEB
  5146                           fsr0h	equ	0xFEA
  5147                           fsr0l	equ	0xFE9
  5148                           wreg	equ	0xFE8
  5149                           indf1	equ	0xFE7
  5150                           postinc1	equ	0xFE6
  5151                           postdec1	equ	0xFE5
  5152                           preinc1	equ	0xFE4
  5153                           plusw1	equ	0xFE3
  5154                           fsr1h	equ	0xFE2
  5155                           fsr1l	equ	0xFE1
  5156                           bsr	equ	0xFE0
  5157                           indf2	equ	0xFDF
  5158                           postinc2	equ	0xFDE
  5159                           postdec2	equ	0xFDD
  5160                           preinc2	equ	0xFDC
  5161                           plusw2	equ	0xFDB
  5162                           fsr2h	equ	0xFDA
  5163                           fsr2l	equ	0xFD9
  5164                           status	equ	0xFD8

Data Sizes:
    Strings     0
    Constant    0
    Data        16
    BSS         37
    Persistent  0
    Stack       0

Auto Spaces:
    Space          Size  Autos    Used
    COMRAM           94     92      94
    BANK0           160     35      86
    BANK1           256      0       0
    BANK2           256      0       0

Pointer List with Targets:

    frexp@eptr	PTR int  size(2) Largest target is 2
		 -> trunc@expon(COMRAM[2]), 

    atoi@s	PTR const unsigned char  size(2) Largest target is 4
		 -> str(BANK0[4]), 


Critical Paths under _main in COMRAM

    None.

Critical Paths under _ISR in COMRAM

    _ISR->_round
    _round->_trunc
    _trunc->___fltol
    _frexp->___fleq
    ___xxtofl->_abs
    ___fltol->___fldiv
    ___flsub->_trunc
    _atoi->___wmul
    ___flmul->___xxtofl
    ___fldiv->___flmul
    _UARTM2->_ReadSPI
    _UARTM1->_ReadSPI

Critical Paths under _main in BANK0

    None.

Critical Paths under _ISR in BANK0

    _ISR->_round
    _round->___flsub

Critical Paths under _main in BANK1

    None.

Critical Paths under _ISR in BANK1

    None.

Critical Paths under _main in BANK2

    None.

Critical Paths under _ISR in BANK2

    None.

Call Graph Tables:

 ---------------------------------------------------------------------------------
 (Depth) Function   	        Calls       Base Space   Used Autos Params    Refs
 ---------------------------------------------------------------------------------
 (0) _main                                                 0     0      0       0
                    _SPI_Init_Master
                        _setupTimer0
                          _setupUART
 ---------------------------------------------------------------------------------
 (1) _setupUART                                            0     0      0       0
 ---------------------------------------------------------------------------------
 (1) _setupTimer0                                          0     0      0       0
 ---------------------------------------------------------------------------------
 (1) _SPI_Init_Master                                      0     0      0       0
 ---------------------------------------------------------------------------------
 Estimated maximum stack depth 1
 ---------------------------------------------------------------------------------
 (Depth) Function   	        Calls       Base Space   Used Autos Params    Refs
 ---------------------------------------------------------------------------------
 (2) _ISR                                                 23    23      0   14919
                                             12 BANK0     23    23      0
                             _UARTM1
                             _UARTM2
                           _WriteSPI
                            ___fldiv
                            ___flmul
                            ___fltol
                           ___xxtofl
                                _abs
                               _atoi
                            _isdigit
                              _round
                            _rx_char
 ---------------------------------------------------------------------------------
 (3) _rx_char                                              0     0      0       0
 ---------------------------------------------------------------------------------
 (3) _round                                                8     4      4    7717
                                             88 COMRAM     4     0      4
                                              8 BANK0      4     4      0
                            ___fladd
                            ___fldiv (ARG)
                            ___flmul (ARG)
                            ___flsub
                                _abs (ARG)
                              _trunc
 ---------------------------------------------------------------------------------
 (4) _trunc                                               10     6      4    2302
                                             78 COMRAM    10     6      4
                            ___fltol
                           ___xxtofl
                              _frexp
 ---------------------------------------------------------------------------------
 (5) _frexp                                                8     2      6     980
                                             12 COMRAM     8     2      6
                             ___fleq
 ---------------------------------------------------------------------------------
 (6) ___fleq                                              12     4      8     620
                                              0 COMRAM    12     4      8
 ---------------------------------------------------------------------------------
 (5) ___xxtofl                                            14    10      4     550
                                              4 COMRAM    14    10      4
                                _abs (ARG)
 ---------------------------------------------------------------------------------
 (5) ___fltol                                             10     6      4     457
                                             68 COMRAM    10     6      4
                            ___fldiv (ARG)
                            ___flmul (ARG)
                           ___xxtofl (ARG)
                                _abs (ARG)
 ---------------------------------------------------------------------------------
 (4) ___flsub                                              8     0      8    2737
                                              0 BANK0      8     0      8
                            ___fladd
                              _trunc (ARG)
 ---------------------------------------------------------------------------------
 (5) ___fladd                                             16     8      8    2414
                                              0 COMRAM    16     8      8
 ---------------------------------------------------------------------------------
 (3) _atoi                                                 7     5      2     759
                                              6 COMRAM     7     5      2
                             ___wmul
                            _isdigit
 ---------------------------------------------------------------------------------
 (3) _isdigit                                              3     3      0      68
                                              0 COMRAM     3     3      0
 ---------------------------------------------------------------------------------
 (4) ___wmul                                               6     2      4     311
                                              0 COMRAM     6     2      4
 ---------------------------------------------------------------------------------
 (3) _abs                                                  4     2      2     142
                                              0 COMRAM     4     2      2
 ---------------------------------------------------------------------------------
 (3) ___flmul                                             25    17      8    2504
                                             18 COMRAM    25    17      8
                           ___xxtofl (ARG)
                                _abs (ARG)
 ---------------------------------------------------------------------------------
 (3) ___fldiv                                             25    17      8    1551
                                             43 COMRAM    25    17      8
                            ___flmul (ARG)
                           ___xxtofl (ARG)
                                _abs (ARG)
 ---------------------------------------------------------------------------------
 (3) _WriteSPI                                             3     2      1     263
                                              0 COMRAM     2     1      1
 ---------------------------------------------------------------------------------
 (3) _UARTM2                                               1     1      0     308
                                              2 COMRAM     1     1      0
                            _ReadSPI
 ---------------------------------------------------------------------------------
 (3) _UARTM1                                               1     1      0     308
                                              2 COMRAM     1     1      0
                            _ReadSPI
 ---------------------------------------------------------------------------------
 (4) _ReadSPI                                              3     1      2     241
                                              0 COMRAM     2     0      2
 ---------------------------------------------------------------------------------
 Estimated maximum stack depth 6
 ---------------------------------------------------------------------------------

 Call Graph Graphs:

 _main (ROOT)
   _SPI_Init_Master
   _setupTimer0
   _setupUART

 _ISR (ROOT)
   _UARTM1
     _ReadSPI
   _UARTM2
     _ReadSPI
   _WriteSPI
   ___fldiv
     ___flmul (ARG)
       ___xxtofl (ARG)
         _abs (ARG)
       _abs (ARG)
     ___xxtofl (ARG)
     _abs (ARG)
   ___flmul
   ___fltol
     ___fldiv (ARG)
     ___flmul (ARG)
     ___xxtofl (ARG)
     _abs (ARG)
   ___xxtofl
   _abs
   _atoi
     ___wmul
     _isdigit
   _isdigit
   _round
     ___fladd
     ___fldiv (ARG)
     ___flmul (ARG)
     ___flsub (ARG)
       ___fladd
       _trunc (ARG)
         ___fltol
         ___xxtofl
         _frexp
           ___fleq
     _abs (ARG)
     _trunc (ARG)
   _rx_char

 Address spaces:
Name               Size   Autos  Total    Cost      Usage
BIGRAM             2FF      0       0      10        0.0%
EEDATA             100      0       0       0        0.0%
BITBANK2           100      0       0       8        0.0%
BANK2              100      0       0       9        0.0%
BITBANK1           100      0       0       6        0.0%
BANK1              100      0       0       7        0.0%
BITBANK0            A0      0       0       4        0.0%
BANK0               A0     23      56       5       53.8%
BITCOMRAM           5E      0       0       0        0.0%
COMRAM              5E     5C      5E       1      100.0%
BITSFR               0      0       0     200        0.0%
SFR                  0      0       0     200        0.0%
STACK                0      0       0       2        0.0%
NULL                 0      0       0       0        0.0%
ABS                  0      0      B4       3        0.0%
DATA                 0      0      B4      11        0.0%
CODE                 0      0       0       0        0.0%


Microchip Technology PIC18 Macro Assembler V2.32 build 20210201212658 
Symbol Table                                                                                   Wed Dec 01 23:22:59 2021

            ___fldiv@aexp 0044              ___fldiv@bexp 0043                         _b 00A8  
                       _r 00AC              ___fldiv@sign 003C                        _CS 007C22  
     ___wmul@multiplicand 0003                       l204 1BA8                       l219 1B76  
                     l192 1AC4                       l193 1AC4                       l198 1B90  
                     _ISR 0008                       _abs 1ACC                       _vel 007D  
                     _str 00B2                       wreg 000FE8              ___flmul@aexp 0024  
            ___flmul@bexp 0025              ___flmul@sign 001F              ___flmul@temp 002A  
            ___flmul@prod 0026                      ?_ISR 0001                      ISR@c 00A7  
            ___fltol@exp1 004E                      ?_abs 0001                      l2430 1BA4  
                    l2440 1B64                      l2432 1B78                      l2442 1B6C  
                    l2434 1B86                      l2436 1B8E                      l2428 1B92  
                    l2438 1B58                      l2830 1A96                      l2840 1AAA  
                    l2832 1A9E                      l2850 1AB8                      l2842 1AAC  
                    l2834 1AA0                      l2852 1ABA                      l2844 1AAE  
                    l2836 1AA2                      l2854 1ABC                      l2846 1AB0  
                    l2838 1AA4                      l2856 1ABE                      l2848 1AB4  
                    l2858 1AC0                      _ADON 007E10                      _RCIF 007CF5  
                    _TMR0 000FD6                      _TMR1 000FCE                      _TRMT 007D61  
                    abs@a 0001                      _atoi 13DA                      _main 1A96  
                    fsr2h 000FDA                      indf2 000FDF                      fsr1l 000FE1  
                    fsr2l 000FD9                      btemp 005F                      prodh 000FF4  
                    prodl 000FF3                      start 059E           ___fldiv@new_exp 003D  
            ___param_bank 000000           __end_of_ReadSPI 1984                     ??_ISR 0091  
                   ??_abs 0003             ___fltol@sign1 004D                     ?_atoi 0007  
         __end_of___fladd 0A62                     ?_main 0001           __end_of___fldiv 1226  
         __end_of___flmul 0E8C           __end_of___flsub 1A1A           __end_of___fltol 15F8  
                   i2l130 18E0                     i2l210 1BBA                     i2l126 18C4  
                   i2l151 1A94                     i2l207 1BAA                     i2l144 1982  
                   i2l128 1914                     i2l225 1B56                     i2l138 1940  
                   i2l154 1A4E                     i2l139 1948                     i2l147 1A8C  
                   i2l171 00BC                     i2l180 0466                     i2l181 0468  
                   i2l158 1A56                     i2l514 15F6                     i2l179 0474  
                   i2l187 058A                     i2l800 1048                     i2l480 1754  
                   i2l741 0790                     i2l806 10CA                     i2l902 14E8  
                   i2l750 0A60                     i2l742 077E                     i2l831 0E8A  
                   i2l903 14F0                     i2l743 0744                     i2l808 1142  
                   i2l809 1130                     i2l913 189A                     i2l834 0D1C  
                   i2l827 0B26                     i2l844 0E4C                     i2l836 0D94  
                   i2l908 1B30                     i2l837 0D82                     i2l758 08AA  
                   i2l926 17F8                     i2l767 097A                     i2l783 1A18  
                   i2l871 13D8                     i2l919 16AA                     i2l768 0968  
                   i2l882 1370                     i2l795 1224                     i2l875 1314  
                   i2l868 127C                     i2l797 1084                     i2l887 1AF6  
                   i2l888 1AFE                     _RCREG 000FAE                     _SPBRG 000FAF  
                   _PORTA 000F80                     _PORTB 000F81                     _PORTE 000F84  
                   _TRISA 000F92                     _TRISB 000F93                     _TRISE 000F96  
                   _TXREG 000FAD   __end_of_SPI_Init_Master 1B78                     _digit 0084  
                   _count 007A                     _frexp 1756                     _errno 0074  
         __end_of_isdigit 1B32                     _omega 007C                     atoi@a 000C  
                   atoi@s 0007                     _round 17FA                     _trunc 15F8  
                   tablat 000FF5           __end_of_rx_char 1BBC                     ttemp5 0060  
                   ttemp6 0063                     ttemp7 0067                     status 000FD8  
                   wtemp8 0060              _stringBuffer 0060           __initialization 1984  
            __end_of_atoi 14F2              __end_of_main 1ACC                    ??_atoi 0009  
                  ??_main 00A8             __activetblptr 000000                    _ADCON0 000FC2  
                  _ADCON1 000FC1                    ?_frexp 000D                    ?_round 0059  
                  ?_trunc 004F          __end_of_WriteSPI 1916                    i2l2000 0620  
                  i2l2010 0648                    i2l2002 0622                    i2l2100 0818  
                  i2l2020 0682                    i2l2012 0658                    i2l2004 0628  
                  i2l2110 088A                    i2l2102 081E                    i2l2030 06AE  
                  i2l2022 0694                    i2l2014 0668                    i2l2006 0636  
                  i2l2120 08E4                    i2l2104 0844                    i2l2112 089A  
                  i2l2040 06C2                    i2l2032 06B2                    i2l2024 06A2  
                  i2l2016 066A                    i2l2008 0638                    i2l2130 0914  
                  i2l2122 08EE                    i2l2114 08C0                    i2l2106 0878  
                  i2l2050 06D6                    i2l2042 06C6                    i2l2034 06B6  
                  i2l2026 06A6                    i2l2018 0672                    i2l2202 1582  
                  i2l2300 196A                    i2l2140 093C                    i2l2132 0918  
                  i2l2124 08FC                    i2l2116 08D0                    i2l2108 087A  
                  i2l2060 0710                    i2l2052 06DA                    i2l2044 06CA  
                  i2l2036 06BA                    i2l2028 06AA                    i2l2220 15E6  
                  i2l2212 15AA                    i2l2204 158C                    i2l2302 197E  
                  i2l2310 1B06                    i2l2150 0996                    i2l2142 094A  
                  i2l2134 0928                    i2l2126 08FE                    i2l2070 0762  
                  i2l2062 072C                    i2l2054 06DE                    i2l2046 06CE  
                  i2l2038 06BE                    i2l2214 15B6                    i2l2206 1596  
                  i2l2230 128C                    i2l2304 1980                    i2l2320 1B32  
                  i2l2312 1B16                    i2l2400 13DA                    i2l2160 0A00  
                  i2l2152 09A4                    i2l2144 0960                    i2l2128 090C  
                  i2l2136 092A                    i2l2080 07AE                    i2l2072 0770  
                  i2l2064 073C                    i2l2048 06D2                    i2l2056 06E2  
                  i2l2216 15C6                    i2l2240 12CA                    i2l2232 12A2  
                  i2l2224 1228                    i2l2322 1B4E                    i2l2314 1B26  
                  i2l2410 1422                    i2l2402 13DE                    i2l2170 0A3A  
                  i2l2162 0A20                    i2l2154 09DE                    i2l2090 07EE  
                  i2l2138 0938                    i2l2074 0772                    i2l2066 0752  
                  i2l2058 06E6                    i2l2218 15D6                    i2l2250 1352  
                  i2l2242 12FC                    i2l2226 1238                    i2l2316 1B2A  
                  i2l2308 1B02                    i2l2412 143C                    i2l2404 13E2  
                  i2l2172 0A40                    i2l2164 0A24                    i2l2148 098A  
                  i2l2156 09E0                    i2l2092 07FA                    i2l2084 07C2  
                  i2l2076 077C                    i2l2068 075E                    i2l2180 14F2  
                  i2l2260 13A8                    i2l2252 1360                    i2l2244 12FE  
                  i2l2236 12B6                    i2l2228 1246                    i2l2340 1636  
                  i2l2332 15F8                    i2l2350 189E                    i2l2510 100C  
                  i2l2502 0FC2                    i2l2422 14A0                    i2l2414 1446  
                  i2l2406 13FC                    i2l2174 0A4E                    i2l2166 0A32  
                  i2l2158 09F0                    i2l2094 07FE                    i2l2086 07D2  
                  i2l2078 079E                    i2l2326 19D2                    i2l2190 1548  
                  i2l2182 1508                    i2l2262 13B8                    i2l2254 137E  
                  i2l2246 130A                    i2l2238 12BE                    i2l2270 1756  
                  i2l2342 164C                    i2l2334 1614                    i2l2352 18AE  
                  i2l2520 1052                    i2l2512 1014                    i2l2504 0FDC  
                  i2l2600 0ACA                    i2l2424 14BC                    i2l2416 1460  
                  i2l2408 1416                    i2l2176 0A50                    i2l2168 0A38  
                  i2l2096 080C                    i2l2088 07E0                    i2l2328 19E4  
                  i2l2192 1558                    i2l2264 13C6                    i2l2256 1380  
                  i2l2248 1346                    i2l2280 17EE                    i2l2272 1788  
                  i2l2344 1660                    i2l2336 1622                    i2l2290 192A  
                  i2l2370 1A58                    i2l2362 18EE                    i2l2354 18B0  
                  i2l2530 10AA                    i2l2522 1070                    i2l2514 1024  
                  i2l2506 0FEC                    i2l2450 0EA8                    i2l2610 0B00  
                  i2l2602 0AD0                    i2l2426 14CC                    i2l2418 1468  
                  i2l2098 080E                    i2l2194 155C                    i2l2186 151C  
                  i2l2266 13C8                    i2l2258 1384                    i2l2282 17F6  
                  i2l2346 169A                    i2l2292 193E                    i2l2372 1A66  
                  i2l2380 1A38                    i2l2364 18FE                    i2l2356 18C2  
                  i2l2540 10E8                    i2l2532 10B0                    i2l2524 1072  
                  i2l2516 1038                    i2l2508 0FFC                    i2l2452 0EB8  
                  i2l2460 0EE2                    i2l2444 0E8C                    i2l2700 0E60  
                  i2l2612 0B10                    i2l2604 0ADE                    i2l2196 156A  
                  i2l2188 1546                    i2l2276 179C                    i2l2294 1944  
                  i2l2286 1916                    i2l2374 1A76                    i2l2366 1900  
                  i2l2550 1152                    i2l2542 10EC                    i2l2534 10BA  
                  i2l2526 1082                    i2l2518 1046                    i2l2470 0F0E  
                  i2l2462 0EF2                    i2l2454 0EC8                    i2l2446 0E98  
                  i2l2702 0E6E                    i2l2630 0B92                    i2l2622 0B5A  
                  i2l2614 0B16                    i2l2606 0AE0                    i2l2278 17DE  
                  i2l2390 1842                    i2l2382 1BAA                    i2l2296 1956  
                  i2l2288 1928                    i2l2376 1A1A                    i2l2368 1912  
                  i2l2560 11B4                    i2l2552 115E                    i2l2544 10FA  
                  i2l2536 10C8                    i2l2528 1094                    i2l2472 0F1E  
                  i2l2480 0F48                    i2l2464 0EF8                    i2l2456 0ED8  
                  i2l2448 0EA6                    i2l2704 0E70                    i2l2640 0BDC  
                  i2l2632 0BAA                    i2l2624 0B66                    i2l2616 0B36  
                  i2l2608 0AF0                    i2l2392 1876                    i2l2384 1BB8  
                  i2l2800 0488                    i2l2720 0028                    i2l2298 1968  
                  i2l2378 1A28                    i2l2570 1212                    i2l2562 11CA  
                  i2l2554 116C                    i2l2546 1128                    i2l2538 10DA  
                  i2l2490 0F8A                    i2l2482 0F58                    i2l2474 0F2E  
                  i2l2466 0EFE                    i2l2458 0EDA                    i2l2706 0E76  
                  i2l2650 0C32                    i2l2642 0BEC                    i2l2634 0BB6  
                  i2l2626 0B70                    i2l2618 0B46                    i2l2810 04D2  
                  i2l2730 0076                    i2l2722 0030                    i2l2572 1218  
                  i2l2564 11E4                    i2l2556 1196                    i2l2484 0F6E  
                  i2l2476 0F3E                    i2l2468 0F0C                    i2l2708 0E7A  
                  i2l2660 0CD6                    i2l2652 0C4E                    i2l2644 0BF8  
                  i2l2636 0BC2                    i2l2628 0B86                    i2l2396 1ACC  
                  i2l2388 17FA                    i2l2820 0532                    i2l2812 04D6  
                  i2l2804 049C                    i2l2740 00CE                    i2l2724 0040  
                  i2l2732 0078                    i2l2574 121A                    i2l2566 1200  
                  i2l2558 119A                    i2l2486 0F7E                    i2l2494 0F9E  
                  i2l2478 0F40                    i2l2670 0D2C                    i2l2662 0CE4  
                  i2l2654 0C5A                    i2l2646 0C08                    i2l2638 0BD0  
                  i2l2590 0A8E                    i2l2582 0A62                    i2l2398 1ADA  
                  i2l2822 0536                    i2l2814 04E6                    i2l2806 04B2  
                  i2l2750 0118                    i2l2742 00DE                    i2l2734 008A  
                  i2l2726 0050                    i2l2718 001A                    i2l2568 1204  
                  i2l2496 0FAE                    i2l2488 0F86                    i2l2672 0D3A  
                  i2l2664 0D02                    i2l2656 0C76                    i2l2648 0C22  
                  i2l2592 0A9E                    i2l2584 0A6E                    i2l2824 0546  
                  i2l2808 04C2                    i2l2816 0512                    i2l2760 0162  
                  i2l2752 0128                    i2l2744 00F2                    i2l2736 009A  
                  i2l2728 0064                    i2l2498 0FAE                    i2l2682 0DA4  
                  i2l2690 0DEC                    i2l2674 0D3E                    i2l2666 0D0C  
                  i2l2658 0CA0                    i2l2594 0AAE                    i2l2586 0A7C  
                  i2l1970 1728                    i2l1962 16AC                    i2l2818 0522  
                  i2l2826 0570                    i2l2770 01DE                    i2l2762 018E  
                  i2l2754 013C                    i2l2746 0104                    i2l2738 00AE  
                  i2l2692 0E06                    i2l2684 0DB0                    i2l2676 0D4C  
                  i2l2668 0D1A                    i2l2596 0AB4                    i2l2588 0A7E  
                  i2l1980 05AE                    i2l1972 174C                    i2l1964 16DA  
                  i2l2828 0578                    i2l2780 0214                    i2l2772 01E4  
                  i2l2764 01A0                    i2l2756 014A                    i2l2748 0106  
                  i2l2694 0E1A                    i2l2686 0DBE                    i2l2678 0D7A  
                  i2l2598 0AC4                    i2l1990 05EE                    i2l1982 05BC  
                  i2l1974 1752                    i2l1966 16EA                    i2l2790 03E2  
                  i2l2782 022A                    i2l2774 01F6                    i2l2766 01A4  
                  i2l2758 015E                    i2l2696 0E34                    i2l2688 0DE8  
                  i2l1992 05F0                    i2l1984 05BE                    i2l1968 1718  
                  i2l2792 0444                    i2l2784 02DA                    i2l2776 01FA  
                  i2l2768 01D0                    i2l2698 0E50                    i2l1986 05CE  
                  i2l1994 05F8                    i2l1978 05A2                    i2l2794 0448  
                  i2l2786 0322                    i2l2778 0210                    i2l1996 0608  
                  i2l1988 05DE                    i2l2796 0460                    i2l2788 033C  
                  i2l1998 060E                    i2l2798 046C                    _UARTM1 1A58  
                  _UARTM2 1A1A                    _SSPBUF 000FC9          __end_of___xxtofl 13DA  
               ??_ReadSPI 0003                    ___fleq 16AC                 ??___fladd 0009  
                  ___wmul 1B32                 ??___fldiv 0034                 ??___flmul 001B  
               ??___flsub 0059                 ??___fltol 0049                    clear_0 19C2  
                  isa$std 000001                    _number 00B0              __pdataCOMRAM 005D  
               ??_isdigit 0001                    tblptrh 000FF7                    tblptrl 000FF6  
                  tblptru 000FF8                 ??_rx_char 0001                    round@f 008D  
                  round@x 0059          ?_SPI_Init_Master 0001              ?_setupTimer0 0001  
                  trunc@i 0053                    trunc@x 004F              ___xxtofl@arg 000F  
            ___xxtofl@exp 000E              ___xxtofl@val 0005                ___fleq@ff1 0001  
              ___fleq@ff2 0005                __accesstop 0060   __end_of__initialization 19C8  
           ___rparam_used 000001                ___fltol@f1 0045            __pcstackCOMRAM 0001  
            __pidataBANK0 1BBC             __end_of_frexp 17FA             __end_of_round 189C  
           __end_of_trunc 16AC                   ??_frexp 0013                   ??_round 005D  
                 ??_trunc 0053                __pbssBANK0 0060                   ?_UARTM1 0001  
                 ?_UARTM2 0001                   ?___fleq 0001                   ?___wmul 0001  
               ?_WriteSPI 0001        __size_of_setupUART 0018                 ?___xxtofl 0005  
                 _SSPCON1 000FC6                   _SSPSTAT 000FC7           __size_of_UARTM1 003E  
         __size_of_UARTM2 003E                   _ReadSPI 1916                   __Hparam 0000  
                 __Lparam 0000           __size_of___fleq 00AA                   ___fladd 05A2  
                 ___fldiv 0E8C                   ___flmul 0A62                   ___flsub 19D2  
                 ___fltol 14F2           __size_of___wmul 0026                   __pcinit 1984  
                 __ramtop 0300                ??_WriteSPI 0002                   __ptext0 1A96  
                 __ptext1 1B92                   __ptext2 1B78                   __ptext3 1B58  
                 __ptext5 1BAA                   __ptext6 17FA                   __ptext7 15F8  
                 __ptext8 1756                   __ptext9 16AC                   _incStr1 007F  
                 _incStr2 007E                 _T0CONbits 000FD5              __size_of_ISR 0596  
               _T1CONbits 000FCD              __size_of_abs 0034                   _isdigit 1B00  
              ??___xxtofl 0009                   _speedM1 0078                   _speedM2 0076  
                 _rx_char 1BAA      end_of_initialization 19C8      __size_of_setupTimer0 001A  
       __end_of_setupUART 1BAA                 _RCSTAbits 000FAB                   postdec1 000FE5  
                 postdec2 000FDD          WriteSPI@data_out 0002                   postinc0 000FEE  
                 postinc2 000FDE                 _PORTCbits 000F82                 _PORTDbits 000F83  
             ___fladd@grs 0010             ___xxtofl@sign 000D                 _TRISCbits 000F94  
               _TRISDbits 000F95               ___fldiv@grs 003F               ___fldiv@rem 0038  
             ___flmul@grs 0020                 _TXSTAbits 000FAC            __end_of_UARTM1 1A96  
          __end_of_UARTM2 1A58            __end_of___fleq 1756            __end_of___wmul 1B58  
           __pidataCOMRAM 1BCA       start_initialization 1984               __end_of_ISR 059E  
             __end_of_abs 1B00                frexp@value 000D                  ??_UARTM1 0003  
                ??_UARTM2 0003  __size_of_SPI_Init_Master 0020                  ??___fleq 0009  
                ??___wmul 0005               __pdataBANK0 00A8                 ___fladd@a 0005  
               ___fladd@b 0001                 ___fldiv@a 0030                 ___fldiv@b 002C  
       __size_of_WriteSPI 007A                 ___flmul@a 0017                 ___flmul@b 0013  
               ___flsub@a 0089                 ___flsub@b 0085             __pcstackBANK0 0085  
       __size_of___xxtofl 01B4              _isdigit$1317 0002                  ?_ReadSPI 0001  
               WriteSPI@a 0001              UARTM1@tempM1 0003              UARTM2@tempM2 0003  
               __pintcode 0008                  ?___fladd 0001                  ?___fldiv 002C  
                ?___flmul 0013                  ?___flsub 0085                  ?___fltol 0045  
                ?_isdigit 0001                  ?_rx_char 0001            __size_of_frexp 00A4  
          __size_of_round 00A2                  _ISR$1560 009B                  _ISR$1561 009F  
                _ISR$1558 00A3                  _ISR$1559 0097            __size_of_trunc 00B4  
          ___wmul@product 0005                  _IPR1bits 000F9F                  _PIE1bits 000F9D  
                i2u200_40 09F0                  i2u200_41 09EC                  i2u201_40 0A00  
                i2u201_41 09FC                  i2u202_40 0A20                  i2u210_40 15C6  
                i2u202_41 0A1C                  i2u210_41 15C2                  i2u203_40 0A32  
                i2u211_40 15D6                  i2u203_41 0A2E                  i2u211_41 15D2  
                i2u204_40 0A4E                  i2u220_40 13B8                  i2u212_40 1238  
                i2u300_40 00AE                  i2u204_41 0A4A                  i2u220_41 13B4  
                i2u212_41 1234                  i2u300_41 00AA                  i2u205_40 1508  
                i2u221_40 13C6                  i2u213_40 1246                  i2u301_40 00CE  
                i2u205_41 1504                  i2u221_41 13C2                  i2u213_41 1242  
                i2u301_41 00CA                  i2u230_40 1B26                  i2u206_40 153C  
                i2u214_40 12A2                  i2u222_40 1788                  i2u310_40 01B6  
                i2u302_40 00DE                  i2u230_41 1B22                  i2u214_41 129E  
                i2u222_41 1784                  i2u310_41 01AE                  i2u302_41 00DA  
                i2u206_45 1532                  i2u207_40 156A                  i2u215_40 12F8  
                i2u223_40 17CC                  i2u231_40 1622                  i2u311_40 01DE  
                i2u310_48 01BA                  i2u303_40 00F2                  i2u207_41 1566  
                i2u215_41 12F4                  i2u223_41 17C4                  i2u231_41 161E  
                i2u311_41 01DA                  i2u303_41 00EE                  i2u224_40 1928  
                i2u240_40 1A88                  i2u208_40 157E                  i2u216_40 1342  
                i2u223_48 17CE                  i2u232_40 164C                  i2u320_40 04FA  
                i2u312_40 01F6                  i2u304_40 0118                  i2u224_41 1924  
                i2u240_41 1A84                  i2u208_41 157A                  i2u216_41 133E  
                i2u232_41 1648                  i2u320_41 04F0                  i2u312_41 01F2  
                i2u304_41 0114                  i2u225_40 193E                  i2u241_40 1A38  
                i2u233_40 18AE                  i2u209_40 15A6                  i2u217_40 1360  
                i2u321_40 0522                  i2u320_48 04FE                  i2u313_40 0210  
                i2u305_40 0128                  i2u225_41 193A                  i2u241_41 1A34  
                i2u233_41 18AA                  i2u209_41 15A2                  i2u217_41 135C  
                i2u321_41 051E                  i2u313_41 020C                  i2u305_41 0124  
                i2u226_40 1956                  i2u242_40 1A4A                  i2u234_40 18C2  
                i2u250_40 14CC                  i2u170_40 0636                  i2u218_40 1370  
                i2u322_40 0532                  i2u314_40 022A                  i2u306_40 013C  
                i2u226_41 1952                  i2u242_41 1A46                  i2u234_41 18BE  
                i2u250_41 14C8                  i2u170_41 0632                  i2u218_41 136C  
                i2u322_41 052E                  i2u314_41 0226                  i2u306_41 0138  
                i2u227_40 1968                  i2u235_40 18DC                  i2u251_40 0EA6  
                i2u171_40 0648                  i2u219_40 137E                  i2u163_40 16DA  
                i2u243_40 1BB8                  i2u323_40 055A                  i2u315_40 0460  
                i2u307_40 015E                  i2u227_41 1964                  i2u235_41 18D8  
                i2u251_41 0EA2                  i2u171_41 0644                  i2u219_41 137A  
                i2u163_41 16D6                  i2u243_41 1BB4                  i2u323_41 0550  
                i2u315_41 045C                  i2u307_41 015A                  i2u228_40 197E  
                i2u236_40 18EE                  i2u260_40 1046                  i2u252_40 0EB8  
                i2u244_40 1ADA                  i2u180_40 0790                  i2u172_40 0658  
                i2u164_40 1718                  i2u323_48 055E                  i2u316_40 0488  
                i2u308_40 0174                  i2u228_41 197A                  i2u236_41 18EA  
                i2u260_41 1042                  i2u252_41 0EB4                  i2u244_41 1AD6  
                i2u180_41 078C                  i2u172_41 0654                  i2u164_41 1714  
                i2u316_41 0484                  i2u308_41 016C                  i2u324_47 0580  
                i2u237_40 18FE                  i2u261_40 1070                  i2u253_40 0EC8  
                i2u229_40 1B16                  i2u245_40 13FC                  i2u181_40 079E  
                i2u173_40 0694                  i2u165_40 174C                  i2u317_40 04B2  
                i2u309_40 01A0                  i2u308_48 0178                  i2u237_41 18FA  
                i2u261_41 106C                  i2u253_41 0EC4                  i2u229_41 1B12  
                i2u245_41 13F8                  i2u181_41 079A                  i2u173_41 0690  
                i2u165_41 1748                  i2u317_41 04AE                  i2u309_41 019C  
                i2u238_40 1912                  i2u270_40 116C                  i2u262_40 1094  
                i2u254_40 0F0C                  i2u246_40 1416                  i2u190_40 08FC  
                i2u182_40 07AE                  i2u174_40 06A2                  i2u166_40 05BC  
                i2u318_40 04C2                  i2u238_41 190E                  i2u270_41 1168  
                i2u262_41 1090                  i2u254_41 0F08                  i2u246_41 1412  
                i2u190_41 08F8                  i2u182_41 07AA                  i2u174_41 069E  
                i2u166_41 05B8                  i2u318_41 04BE                  i2u239_40 1A76  
                i2u271_40 11B4                  i2u263_40 10AA                  i2u255_40 0F1E  
                i2u247_40 143C                  i2u191_40 090C                  i2u183_40 07E0  
                i2u175_40 0710                  i2u167_40 05CE                  i2u319_40 04D2  
                i2u239_41 1A72                  i2u271_41 11B0                  i2u263_41 10A6  
                i2u255_41 0F1A                  i2u247_41 1438                  i2u191_41 0908  
                i2u183_41 07DC                  i2u175_41 070C                  i2u167_41 05CA  
                i2u319_41 04CE                  i2u272_40 11E4                  i2u264_40 10C8  
                i2u256_40 0F2E                  i2u280_40 0B36                  i2u248_40 1460  
                i2u192_40 0928                  i2u184_40 07EE                  i2u176_40 0728  
                i2u168_40 05DE                  i2u272_41 11E0                  i2u264_41 10C4  
                i2u256_41 0F2A                  i2u280_41 0B32                  i2u248_41 145C  
                i2u192_41 0924                  i2u184_41 07EA                  i2u176_41 0722  
                i2u168_41 05DA                  i2u273_40 1212                  i2u265_40 10E8  
                i2u257_40 0F6E                  i2u281_40 0B46                  i2u249_40 14BC  
                i2u193_40 0938                  i2u185_40 080C                  i2u177_40 072A  
                i2u169_40 0620                  i2u273_41 120E                  i2u265_41 10E4  
                i2u257_41 0F6A                  i2u281_41 0B42                  i2u249_41 14B8  
                i2u193_41 0934                  i2u185_41 0808                  i2u169_41 061C  
                _PIR1bits 000F9E                  i2u266_40 10FA                  i2u258_40 0FAE  
                i2u290_40 0E06                  i2u282_40 0CC0                  i2u274_40 0A7C  
                i2u194_40 094A                  i2u186_40 0844                  i2u178_40 0752  
                i2u266_41 10F6                  i2u258_41 0FAA                  i2u290_41 0E02  
                i2u274_41 0A78                  i2u194_41 0946                  i2u186_41 0840  
                i2u178_41 074E                  i2u282_45 0CB6                  i2u267_40 1128  
                i2u259_40 1024                  i2u291_40 0E34                  i2u283_40 0D1A  
                i2u275_40 0A8E                  i2u195_40 0960                  i2u187_40 088A  
                i2u179_40 0770                  i2u267_41 1124                  i2u259_41 1020  
                i2u291_41 0E30                  i2u283_41 0D16                  i2u275_41 0A8A  
                i2u195_41 095C                  i2u187_41 0886                  i2u179_41 076C  
                i2u268_40 113E                  i2u292_40 0E6E                  i2u284_40 0D3A  
                i2u276_40 0A9E                  i2u196_40 0976                  i2u188_40 08C0  
                i2u268_41 113A                  i2u292_41 0E6A                  i2u284_41 0D36  
                i2u276_41 0A9A                  i2u196_41 0972                  i2u188_41 08BC  
                i2u269_40 1152                  i2u285_40 0D4C                  i2u277_40 0ADE  
                i2u197_40 098A                  i2u189_40 08D0                  i2u269_41 114E  
                i2u285_41 0D48                  i2u277_41 0ADA                  i2u197_41 0986  
                i2u189_41 08CC                  i2u286_40 0D7A                  i2u278_40 0AF0  
                i2u198_40 09A4                  i2u294_40 0028                  i2u286_41 0D76  
                i2u278_41 0AEC                  i2u198_41 09A0                  i2u294_41 0024  
                i2u287_40 0D90                  i2u279_40 0B00                  i2u199_40 09DE  
                i2u295_40 0040                  i2u287_41 0D8C                  i2u279_41 0AFC  
                i2u199_41 09DA                  i2u295_41 003C                  i2u288_40 0DA4  
                i2u296_40 0050                  i2u288_41 0DA0                  i2u296_41 004C  
                i2u289_40 0DBE                  i2u297_40 0064                  i2u289_41 0DBA  
                i2u297_41 0060                  i2u298_40 008A                  i2u298_41 0086  
                i2u299_40 009A                  i2u299_41 0096                 _speedRef1 005E  
               _speedRef2 005D                 _setupUART 1B92         ??_SPI_Init_Master 00A8  
               _transRdy1 0081                 _transRdy2 0080         ___wmul@multiplier 0001  
                ReadSPI@a 0001             ??_setupTimer0 00A8                 copy_data0 1998  
               frexp@eptr 0011          __size_of_ReadSPI 006E                  __Hrparam 0000  
                __Lrparam 0000                ?_setupUART 0001          __size_of___fladd 04C0  
        __size_of___fldiv 039A          __size_of___flmul 042A          __size_of___flsub 0048  
        __size_of___fltol 0106                  _WriteSPI 189C                  ___xxtofl 1226  
        __size_of_isdigit 0032                  __ptext10 1226                  __ptext11 14F2  
                __ptext20 189C                  __ptext12 19D2                  __ptext21 1A1A  
                __ptext13 05A2                  __ptext22 1A58                  __ptext14 13DA  
                __ptext23 1916                  __ptext15 1B00                  __ptext16 1B32  
                __ptext17 1ACC                  __ptext18 0A62                  __ptext19 0E8C  
        __size_of_rx_char 0012                trunc@expon 0057             __size_of_atoi 0118  
           __size_of_main 0036       __end_of_setupTimer0 1B92                  _speed4M1 0083  
                _speed4M2 0082                  isa$xinst 000000                  int$flags 005F  
                atoi@sign 000B                _INTCONbits 000FF2                  isdigit@c 0003  
                intlevel2 0000               ??_setupUART 00A8               _SSPCON1bits 000FC6  
             _setupTimer0 1B78             ___fladd@signs 000D              ___fladd@aexp 000E  
            ___fladd@bexp 000F           _SPI_Init_Master 1B58  
